                                      1 ;--------------------------------------------------------
                                      2 ; File Created by SDCC : free open source ANSI-C Compiler
                                      3 ; Version 3.3.1 #8804 (Aug  6 2013) (Linux)
                                      4 ; This file was generated Mon Aug 25 04:16:20 2014
                                      5 ;--------------------------------------------------------
                                      6 	.module frame802154
                                      7 	.optsdcc -mmcs51 --model-huge
                                      8 	
                                      9 ;--------------------------------------------------------
                                     10 ; Public variables in this module
                                     11 ;--------------------------------------------------------
                                     12 	.globl _rimeaddr_copy
                                     13 	.globl _memset
                                     14 	.globl _memcpy
                                     15 	.globl _frame802154_hdrlen
                                     16 	.globl _frame802154_create
                                     17 	.globl _frame802154_parse
                                     18 ;--------------------------------------------------------
                                     19 ; special function registers
                                     20 ;--------------------------------------------------------
                                     21 	.area RSEG    (ABS,DATA)
      000000                         22 	.org 0x0000
                                     23 ;--------------------------------------------------------
                                     24 ; special function bits
                                     25 ;--------------------------------------------------------
                                     26 	.area RSEG    (ABS,DATA)
      000000                         27 	.org 0x0000
                                     28 ;--------------------------------------------------------
                                     29 ; overlayable register banks
                                     30 ;--------------------------------------------------------
                                     31 	.area REG_BANK_0	(REL,OVR,DATA)
      000000                         32 	.ds 8
                                     33 ;--------------------------------------------------------
                                     34 ; internal ram data
                                     35 ;--------------------------------------------------------
                                     36 	.area DSEG    (DATA)
                                     37 ;--------------------------------------------------------
                                     38 ; overlayable items in internal ram 
                                     39 ;--------------------------------------------------------
                                     40 ;--------------------------------------------------------
                                     41 ; indirectly addressable internal ram data
                                     42 ;--------------------------------------------------------
                                     43 	.area ISEG    (DATA)
                                     44 ;--------------------------------------------------------
                                     45 ; absolute internal ram data
                                     46 ;--------------------------------------------------------
                                     47 	.area IABS    (ABS,DATA)
                                     48 	.area IABS    (ABS,DATA)
                                     49 ;--------------------------------------------------------
                                     50 ; bit data
                                     51 ;--------------------------------------------------------
                                     52 	.area BSEG    (BIT)
                                     53 ;--------------------------------------------------------
                                     54 ; paged external ram data
                                     55 ;--------------------------------------------------------
                                     56 	.area PSEG    (PAG,XDATA)
                                     57 ;--------------------------------------------------------
                                     58 ; external ram data
                                     59 ;--------------------------------------------------------
                                     60 	.area XSEG    (XDATA)
      000000                         61 _flen:
      000000                         62 	.ds 5
      000005                         63 _fcf:
      000005                         64 	.ds 8
                                     65 ;--------------------------------------------------------
                                     66 ; absolute external ram data
                                     67 ;--------------------------------------------------------
                                     68 	.area XABS    (ABS,XDATA)
                                     69 ;--------------------------------------------------------
                                     70 ; external initialized ram data
                                     71 ;--------------------------------------------------------
                                     72 	.area XISEG   (XDATA)
                                     73 	.area HOME    (CODE)
                                     74 	.area GSINIT0 (CODE)
                                     75 	.area GSINIT1 (CODE)
                                     76 	.area GSINIT2 (CODE)
                                     77 	.area GSINIT3 (CODE)
                                     78 	.area GSINIT4 (CODE)
                                     79 	.area GSINIT5 (CODE)
                                     80 	.area GSINIT  (CODE)
                                     81 	.area GSFINAL (CODE)
                                     82 	.area CSEG    (CODE)
                                     83 ;--------------------------------------------------------
                                     84 ; global & static initialisations
                                     85 ;--------------------------------------------------------
                                     86 	.area HOME    (CODE)
                                     87 	.area GSINIT  (CODE)
                                     88 	.area GSFINAL (CODE)
                                     89 	.area GSINIT  (CODE)
                                     90 ;--------------------------------------------------------
                                     91 ; Home
                                     92 ;--------------------------------------------------------
                                     93 	.area HOME    (CODE)
                                     94 	.area HOME    (CODE)
                                     95 ;--------------------------------------------------------
                                     96 ; code
                                     97 ;--------------------------------------------------------
                                     98 	.area BANK1   (CODE)
                                     99 ;------------------------------------------------------------
                                    100 ;Allocation info for local variables in function 'addr_len'
                                    101 ;------------------------------------------------------------
                                    102 ;mode                      Allocated to registers r7 
                                    103 ;------------------------------------------------------------
                                    104 ;	../../../../core/net/mac/frame802154.c:84: addr_len(uint8_t mode)
                                    105 ;	-----------------------------------------
                                    106 ;	 function addr_len
                                    107 ;	-----------------------------------------
      000000                        108 _addr_len:
                           000007   109 	ar7 = 0x07
                           000006   110 	ar6 = 0x06
                           000005   111 	ar5 = 0x05
                           000004   112 	ar4 = 0x04
                           000003   113 	ar3 = 0x03
                           000002   114 	ar2 = 0x02
                           000001   115 	ar1 = 0x01
                           000000   116 	ar0 = 0x00
      000000 AF 82            [24]  117 	mov	r7,dpl
                                    118 ;	../../../../core/net/mac/frame802154.c:86: switch(mode) {
      000002 BF 02 02         [24]  119 	cjne	r7,#0x02,00113$
      000005 80 05            [24]  120 	sjmp	00101$
      000007                        121 00113$:
                                    122 ;	../../../../core/net/mac/frame802154.c:87: case FRAME802154_SHORTADDRMODE:  /* 16-bit address */
      000007 BF 03 0C         [24]  123 	cjne	r7,#0x03,00103$
      00000A 80 05            [24]  124 	sjmp	00102$
      00000C                        125 00101$:
                                    126 ;	../../../../core/net/mac/frame802154.c:88: return 2;
      00000C 75 82 02         [24]  127 	mov	dpl,#0x02
                                    128 ;	../../../../core/net/mac/frame802154.c:89: case FRAME802154_LONGADDRMODE:   /* 64-bit address */
      00000F 80 08            [24]  129 	sjmp	00105$
      000011                        130 00102$:
                                    131 ;	../../../../core/net/mac/frame802154.c:90: return 8;
      000011 75 82 08         [24]  132 	mov	dpl,#0x08
                                    133 ;	../../../../core/net/mac/frame802154.c:91: default:
      000014 80 03            [24]  134 	sjmp	00105$
      000016                        135 00103$:
                                    136 ;	../../../../core/net/mac/frame802154.c:92: return 0;
      000016 75 82 00         [24]  137 	mov	dpl,#0x00
                                    138 ;	../../../../core/net/mac/frame802154.c:93: }
      000019                        139 00105$:
      000019 02r00r00         [24]  140 	ljmp	__sdcc_banked_ret
                                    141 ;------------------------------------------------------------
                                    142 ;Allocation info for local variables in function 'field_len'
                                    143 ;------------------------------------------------------------
                                    144 ;flen                      Allocated to stack - sp -16
                                    145 ;p                         Allocated to stack - sp -10
                                    146 ;sloc0                     Allocated to stack - sp -7
                                    147 ;sloc1                     Allocated to stack - sp -5
                                    148 ;sloc2                     Allocated to stack - sp -2
                                    149 ;------------------------------------------------------------
                                    150 ;	../../../../core/net/mac/frame802154.c:97: field_len(frame802154_t *p, field_length_t *flen)
                                    151 ;	-----------------------------------------
                                    152 ;	 function field_len
                                    153 ;	-----------------------------------------
      00001C                        154 _field_len:
      00001C C0 82            [24]  155 	push	dpl
      00001E C0 83            [24]  156 	push	dph
      000020 C0 F0            [24]  157 	push	b
      000022 E5 81            [12]  158 	mov	a,sp
      000024 24 08            [12]  159 	add	a,#0x08
                                    160 ;	../../../../core/net/mac/frame802154.c:100: memset(flen, 0, sizeof(field_length_t));
      000026 F5 81            [12]  161 	mov	sp,a
      000028 24 F0            [12]  162 	add	a,#0xf0
      00002A F8               [12]  163 	mov	r0,a
      00002B 86 02            [24]  164 	mov	ar2,@r0
      00002D 08               [12]  165 	inc	r0
      00002E 86 03            [24]  166 	mov	ar3,@r0
      000030 08               [12]  167 	inc	r0
      000031 86 04            [24]  168 	mov	ar4,@r0
      000033 74 05            [12]  169 	mov	a,#0x05
      000035 C0 E0            [24]  170 	push	acc
      000037 E4               [12]  171 	clr	a
      000038 C0 E0            [24]  172 	push	acc
      00003A E4               [12]  173 	clr	a
      00003B C0 E0            [24]  174 	push	acc
      00003D 8A 82            [24]  175 	mov	dpl,r2
      00003F 8B 83            [24]  176 	mov	dph,r3
      000041 8C F0            [24]  177 	mov	b,r4
      000043 78r00            [12]  178 	mov	r0,#_memset
      000045 79s00            [12]  179 	mov	r1,#(_memset >> 8)
      000047 7As00            [12]  180 	mov	r2,#(_memset >> 16)
      000049 12r00r00         [24]  181 	lcall	__sdcc_banked_call
      00004C 15 81            [12]  182 	dec	sp
      00004E 15 81            [12]  183 	dec	sp
      000050 15 81            [12]  184 	dec	sp
                                    185 ;	../../../../core/net/mac/frame802154.c:103: if(p->fcf.dest_addr_mode & 3) {
      000052 E5 81            [12]  186 	mov	a,sp
      000054 24 F6            [12]  187 	add	a,#0xf6
      000056 F8               [12]  188 	mov	r0,a
      000057 74 05            [12]  189 	mov	a,#0x05
      000059 26               [12]  190 	add	a,@r0
      00005A FA               [12]  191 	mov	r2,a
      00005B E4               [12]  192 	clr	a
      00005C 08               [12]  193 	inc	r0
      00005D 36               [12]  194 	addc	a,@r0
      00005E FB               [12]  195 	mov	r3,a
      00005F 08               [12]  196 	inc	r0
      000060 86 04            [24]  197 	mov	ar4,@r0
      000062 8A 82            [24]  198 	mov	dpl,r2
      000064 8B 83            [24]  199 	mov	dph,r3
      000066 8C F0            [24]  200 	mov	b,r4
      000068 12r00r00         [24]  201 	lcall	__gptrget
      00006B FF               [12]  202 	mov	r7,a
      00006C 54 03            [12]  203 	anl	a,#0x03
      00006E 60 18            [24]  204 	jz	00102$
                                    205 ;	../../../../core/net/mac/frame802154.c:104: flen->dest_pid_len = 2;
      000070 E5 81            [12]  206 	mov	a,sp
      000072 24 F0            [12]  207 	add	a,#0xf0
      000074 F8               [12]  208 	mov	r0,a
      000075 86 05            [24]  209 	mov	ar5,@r0
      000077 08               [12]  210 	inc	r0
      000078 86 06            [24]  211 	mov	ar6,@r0
      00007A 08               [12]  212 	inc	r0
      00007B 86 07            [24]  213 	mov	ar7,@r0
      00007D 8D 82            [24]  214 	mov	dpl,r5
      00007F 8E 83            [24]  215 	mov	dph,r6
      000081 8F F0            [24]  216 	mov	b,r7
      000083 74 02            [12]  217 	mov	a,#0x02
      000085 12r00r00         [24]  218 	lcall	__gptrput
      000088                        219 00102$:
                                    220 ;	../../../../core/net/mac/frame802154.c:106: if(p->fcf.src_addr_mode & 3) {
      000088 C0 02            [24]  221 	push	ar2
      00008A C0 03            [24]  222 	push	ar3
      00008C C0 04            [24]  223 	push	ar4
      00008E E5 81            [12]  224 	mov	a,sp
      000090 24 F3            [12]  225 	add	a,#0xf3
      000092 F8               [12]  226 	mov	r0,a
      000093 E5 81            [12]  227 	mov	a,sp
      000095 24 F8            [12]  228 	add	a,#0xf8
      000097 F9               [12]  229 	mov	r1,a
      000098 74 07            [12]  230 	mov	a,#0x07
      00009A 26               [12]  231 	add	a,@r0
      00009B F7               [12]  232 	mov	@r1,a
      00009C E4               [12]  233 	clr	a
      00009D 08               [12]  234 	inc	r0
      00009E 36               [12]  235 	addc	a,@r0
      00009F 09               [12]  236 	inc	r1
      0000A0 F7               [12]  237 	mov	@r1,a
      0000A1 08               [12]  238 	inc	r0
      0000A2 09               [12]  239 	inc	r1
      0000A3 E6               [12]  240 	mov	a,@r0
      0000A4 F7               [12]  241 	mov	@r1,a
      0000A5 E5 81            [12]  242 	mov	a,sp
      0000A7 24 F8            [12]  243 	add	a,#0xf8
      0000A9 F8               [12]  244 	mov	r0,a
      0000AA 86 82            [24]  245 	mov	dpl,@r0
      0000AC 08               [12]  246 	inc	r0
      0000AD 86 83            [24]  247 	mov	dph,@r0
      0000AF 08               [12]  248 	inc	r0
      0000B0 86 F0            [24]  249 	mov	b,@r0
      0000B2 12r00r00         [24]  250 	lcall	__gptrget
      0000B5 FC               [12]  251 	mov	r4,a
      0000B6 54 03            [12]  252 	anl	a,#0x03
      0000B8 70 08            [24]  253 	jnz	00128$
      0000BA D0 04            [24]  254 	pop	ar4
      0000BC D0 03            [24]  255 	pop	ar3
      0000BE D0 02            [24]  256 	pop	ar2
      0000C0 80 25            [24]  257 	sjmp	00104$
      0000C2                        258 00128$:
      0000C2 D0 04            [24]  259 	pop	ar4
      0000C4 D0 03            [24]  260 	pop	ar3
      0000C6 D0 02            [24]  261 	pop	ar2
                                    262 ;	../../../../core/net/mac/frame802154.c:107: flen->src_pid_len = 2;
      0000C8 E5 81            [12]  263 	mov	a,sp
      0000CA 24 F0            [12]  264 	add	a,#0xf0
      0000CC F8               [12]  265 	mov	r0,a
      0000CD 86 05            [24]  266 	mov	ar5,@r0
      0000CF 08               [12]  267 	inc	r0
      0000D0 86 06            [24]  268 	mov	ar6,@r0
      0000D2 08               [12]  269 	inc	r0
      0000D3 86 07            [24]  270 	mov	ar7,@r0
      0000D5 74 02            [12]  271 	mov	a,#0x02
      0000D7 2D               [12]  272 	add	a,r5
      0000D8 FD               [12]  273 	mov	r5,a
      0000D9 E4               [12]  274 	clr	a
      0000DA 3E               [12]  275 	addc	a,r6
      0000DB FE               [12]  276 	mov	r6,a
      0000DC 8D 82            [24]  277 	mov	dpl,r5
      0000DE 8E 83            [24]  278 	mov	dph,r6
      0000E0 8F F0            [24]  279 	mov	b,r7
      0000E2 74 02            [12]  280 	mov	a,#0x02
      0000E4 12r00r00         [24]  281 	lcall	__gptrput
                                    282 ;	../../../../core/net/mac/frame802154.c:126: if(p->fcf.security_enabled & 1) {
                                    283 ;	../../../../core/net/mac/frame802154.c:107: flen->src_pid_len = 2;
      0000E7                        284 00104$:
                                    285 ;	../../../../core/net/mac/frame802154.c:111: if(p->fcf.dest_addr_mode & 3 && p->fcf.src_addr_mode & 3 &&
      0000E7 8A 82            [24]  286 	mov	dpl,r2
      0000E9 8B 83            [24]  287 	mov	dph,r3
      0000EB 8C F0            [24]  288 	mov	b,r4
      0000ED 12r00r00         [24]  289 	lcall	__gptrget
      0000F0 FF               [12]  290 	mov	r7,a
      0000F1 54 03            [12]  291 	anl	a,#0x03
      0000F3 70 03            [24]  292 	jnz	00129$
      0000F5 02r01rB3         [24]  293 	ljmp	00106$
      0000F8                        294 00129$:
      0000F8 C0 02            [24]  295 	push	ar2
      0000FA C0 03            [24]  296 	push	ar3
      0000FC C0 04            [24]  297 	push	ar4
      0000FE E5 81            [12]  298 	mov	a,sp
      000100 24 F8            [12]  299 	add	a,#0xf8
      000102 F8               [12]  300 	mov	r0,a
      000103 86 82            [24]  301 	mov	dpl,@r0
      000105 08               [12]  302 	inc	r0
      000106 86 83            [24]  303 	mov	dph,@r0
      000108 08               [12]  304 	inc	r0
      000109 86 F0            [24]  305 	mov	b,@r0
      00010B 12r00r00         [24]  306 	lcall	__gptrget
      00010E FC               [12]  307 	mov	r4,a
      00010F 54 03            [12]  308 	anl	a,#0x03
      000111 70 09            [24]  309 	jnz	00130$
      000113 D0 04            [24]  310 	pop	ar4
      000115 D0 03            [24]  311 	pop	ar3
      000117 D0 02            [24]  312 	pop	ar2
      000119 02r01rB3         [24]  313 	ljmp	00106$
      00011C                        314 00130$:
      00011C D0 04            [24]  315 	pop	ar4
      00011E D0 03            [24]  316 	pop	ar3
      000120 D0 02            [24]  317 	pop	ar2
                                    318 ;	../../../../core/net/mac/frame802154.c:112: p->src_pid == p->dest_pid) {
      000122 E5 81            [12]  319 	mov	a,sp
      000124 24 F6            [12]  320 	add	a,#0xf6
      000126 F8               [12]  321 	mov	r0,a
      000127 74 13            [12]  322 	mov	a,#0x13
      000129 26               [12]  323 	add	a,@r0
      00012A FD               [12]  324 	mov	r5,a
      00012B E4               [12]  325 	clr	a
      00012C 08               [12]  326 	inc	r0
      00012D 36               [12]  327 	addc	a,@r0
      00012E FE               [12]  328 	mov	r6,a
      00012F 08               [12]  329 	inc	r0
      000130 86 07            [24]  330 	mov	ar7,@r0
      000132 8D 82            [24]  331 	mov	dpl,r5
      000134 8E 83            [24]  332 	mov	dph,r6
      000136 8F F0            [24]  333 	mov	b,r7
      000138 E5 81            [12]  334 	mov	a,sp
      00013A 24 F9            [12]  335 	add	a,#0xf9
      00013C F8               [12]  336 	mov	r0,a
      00013D 12r00r00         [24]  337 	lcall	__gptrget
      000140 F6               [12]  338 	mov	@r0,a
      000141 A3               [24]  339 	inc	dptr
      000142 12r00r00         [24]  340 	lcall	__gptrget
      000145 08               [12]  341 	inc	r0
      000146 F6               [12]  342 	mov	@r0,a
      000147 E5 81            [12]  343 	mov	a,sp
      000149 24 F6            [12]  344 	add	a,#0xf6
      00014B F8               [12]  345 	mov	r0,a
      00014C 74 09            [12]  346 	mov	a,#0x09
      00014E 26               [12]  347 	add	a,@r0
      00014F FD               [12]  348 	mov	r5,a
      000150 E4               [12]  349 	clr	a
      000151 08               [12]  350 	inc	r0
      000152 36               [12]  351 	addc	a,@r0
      000153 FE               [12]  352 	mov	r6,a
      000154 08               [12]  353 	inc	r0
      000155 86 07            [24]  354 	mov	ar7,@r0
      000157 8D 82            [24]  355 	mov	dpl,r5
      000159 8E 83            [24]  356 	mov	dph,r6
      00015B 8F F0            [24]  357 	mov	b,r7
      00015D 12r00r00         [24]  358 	lcall	__gptrget
      000160 FD               [12]  359 	mov	r5,a
      000161 A3               [24]  360 	inc	dptr
      000162 12r00r00         [24]  361 	lcall	__gptrget
      000165 FE               [12]  362 	mov	r6,a
      000166 E5 81            [12]  363 	mov	a,sp
      000168 24 F9            [12]  364 	add	a,#0xf9
      00016A F8               [12]  365 	mov	r0,a
      00016B E6               [12]  366 	mov	a,@r0
      00016C B5 05 07         [24]  367 	cjne	a,ar5,00131$
      00016F 08               [12]  368 	inc	r0
      000170 E6               [12]  369 	mov	a,@r0
      000171 B5 06 02         [24]  370 	cjne	a,ar6,00131$
      000174 80 02            [24]  371 	sjmp	00132$
      000176                        372 00131$:
      000176 80 3B            [24]  373 	sjmp	00106$
      000178                        374 00132$:
                                    375 ;	../../../../core/net/mac/frame802154.c:113: p->fcf.panid_compression = 1;
      000178 E5 81            [12]  376 	mov	a,sp
      00017A 24 F6            [12]  377 	add	a,#0xf6
      00017C F8               [12]  378 	mov	r0,a
      00017D 74 04            [12]  379 	mov	a,#0x04
      00017F 26               [12]  380 	add	a,@r0
      000180 FD               [12]  381 	mov	r5,a
      000181 E4               [12]  382 	clr	a
      000182 08               [12]  383 	inc	r0
      000183 36               [12]  384 	addc	a,@r0
      000184 FE               [12]  385 	mov	r6,a
      000185 08               [12]  386 	inc	r0
      000186 86 07            [24]  387 	mov	ar7,@r0
      000188 8D 82            [24]  388 	mov	dpl,r5
      00018A 8E 83            [24]  389 	mov	dph,r6
      00018C 8F F0            [24]  390 	mov	b,r7
      00018E 74 01            [12]  391 	mov	a,#0x01
      000190 12r00r00         [24]  392 	lcall	__gptrput
                                    393 ;	../../../../core/net/mac/frame802154.c:116: flen->src_pid_len = 0;
      000193 E5 81            [12]  394 	mov	a,sp
      000195 24 F0            [12]  395 	add	a,#0xf0
      000197 F8               [12]  396 	mov	r0,a
      000198 86 05            [24]  397 	mov	ar5,@r0
      00019A 08               [12]  398 	inc	r0
      00019B 86 06            [24]  399 	mov	ar6,@r0
      00019D 08               [12]  400 	inc	r0
      00019E 86 07            [24]  401 	mov	ar7,@r0
      0001A0 74 02            [12]  402 	mov	a,#0x02
      0001A2 2D               [12]  403 	add	a,r5
      0001A3 FD               [12]  404 	mov	r5,a
      0001A4 E4               [12]  405 	clr	a
      0001A5 3E               [12]  406 	addc	a,r6
      0001A6 FE               [12]  407 	mov	r6,a
      0001A7 8D 82            [24]  408 	mov	dpl,r5
      0001A9 8E 83            [24]  409 	mov	dph,r6
      0001AB 8F F0            [24]  410 	mov	b,r7
      0001AD E4               [12]  411 	clr	a
      0001AE 12r00r00         [24]  412 	lcall	__gptrput
      0001B1 80 1A            [24]  413 	sjmp	00107$
      0001B3                        414 00106$:
                                    415 ;	../../../../core/net/mac/frame802154.c:118: p->fcf.panid_compression = 0;
      0001B3 E5 81            [12]  416 	mov	a,sp
      0001B5 24 F6            [12]  417 	add	a,#0xf6
      0001B7 F8               [12]  418 	mov	r0,a
      0001B8 74 04            [12]  419 	mov	a,#0x04
      0001BA 26               [12]  420 	add	a,@r0
      0001BB FD               [12]  421 	mov	r5,a
      0001BC E4               [12]  422 	clr	a
      0001BD 08               [12]  423 	inc	r0
      0001BE 36               [12]  424 	addc	a,@r0
      0001BF FE               [12]  425 	mov	r6,a
      0001C0 08               [12]  426 	inc	r0
      0001C1 86 07            [24]  427 	mov	ar7,@r0
      0001C3 8D 82            [24]  428 	mov	dpl,r5
      0001C5 8E 83            [24]  429 	mov	dph,r6
      0001C7 8F F0            [24]  430 	mov	b,r7
      0001C9 E4               [12]  431 	clr	a
      0001CA 12r00r00         [24]  432 	lcall	__gptrput
      0001CD                        433 00107$:
                                    434 ;	../../../../core/net/mac/frame802154.c:122: flen->dest_addr_len = addr_len(p->fcf.dest_addr_mode & 3);
      0001CD E5 81            [12]  435 	mov	a,sp
      0001CF 24 F0            [12]  436 	add	a,#0xf0
      0001D1 F8               [12]  437 	mov	r0,a
      0001D2 A9 81            [24]  438 	mov	r1,sp
      0001D4 19               [12]  439 	dec	r1
      0001D5 19               [12]  440 	dec	r1
      0001D6 E6               [12]  441 	mov	a,@r0
      0001D7 F7               [12]  442 	mov	@r1,a
      0001D8 08               [12]  443 	inc	r0
      0001D9 09               [12]  444 	inc	r1
      0001DA E6               [12]  445 	mov	a,@r0
      0001DB F7               [12]  446 	mov	@r1,a
      0001DC 08               [12]  447 	inc	r0
      0001DD 09               [12]  448 	inc	r1
      0001DE E6               [12]  449 	mov	a,@r0
      0001DF F7               [12]  450 	mov	@r1,a
      0001E0 A8 81            [24]  451 	mov	r0,sp
      0001E2 18               [12]  452 	dec	r0
      0001E3 18               [12]  453 	dec	r0
      0001E4 74 01            [12]  454 	mov	a,#0x01
      0001E6 26               [12]  455 	add	a,@r0
      0001E7 FD               [12]  456 	mov	r5,a
      0001E8 E4               [12]  457 	clr	a
      0001E9 08               [12]  458 	inc	r0
      0001EA 36               [12]  459 	addc	a,@r0
      0001EB FE               [12]  460 	mov	r6,a
      0001EC 08               [12]  461 	inc	r0
      0001ED 86 07            [24]  462 	mov	ar7,@r0
      0001EF 8A 82            [24]  463 	mov	dpl,r2
      0001F1 8B 83            [24]  464 	mov	dph,r3
      0001F3 8C F0            [24]  465 	mov	b,r4
      0001F5 12r00r00         [24]  466 	lcall	__gptrget
      0001F8 FA               [12]  467 	mov	r2,a
      0001F9 53 02 03         [24]  468 	anl	ar2,#0x03
      0001FC 8A 82            [24]  469 	mov	dpl,r2
      0001FE C0 07            [24]  470 	push	ar7
      000200 C0 06            [24]  471 	push	ar6
      000202 C0 05            [24]  472 	push	ar5
      000204 78r00            [12]  473 	mov	r0,#_addr_len
      000206 79s00            [12]  474 	mov	r1,#(_addr_len >> 8)
      000208 7As00            [12]  475 	mov	r2,#(_addr_len >> 16)
      00020A 12r00r00         [24]  476 	lcall	__sdcc_banked_call
      00020D AC 82            [24]  477 	mov	r4,dpl
      00020F D0 05            [24]  478 	pop	ar5
      000211 D0 06            [24]  479 	pop	ar6
      000213 D0 07            [24]  480 	pop	ar7
      000215 8D 82            [24]  481 	mov	dpl,r5
      000217 8E 83            [24]  482 	mov	dph,r6
      000219 8F F0            [24]  483 	mov	b,r7
      00021B EC               [12]  484 	mov	a,r4
      00021C 12r00r00         [24]  485 	lcall	__gptrput
                                    486 ;	../../../../core/net/mac/frame802154.c:123: flen->src_addr_len = addr_len(p->fcf.src_addr_mode & 3);
      00021F A8 81            [24]  487 	mov	r0,sp
      000221 18               [12]  488 	dec	r0
      000222 18               [12]  489 	dec	r0
      000223 74 03            [12]  490 	mov	a,#0x03
      000225 26               [12]  491 	add	a,@r0
      000226 FD               [12]  492 	mov	r5,a
      000227 E4               [12]  493 	clr	a
      000228 08               [12]  494 	inc	r0
      000229 36               [12]  495 	addc	a,@r0
      00022A FE               [12]  496 	mov	r6,a
      00022B 08               [12]  497 	inc	r0
      00022C 86 07            [24]  498 	mov	ar7,@r0
      00022E E5 81            [12]  499 	mov	a,sp
      000230 24 FB            [12]  500 	add	a,#0xfb
      000232 F8               [12]  501 	mov	r0,a
      000233 86 82            [24]  502 	mov	dpl,@r0
      000235 08               [12]  503 	inc	r0
      000236 86 83            [24]  504 	mov	dph,@r0
      000238 08               [12]  505 	inc	r0
      000239 86 F0            [24]  506 	mov	b,@r0
      00023B 12r00r00         [24]  507 	lcall	__gptrget
      00023E FC               [12]  508 	mov	r4,a
      00023F 53 04 03         [24]  509 	anl	ar4,#0x03
      000242 8C 82            [24]  510 	mov	dpl,r4
      000244 C0 07            [24]  511 	push	ar7
      000246 C0 06            [24]  512 	push	ar6
      000248 C0 05            [24]  513 	push	ar5
      00024A 78r00            [12]  514 	mov	r0,#_addr_len
      00024C 79s00            [12]  515 	mov	r1,#(_addr_len >> 8)
      00024E 7As00            [12]  516 	mov	r2,#(_addr_len >> 16)
      000250 12r00r00         [24]  517 	lcall	__sdcc_banked_call
      000253 AC 82            [24]  518 	mov	r4,dpl
      000255 D0 05            [24]  519 	pop	ar5
      000257 D0 06            [24]  520 	pop	ar6
      000259 D0 07            [24]  521 	pop	ar7
      00025B 8D 82            [24]  522 	mov	dpl,r5
      00025D 8E 83            [24]  523 	mov	dph,r6
      00025F 8F F0            [24]  524 	mov	b,r7
      000261 EC               [12]  525 	mov	a,r4
      000262 12r00r00         [24]  526 	lcall	__gptrput
                                    527 ;	../../../../core/net/mac/frame802154.c:126: if(p->fcf.security_enabled & 1) {
      000265 E5 81            [12]  528 	mov	a,sp
      000267 24 F5            [12]  529 	add	a,#0xF5
      000269 F5 81            [12]  530 	mov	sp,a
      00026B 02r00r00         [24]  531 	ljmp	__sdcc_banked_ret
                                    532 ;------------------------------------------------------------
                                    533 ;Allocation info for local variables in function 'frame802154_hdrlen'
                                    534 ;------------------------------------------------------------
                                    535 ;p                         Allocated to registers r5 r6 r7 
                                    536 ;------------------------------------------------------------
                                    537 ;	../../../../core/net/mac/frame802154.c:159: frame802154_hdrlen(frame802154_t *p)
                                    538 ;	-----------------------------------------
                                    539 ;	 function frame802154_hdrlen
                                    540 ;	-----------------------------------------
      00026E                        541 _frame802154_hdrlen:
      00026E AD 82            [24]  542 	mov	r5,dpl
      000270 AE 83            [24]  543 	mov	r6,dph
      000272 AF F0            [24]  544 	mov	r7,b
                                    545 ;	../../../../core/net/mac/frame802154.c:161: field_len(p, &flen);
      000274 74r00            [12]  546 	mov	a,#_flen
      000276 C0 E0            [24]  547 	push	acc
      000278 74s00            [12]  548 	mov	a,#(_flen >> 8)
      00027A C0 E0            [24]  549 	push	acc
      00027C E4               [12]  550 	clr	a
      00027D C0 E0            [24]  551 	push	acc
      00027F 8D 82            [24]  552 	mov	dpl,r5
      000281 8E 83            [24]  553 	mov	dph,r6
      000283 8F F0            [24]  554 	mov	b,r7
      000285 78r1C            [12]  555 	mov	r0,#_field_len
      000287 79s00            [12]  556 	mov	r1,#(_field_len >> 8)
      000289 7As00            [12]  557 	mov	r2,#(_field_len >> 16)
      00028B 12r00r00         [24]  558 	lcall	__sdcc_banked_call
      00028E 15 81            [12]  559 	dec	sp
      000290 15 81            [12]  560 	dec	sp
      000292 15 81            [12]  561 	dec	sp
                                    562 ;	../../../../core/net/mac/frame802154.c:162: return 3 + flen.dest_pid_len + flen.dest_addr_len +
      000294 90r00r00         [24]  563 	mov	dptr,#_flen
      000297 E0               [24]  564 	movx	a,@dptr
      000298 FF               [12]  565 	mov	r7,a
      000299 0F               [12]  566 	inc	r7
      00029A 0F               [12]  567 	inc	r7
      00029B 0F               [12]  568 	inc	r7
      00029C 90r00r01         [24]  569 	mov	dptr,#(_flen + 0x0001)
      00029F E0               [24]  570 	movx	a,@dptr
      0002A0 2F               [12]  571 	add	a,r7
      0002A1 FF               [12]  572 	mov	r7,a
                                    573 ;	../../../../core/net/mac/frame802154.c:163: flen.src_pid_len + flen.src_addr_len + flen.aux_sec_len;
      0002A2 90r00r02         [24]  574 	mov	dptr,#(_flen + 0x0002)
      0002A5 E0               [24]  575 	movx	a,@dptr
      0002A6 2F               [12]  576 	add	a,r7
      0002A7 FF               [12]  577 	mov	r7,a
      0002A8 90r00r03         [24]  578 	mov	dptr,#(_flen + 0x0003)
      0002AB E0               [24]  579 	movx	a,@dptr
      0002AC 2F               [12]  580 	add	a,r7
      0002AD FF               [12]  581 	mov	r7,a
      0002AE 90r00r04         [24]  582 	mov	dptr,#(_flen + 0x0004)
      0002B1 E0               [24]  583 	movx	a,@dptr
      0002B2 FE               [12]  584 	mov	r6,a
      0002B3 2F               [12]  585 	add	a,r7
      0002B4 FF               [12]  586 	mov	r7,a
      0002B5 F5 82            [12]  587 	mov	dpl,a
      0002B7 02r00r00         [24]  588 	ljmp	__sdcc_banked_ret
                                    589 ;------------------------------------------------------------
                                    590 ;Allocation info for local variables in function 'frame802154_create'
                                    591 ;------------------------------------------------------------
                                    592 ;buf                       Allocated to stack - sp -19
                                    593 ;buf_len                   Allocated to stack - sp -20
                                    594 ;p                         Allocated to stack - sp -13
                                    595 ;c                         Allocated to registers r7 r6 
                                    596 ;tx_frame_buffer           Allocated to stack - sp -3
                                    597 ;pos                       Allocated to stack - sp +0
                                    598 ;sloc0                     Allocated to stack - sp -10
                                    599 ;sloc1                     Allocated to stack - sp -9
                                    600 ;sloc2                     Allocated to stack - sp -6
                                    601 ;------------------------------------------------------------
                                    602 ;	../../../../core/net/mac/frame802154.c:181: frame802154_create(frame802154_t *p, uint8_t *buf, uint8_t buf_len)
                                    603 ;	-----------------------------------------
                                    604 ;	 function frame802154_create
                                    605 ;	-----------------------------------------
      0002BA                        606 _frame802154_create:
      0002BA C0 82            [24]  607 	push	dpl
      0002BC C0 83            [24]  608 	push	dph
      0002BE C0 F0            [24]  609 	push	b
      0002C0 E5 81            [12]  610 	mov	a,sp
      0002C2 24 0B            [12]  611 	add	a,#0x0B
      0002C4 F5 81            [12]  612 	mov	sp,a
                                    613 ;	../../../../core/net/mac/frame802154.c:187: field_len(p, &flen);
      0002C6 74r00            [12]  614 	mov	a,#_flen
      0002C8 C0 E0            [24]  615 	push	acc
      0002CA 74s00            [12]  616 	mov	a,#(_flen >> 8)
      0002CC C0 E0            [24]  617 	push	acc
      0002CE E4               [12]  618 	clr	a
      0002CF C0 E0            [24]  619 	push	acc
      0002D1 E5 81            [12]  620 	mov	a,sp
      0002D3 24 F0            [12]  621 	add	a,#0xf0
      0002D5 F8               [12]  622 	mov	r0,a
      0002D6 86 82            [24]  623 	mov	dpl,@r0
      0002D8 08               [12]  624 	inc	r0
      0002D9 86 83            [24]  625 	mov	dph,@r0
      0002DB 08               [12]  626 	inc	r0
      0002DC 86 F0            [24]  627 	mov	b,@r0
      0002DE 78r1C            [12]  628 	mov	r0,#_field_len
      0002E0 79s00            [12]  629 	mov	r1,#(_field_len >> 8)
      0002E2 7As00            [12]  630 	mov	r2,#(_field_len >> 16)
      0002E4 12r00r00         [24]  631 	lcall	__sdcc_banked_call
      0002E7 15 81            [12]  632 	dec	sp
      0002E9 15 81            [12]  633 	dec	sp
      0002EB 15 81            [12]  634 	dec	sp
                                    635 ;	../../../../core/net/mac/frame802154.c:189: if(3 + flen.dest_pid_len + flen.dest_addr_len +
      0002ED 90r00r00         [24]  636 	mov	dptr,#_flen
      0002F0 E0               [24]  637 	movx	a,@dptr
      0002F1 FC               [12]  638 	mov	r4,a
      0002F2 7B 00            [12]  639 	mov	r3,#0x00
      0002F4 74 03            [12]  640 	mov	a,#0x03
      0002F6 2C               [12]  641 	add	a,r4
      0002F7 FC               [12]  642 	mov	r4,a
      0002F8 E4               [12]  643 	clr	a
      0002F9 3B               [12]  644 	addc	a,r3
      0002FA FB               [12]  645 	mov	r3,a
      0002FB 90r00r01         [24]  646 	mov	dptr,#(_flen + 0x0001)
      0002FE E0               [24]  647 	movx	a,@dptr
      0002FF FA               [12]  648 	mov	r2,a
      000300 7F 00            [12]  649 	mov	r7,#0x00
      000302 2C               [12]  650 	add	a,r4
      000303 FC               [12]  651 	mov	r4,a
      000304 EF               [12]  652 	mov	a,r7
      000305 3B               [12]  653 	addc	a,r3
      000306 FB               [12]  654 	mov	r3,a
                                    655 ;	../../../../core/net/mac/frame802154.c:190: flen.src_pid_len + flen.src_addr_len + flen.aux_sec_len > buf_len) {
      000307 90r00r02         [24]  656 	mov	dptr,#(_flen + 0x0002)
      00030A E0               [24]  657 	movx	a,@dptr
      00030B 7E 00            [12]  658 	mov	r6,#0x00
      00030D 2C               [12]  659 	add	a,r4
      00030E FC               [12]  660 	mov	r4,a
      00030F EE               [12]  661 	mov	a,r6
      000310 3B               [12]  662 	addc	a,r3
      000311 FB               [12]  663 	mov	r3,a
      000312 90r00r03         [24]  664 	mov	dptr,#(_flen + 0x0003)
      000315 E0               [24]  665 	movx	a,@dptr
      000316 7E 00            [12]  666 	mov	r6,#0x00
      000318 2C               [12]  667 	add	a,r4
      000319 FC               [12]  668 	mov	r4,a
      00031A EE               [12]  669 	mov	a,r6
      00031B 3B               [12]  670 	addc	a,r3
      00031C FB               [12]  671 	mov	r3,a
      00031D 90r00r04         [24]  672 	mov	dptr,#(_flen + 0x0004)
      000320 E0               [24]  673 	movx	a,@dptr
      000321 7E 00            [12]  674 	mov	r6,#0x00
      000323 2C               [12]  675 	add	a,r4
      000324 FC               [12]  676 	mov	r4,a
      000325 EE               [12]  677 	mov	a,r6
      000326 3B               [12]  678 	addc	a,r3
      000327 FB               [12]  679 	mov	r3,a
      000328 E5 81            [12]  680 	mov	a,sp
      00032A 24 EC            [12]  681 	add	a,#0xec
      00032C F8               [12]  682 	mov	r0,a
      00032D 86 06            [24]  683 	mov	ar6,@r0
      00032F 7F 00            [12]  684 	mov	r7,#0x00
      000331 C3               [12]  685 	clr	c
      000332 EE               [12]  686 	mov	a,r6
      000333 9C               [12]  687 	subb	a,r4
      000334 EF               [12]  688 	mov	a,r7
      000335 64 80            [12]  689 	xrl	a,#0x80
      000337 8B F0            [24]  690 	mov	b,r3
      000339 63 F0 80         [24]  691 	xrl	b,#0x80
      00033C 95 F0            [12]  692 	subb	a,b
      00033E 50 06            [24]  693 	jnc	00102$
                                    694 ;	../../../../core/net/mac/frame802154.c:192: return 0;
      000340 75 82 00         [24]  695 	mov	dpl,#0x00
      000343 02r06rC7         [24]  696 	ljmp	00115$
      000346                        697 00102$:
                                    698 ;	../../../../core/net/mac/frame802154.c:197: tx_frame_buffer = buf;
      000346 E5 81            [12]  699 	mov	a,sp
      000348 24 ED            [12]  700 	add	a,#0xed
      00034A F8               [12]  701 	mov	r0,a
      00034B E5 81            [12]  702 	mov	a,sp
      00034D 24 FD            [12]  703 	add	a,#0xfd
      00034F F9               [12]  704 	mov	r1,a
      000350 E6               [12]  705 	mov	a,@r0
      000351 F7               [12]  706 	mov	@r1,a
      000352 08               [12]  707 	inc	r0
      000353 09               [12]  708 	inc	r1
      000354 E6               [12]  709 	mov	a,@r0
      000355 F7               [12]  710 	mov	@r1,a
      000356 08               [12]  711 	inc	r0
      000357 09               [12]  712 	inc	r1
      000358 E6               [12]  713 	mov	a,@r0
      000359 F7               [12]  714 	mov	@r1,a
                                    715 ;	../../../../core/net/mac/frame802154.c:198: tx_frame_buffer[0] = (p->fcf.frame_type & 7) |
      00035A E5 81            [12]  716 	mov	a,sp
      00035C 24 F3            [12]  717 	add	a,#0xf3
      00035E F8               [12]  718 	mov	r0,a
      00035F 86 82            [24]  719 	mov	dpl,@r0
      000361 08               [12]  720 	inc	r0
      000362 86 83            [24]  721 	mov	dph,@r0
      000364 08               [12]  722 	inc	r0
      000365 86 F0            [24]  723 	mov	b,@r0
      000367 12r00r00         [24]  724 	lcall	__gptrget
      00036A FC               [12]  725 	mov	r4,a
      00036B 53 04 07         [24]  726 	anl	ar4,#0x07
                                    727 ;	../../../../core/net/mac/frame802154.c:199: ((p->fcf.security_enabled & 1) << 3) |
      00036E E5 81            [12]  728 	mov	a,sp
      000370 24 F3            [12]  729 	add	a,#0xf3
      000372 F8               [12]  730 	mov	r0,a
      000373 74 01            [12]  731 	mov	a,#0x01
      000375 26               [12]  732 	add	a,@r0
      000376 FA               [12]  733 	mov	r2,a
      000377 E4               [12]  734 	clr	a
      000378 08               [12]  735 	inc	r0
      000379 36               [12]  736 	addc	a,@r0
      00037A FB               [12]  737 	mov	r3,a
      00037B 08               [12]  738 	inc	r0
      00037C 86 07            [24]  739 	mov	ar7,@r0
      00037E 8A 82            [24]  740 	mov	dpl,r2
      000380 8B 83            [24]  741 	mov	dph,r3
      000382 8F F0            [24]  742 	mov	b,r7
      000384 12r00r00         [24]  743 	lcall	__gptrget
      000387 54 01            [12]  744 	anl	a,#0x01
      000389 C4               [12]  745 	swap	a
      00038A 03               [12]  746 	rr	a
      00038B 54 F8            [12]  747 	anl	a,#0xF8
      00038D 42 04            [12]  748 	orl	ar4,a
                                    749 ;	../../../../core/net/mac/frame802154.c:200: ((p->fcf.frame_pending & 1) << 4) |
      00038F E5 81            [12]  750 	mov	a,sp
      000391 24 F3            [12]  751 	add	a,#0xf3
      000393 F8               [12]  752 	mov	r0,a
      000394 74 02            [12]  753 	mov	a,#0x02
      000396 26               [12]  754 	add	a,@r0
      000397 FD               [12]  755 	mov	r5,a
      000398 E4               [12]  756 	clr	a
      000399 08               [12]  757 	inc	r0
      00039A 36               [12]  758 	addc	a,@r0
      00039B FE               [12]  759 	mov	r6,a
      00039C 08               [12]  760 	inc	r0
      00039D 86 07            [24]  761 	mov	ar7,@r0
      00039F 8D 82            [24]  762 	mov	dpl,r5
      0003A1 8E 83            [24]  763 	mov	dph,r6
      0003A3 8F F0            [24]  764 	mov	b,r7
      0003A5 12r00r00         [24]  765 	lcall	__gptrget
      0003A8 54 01            [12]  766 	anl	a,#0x01
      0003AA C4               [12]  767 	swap	a
      0003AB 54 F0            [12]  768 	anl	a,#0xF0
      0003AD 42 04            [12]  769 	orl	ar4,a
                                    770 ;	../../../../core/net/mac/frame802154.c:201: ((p->fcf.ack_required & 1) << 5) |
      0003AF E5 81            [12]  771 	mov	a,sp
      0003B1 24 F3            [12]  772 	add	a,#0xf3
      0003B3 F8               [12]  773 	mov	r0,a
      0003B4 74 03            [12]  774 	mov	a,#0x03
      0003B6 26               [12]  775 	add	a,@r0
      0003B7 FD               [12]  776 	mov	r5,a
      0003B8 E4               [12]  777 	clr	a
      0003B9 08               [12]  778 	inc	r0
      0003BA 36               [12]  779 	addc	a,@r0
      0003BB FE               [12]  780 	mov	r6,a
      0003BC 08               [12]  781 	inc	r0
      0003BD 86 07            [24]  782 	mov	ar7,@r0
      0003BF 8D 82            [24]  783 	mov	dpl,r5
      0003C1 8E 83            [24]  784 	mov	dph,r6
      0003C3 8F F0            [24]  785 	mov	b,r7
      0003C5 12r00r00         [24]  786 	lcall	__gptrget
      0003C8 54 01            [12]  787 	anl	a,#0x01
      0003CA C4               [12]  788 	swap	a
      0003CB 23               [12]  789 	rl	a
      0003CC 54 E0            [12]  790 	anl	a,#0xE0
      0003CE 42 04            [12]  791 	orl	ar4,a
                                    792 ;	../../../../core/net/mac/frame802154.c:202: ((p->fcf.panid_compression & 1) << 6);
      0003D0 E5 81            [12]  793 	mov	a,sp
      0003D2 24 F3            [12]  794 	add	a,#0xf3
      0003D4 F8               [12]  795 	mov	r0,a
      0003D5 74 04            [12]  796 	mov	a,#0x04
      0003D7 26               [12]  797 	add	a,@r0
      0003D8 FD               [12]  798 	mov	r5,a
      0003D9 E4               [12]  799 	clr	a
      0003DA 08               [12]  800 	inc	r0
      0003DB 36               [12]  801 	addc	a,@r0
      0003DC FE               [12]  802 	mov	r6,a
      0003DD 08               [12]  803 	inc	r0
      0003DE 86 07            [24]  804 	mov	ar7,@r0
      0003E0 8D 82            [24]  805 	mov	dpl,r5
      0003E2 8E 83            [24]  806 	mov	dph,r6
      0003E4 8F F0            [24]  807 	mov	b,r7
      0003E6 12r00r00         [24]  808 	lcall	__gptrget
      0003E9 54 01            [12]  809 	anl	a,#0x01
      0003EB 03               [12]  810 	rr	a
      0003EC 03               [12]  811 	rr	a
      0003ED 54 C0            [12]  812 	anl	a,#0xC0
      0003EF 42 04            [12]  813 	orl	ar4,a
      0003F1 E5 81            [12]  814 	mov	a,sp
      0003F3 24 FD            [12]  815 	add	a,#0xfd
      0003F5 F8               [12]  816 	mov	r0,a
      0003F6 86 82            [24]  817 	mov	dpl,@r0
      0003F8 08               [12]  818 	inc	r0
      0003F9 86 83            [24]  819 	mov	dph,@r0
      0003FB 08               [12]  820 	inc	r0
      0003FC 86 F0            [24]  821 	mov	b,@r0
      0003FE EC               [12]  822 	mov	a,r4
      0003FF 12r00r00         [24]  823 	lcall	__gptrput
                                    824 ;	../../../../core/net/mac/frame802154.c:203: tx_frame_buffer[1] = ((p->fcf.dest_addr_mode & 3) << 2) |
      000402 E5 81            [12]  825 	mov	a,sp
      000404 24 FD            [12]  826 	add	a,#0xfd
      000406 F8               [12]  827 	mov	r0,a
      000407 74 01            [12]  828 	mov	a,#0x01
      000409 26               [12]  829 	add	a,@r0
      00040A FD               [12]  830 	mov	r5,a
      00040B E4               [12]  831 	clr	a
      00040C 08               [12]  832 	inc	r0
      00040D 36               [12]  833 	addc	a,@r0
      00040E FE               [12]  834 	mov	r6,a
      00040F 08               [12]  835 	inc	r0
      000410 86 07            [24]  836 	mov	ar7,@r0
      000412 E5 81            [12]  837 	mov	a,sp
      000414 24 F3            [12]  838 	add	a,#0xf3
      000416 F8               [12]  839 	mov	r0,a
      000417 74 05            [12]  840 	mov	a,#0x05
      000419 26               [12]  841 	add	a,@r0
      00041A FA               [12]  842 	mov	r2,a
      00041B E4               [12]  843 	clr	a
      00041C 08               [12]  844 	inc	r0
      00041D 36               [12]  845 	addc	a,@r0
      00041E FB               [12]  846 	mov	r3,a
      00041F 08               [12]  847 	inc	r0
      000420 86 04            [24]  848 	mov	ar4,@r0
      000422 8A 82            [24]  849 	mov	dpl,r2
      000424 8B 83            [24]  850 	mov	dph,r3
      000426 8C F0            [24]  851 	mov	b,r4
      000428 12r00r00         [24]  852 	lcall	__gptrget
      00042B FA               [12]  853 	mov	r2,a
      00042C 53 02 03         [24]  854 	anl	ar2,#0x03
      00042F E5 81            [12]  855 	mov	a,sp
      000431 24 F6            [12]  856 	add	a,#0xf6
      000433 F8               [12]  857 	mov	r0,a
      000434 EA               [12]  858 	mov	a,r2
      000435 2A               [12]  859 	add	a,r2
      000436 25 E0            [12]  860 	add	a,acc
      000438 F6               [12]  861 	mov	@r0,a
                                    862 ;	../../../../core/net/mac/frame802154.c:204: ((p->fcf.frame_version & 3) << 4) |
      000439 E5 81            [12]  863 	mov	a,sp
      00043B 24 F3            [12]  864 	add	a,#0xf3
      00043D F8               [12]  865 	mov	r0,a
      00043E 74 06            [12]  866 	mov	a,#0x06
      000440 26               [12]  867 	add	a,@r0
      000441 FA               [12]  868 	mov	r2,a
      000442 E4               [12]  869 	clr	a
      000443 08               [12]  870 	inc	r0
      000444 36               [12]  871 	addc	a,@r0
      000445 FB               [12]  872 	mov	r3,a
      000446 08               [12]  873 	inc	r0
      000447 86 04            [24]  874 	mov	ar4,@r0
      000449 8A 82            [24]  875 	mov	dpl,r2
      00044B 8B 83            [24]  876 	mov	dph,r3
      00044D 8C F0            [24]  877 	mov	b,r4
      00044F 12r00r00         [24]  878 	lcall	__gptrget
      000452 54 03            [12]  879 	anl	a,#0x03
      000454 C4               [12]  880 	swap	a
      000455 54 F0            [12]  881 	anl	a,#0xF0
      000457 FA               [12]  882 	mov	r2,a
      000458 E5 81            [12]  883 	mov	a,sp
      00045A 24 F6            [12]  884 	add	a,#0xf6
      00045C F8               [12]  885 	mov	r0,a
      00045D EA               [12]  886 	mov	a,r2
      00045E 46               [12]  887 	orl	a,@r0
      00045F F6               [12]  888 	mov	@r0,a
                                    889 ;	../../../../core/net/mac/frame802154.c:205: ((p->fcf.src_addr_mode & 3) << 6);
      000460 E5 81            [12]  890 	mov	a,sp
      000462 24 F3            [12]  891 	add	a,#0xf3
      000464 F8               [12]  892 	mov	r0,a
      000465 74 07            [12]  893 	mov	a,#0x07
      000467 26               [12]  894 	add	a,@r0
      000468 FA               [12]  895 	mov	r2,a
      000469 E4               [12]  896 	clr	a
      00046A 08               [12]  897 	inc	r0
      00046B 36               [12]  898 	addc	a,@r0
      00046C FB               [12]  899 	mov	r3,a
      00046D 08               [12]  900 	inc	r0
      00046E 86 04            [24]  901 	mov	ar4,@r0
      000470 8A 82            [24]  902 	mov	dpl,r2
      000472 8B 83            [24]  903 	mov	dph,r3
      000474 8C F0            [24]  904 	mov	b,r4
      000476 12r00r00         [24]  905 	lcall	__gptrget
      000479 54 03            [12]  906 	anl	a,#0x03
      00047B 03               [12]  907 	rr	a
      00047C 03               [12]  908 	rr	a
      00047D 54 C0            [12]  909 	anl	a,#0xC0
      00047F FA               [12]  910 	mov	r2,a
      000480 E5 81            [12]  911 	mov	a,sp
      000482 24 F6            [12]  912 	add	a,#0xf6
      000484 F8               [12]  913 	mov	r0,a
      000485 E6               [12]  914 	mov	a,@r0
      000486 42 02            [12]  915 	orl	ar2,a
      000488 8D 82            [24]  916 	mov	dpl,r5
      00048A 8E 83            [24]  917 	mov	dph,r6
      00048C 8F F0            [24]  918 	mov	b,r7
      00048E EA               [12]  919 	mov	a,r2
      00048F 12r00r00         [24]  920 	lcall	__gptrput
                                    921 ;	../../../../core/net/mac/frame802154.c:208: tx_frame_buffer[2] = p->seq;
      000492 E5 81            [12]  922 	mov	a,sp
      000494 24 FD            [12]  923 	add	a,#0xfd
      000496 F8               [12]  924 	mov	r0,a
      000497 74 02            [12]  925 	mov	a,#0x02
      000499 26               [12]  926 	add	a,@r0
      00049A FD               [12]  927 	mov	r5,a
      00049B E4               [12]  928 	clr	a
      00049C 08               [12]  929 	inc	r0
      00049D 36               [12]  930 	addc	a,@r0
      00049E FE               [12]  931 	mov	r6,a
      00049F 08               [12]  932 	inc	r0
      0004A0 86 07            [24]  933 	mov	ar7,@r0
      0004A2 E5 81            [12]  934 	mov	a,sp
      0004A4 24 F3            [12]  935 	add	a,#0xf3
      0004A6 F8               [12]  936 	mov	r0,a
      0004A7 74 08            [12]  937 	mov	a,#0x08
      0004A9 26               [12]  938 	add	a,@r0
      0004AA FA               [12]  939 	mov	r2,a
      0004AB E4               [12]  940 	clr	a
      0004AC 08               [12]  941 	inc	r0
      0004AD 36               [12]  942 	addc	a,@r0
      0004AE FB               [12]  943 	mov	r3,a
      0004AF 08               [12]  944 	inc	r0
      0004B0 86 04            [24]  945 	mov	ar4,@r0
      0004B2 8A 82            [24]  946 	mov	dpl,r2
      0004B4 8B 83            [24]  947 	mov	dph,r3
      0004B6 8C F0            [24]  948 	mov	b,r4
      0004B8 12r00r00         [24]  949 	lcall	__gptrget
      0004BB FA               [12]  950 	mov	r2,a
      0004BC 8D 82            [24]  951 	mov	dpl,r5
      0004BE 8E 83            [24]  952 	mov	dph,r6
      0004C0 8F F0            [24]  953 	mov	b,r7
      0004C2 12r00r00         [24]  954 	lcall	__gptrput
                                    955 ;	../../../../core/net/mac/frame802154.c:209: pos = 3;
      0004C5 A8 81            [24]  956 	mov	r0,sp
      0004C7 76 03            [12]  957 	mov	@r0,#0x03
                                    958 ;	../../../../core/net/mac/frame802154.c:212: if(flen.dest_pid_len == 2) {
      0004C9 90r00r00         [24]  959 	mov	dptr,#_flen
      0004CC E0               [24]  960 	movx	a,@dptr
      0004CD FE               [12]  961 	mov	r6,a
      0004CE BE 02 72         [24]  962 	cjne	r6,#0x02,00104$
                                    963 ;	../../../../core/net/mac/frame802154.c:213: tx_frame_buffer[pos++] = p->dest_pid & 0xff;
      0004D1 E5 81            [12]  964 	mov	a,sp
      0004D3 24 FD            [12]  965 	add	a,#0xfd
      0004D5 F8               [12]  966 	mov	r0,a
      0004D6 E5 81            [12]  967 	mov	a,sp
      0004D8 24 F7            [12]  968 	add	a,#0xf7
      0004DA F9               [12]  969 	mov	r1,a
      0004DB 74 03            [12]  970 	mov	a,#0x03
      0004DD 26               [12]  971 	add	a,@r0
      0004DE F7               [12]  972 	mov	@r1,a
      0004DF E4               [12]  973 	clr	a
      0004E0 08               [12]  974 	inc	r0
      0004E1 36               [12]  975 	addc	a,@r0
      0004E2 09               [12]  976 	inc	r1
      0004E3 F7               [12]  977 	mov	@r1,a
      0004E4 08               [12]  978 	inc	r0
      0004E5 09               [12]  979 	inc	r1
      0004E6 E6               [12]  980 	mov	a,@r0
      0004E7 F7               [12]  981 	mov	@r1,a
      0004E8 E5 81            [12]  982 	mov	a,sp
      0004EA 24 F3            [12]  983 	add	a,#0xf3
      0004EC F8               [12]  984 	mov	r0,a
      0004ED 74 09            [12]  985 	mov	a,#0x09
      0004EF 26               [12]  986 	add	a,@r0
      0004F0 FA               [12]  987 	mov	r2,a
      0004F1 E4               [12]  988 	clr	a
      0004F2 08               [12]  989 	inc	r0
      0004F3 36               [12]  990 	addc	a,@r0
      0004F4 FB               [12]  991 	mov	r3,a
      0004F5 08               [12]  992 	inc	r0
      0004F6 86 06            [24]  993 	mov	ar6,@r0
      0004F8 8A 82            [24]  994 	mov	dpl,r2
      0004FA 8B 83            [24]  995 	mov	dph,r3
      0004FC 8E F0            [24]  996 	mov	b,r6
      0004FE 12r00r00         [24]  997 	lcall	__gptrget
      000501 FC               [12]  998 	mov	r4,a
      000502 A3               [24]  999 	inc	dptr
      000503 12r00r00         [24] 1000 	lcall	__gptrget
      000506 E5 81            [12] 1001 	mov	a,sp
      000508 24 F7            [12] 1002 	add	a,#0xf7
      00050A F8               [12] 1003 	mov	r0,a
      00050B 86 82            [24] 1004 	mov	dpl,@r0
      00050D 08               [12] 1005 	inc	r0
      00050E 86 83            [24] 1006 	mov	dph,@r0
      000510 08               [12] 1007 	inc	r0
      000511 86 F0            [24] 1008 	mov	b,@r0
      000513 EC               [12] 1009 	mov	a,r4
      000514 12r00r00         [24] 1010 	lcall	__gptrput
                                   1011 ;	../../../../core/net/mac/frame802154.c:214: tx_frame_buffer[pos++] = (p->dest_pid >> 8) & 0xff;
      000517 A8 81            [24] 1012 	mov	r0,sp
      000519 76 05            [12] 1013 	mov	@r0,#0x05
      00051B E5 81            [12] 1014 	mov	a,sp
      00051D 24 FD            [12] 1015 	add	a,#0xfd
      00051F F8               [12] 1016 	mov	r0,a
      000520 74 04            [12] 1017 	mov	a,#0x04
      000522 26               [12] 1018 	add	a,@r0
      000523 FC               [12] 1019 	mov	r4,a
      000524 E4               [12] 1020 	clr	a
      000525 08               [12] 1021 	inc	r0
      000526 36               [12] 1022 	addc	a,@r0
      000527 FD               [12] 1023 	mov	r5,a
      000528 08               [12] 1024 	inc	r0
      000529 86 07            [24] 1025 	mov	ar7,@r0
      00052B 8A 82            [24] 1026 	mov	dpl,r2
      00052D 8B 83            [24] 1027 	mov	dph,r3
      00052F 8E F0            [24] 1028 	mov	b,r6
      000531 12r00r00         [24] 1029 	lcall	__gptrget
      000534 A3               [24] 1030 	inc	dptr
      000535 12r00r00         [24] 1031 	lcall	__gptrget
      000538 FB               [12] 1032 	mov	r3,a
      000539 FA               [12] 1033 	mov	r2,a
      00053A 8C 82            [24] 1034 	mov	dpl,r4
      00053C 8D 83            [24] 1035 	mov	dph,r5
      00053E 8F F0            [24] 1036 	mov	b,r7
      000540 12r00r00         [24] 1037 	lcall	__gptrput
      000543                       1038 00104$:
                                   1039 ;	../../../../core/net/mac/frame802154.c:218: for(c = flen.dest_addr_len; c > 0; c--) {
      000543 90r00r01         [24] 1040 	mov	dptr,#(_flen + 0x0001)
      000546 E0               [24] 1041 	movx	a,@dptr
      000547 FF               [12] 1042 	mov	r7,a
      000548 7E 00            [12] 1043 	mov	r6,#0x00
      00054A E5 81            [12] 1044 	mov	a,sp
      00054C 24 F3            [12] 1045 	add	a,#0xf3
      00054E F8               [12] 1046 	mov	r0,a
      00054F E5 81            [12] 1047 	mov	a,sp
      000551 24 F7            [12] 1048 	add	a,#0xf7
      000553 F9               [12] 1049 	mov	r1,a
      000554 74 0B            [12] 1050 	mov	a,#0x0B
      000556 26               [12] 1051 	add	a,@r0
      000557 F7               [12] 1052 	mov	@r1,a
      000558 E4               [12] 1053 	clr	a
      000559 08               [12] 1054 	inc	r0
      00055A 36               [12] 1055 	addc	a,@r0
      00055B 09               [12] 1056 	inc	r1
      00055C F7               [12] 1057 	mov	@r1,a
      00055D 08               [12] 1058 	inc	r0
      00055E 09               [12] 1059 	inc	r1
      00055F E6               [12] 1060 	mov	a,@r0
      000560 F7               [12] 1061 	mov	@r1,a
      000561 A8 81            [24] 1062 	mov	r0,sp
      000563 86 02            [24] 1063 	mov	ar2,@r0
      000565                       1064 00110$:
      000565 C3               [12] 1065 	clr	c
      000566 E4               [12] 1066 	clr	a
      000567 9F               [12] 1067 	subb	a,r7
      000568 E4               [12] 1068 	clr	a
      000569 64 80            [12] 1069 	xrl	a,#0x80
      00056B 8E F0            [24] 1070 	mov	b,r6
      00056D 63 F0 80         [24] 1071 	xrl	b,#0x80
      000570 95 F0            [12] 1072 	subb	a,b
      000572 50 4E            [24] 1073 	jnc	00124$
                                   1074 ;	../../../../core/net/mac/frame802154.c:219: tx_frame_buffer[pos++] = p->dest_addr[c - 1];
      000574 8A 05            [24] 1075 	mov	ar5,r2
      000576 0A               [12] 1076 	inc	r2
      000577 E5 81            [12] 1077 	mov	a,sp
      000579 24 FD            [12] 1078 	add	a,#0xfd
      00057B F8               [12] 1079 	mov	r0,a
      00057C E5 81            [12] 1080 	mov	a,sp
      00057E 24 FA            [12] 1081 	add	a,#0xfa
      000580 F9               [12] 1082 	mov	r1,a
      000581 ED               [12] 1083 	mov	a,r5
      000582 26               [12] 1084 	add	a,@r0
      000583 F7               [12] 1085 	mov	@r1,a
      000584 E4               [12] 1086 	clr	a
      000585 08               [12] 1087 	inc	r0
      000586 36               [12] 1088 	addc	a,@r0
      000587 09               [12] 1089 	inc	r1
      000588 F7               [12] 1090 	mov	@r1,a
      000589 08               [12] 1091 	inc	r0
      00058A 09               [12] 1092 	inc	r1
      00058B E6               [12] 1093 	mov	a,@r0
      00058C F7               [12] 1094 	mov	@r1,a
      00058D 8F 05            [24] 1095 	mov	ar5,r7
      00058F ED               [12] 1096 	mov	a,r5
      000590 14               [12] 1097 	dec	a
      000591 C8               [12] 1098 	xch	a,r0
      000592 E5 81            [12] 1099 	mov	a,sp
      000594 24 F7            [12] 1100 	add	a,#0xf7
      000596 C8               [12] 1101 	xch	a,r0
      000597 26               [12] 1102 	add	a,@r0
      000598 FB               [12] 1103 	mov	r3,a
      000599 08               [12] 1104 	inc	r0
      00059A E4               [12] 1105 	clr	a
      00059B 36               [12] 1106 	addc	a,@r0
      00059C FC               [12] 1107 	mov	r4,a
      00059D 08               [12] 1108 	inc	r0
      00059E 86 05            [24] 1109 	mov	ar5,@r0
      0005A0 8B 82            [24] 1110 	mov	dpl,r3
      0005A2 8C 83            [24] 1111 	mov	dph,r4
      0005A4 8D F0            [24] 1112 	mov	b,r5
      0005A6 12r00r00         [24] 1113 	lcall	__gptrget
      0005A9 FB               [12] 1114 	mov	r3,a
      0005AA E5 81            [12] 1115 	mov	a,sp
      0005AC 24 FA            [12] 1116 	add	a,#0xfa
      0005AE F8               [12] 1117 	mov	r0,a
      0005AF 86 82            [24] 1118 	mov	dpl,@r0
      0005B1 08               [12] 1119 	inc	r0
      0005B2 86 83            [24] 1120 	mov	dph,@r0
      0005B4 08               [12] 1121 	inc	r0
      0005B5 86 F0            [24] 1122 	mov	b,@r0
      0005B7 EB               [12] 1123 	mov	a,r3
      0005B8 12r00r00         [24] 1124 	lcall	__gptrput
                                   1125 ;	../../../../core/net/mac/frame802154.c:218: for(c = flen.dest_addr_len; c > 0; c--) {
      0005BB 1F               [12] 1126 	dec	r7
      0005BC BF FF 01         [24] 1127 	cjne	r7,#0xFF,00144$
      0005BF 1E               [12] 1128 	dec	r6
      0005C0                       1129 00144$:
      0005C0 80 A3            [24] 1130 	sjmp	00110$
      0005C2                       1131 00124$:
      0005C2 A8 81            [24] 1132 	mov	r0,sp
      0005C4 A6 02            [24] 1133 	mov	@r0,ar2
                                   1134 ;	../../../../core/net/mac/frame802154.c:223: if(flen.src_pid_len == 2) {
      0005C6 90r00r02         [24] 1135 	mov	dptr,#(_flen + 0x0002)
      0005C9 E0               [24] 1136 	movx	a,@dptr
      0005CA FF               [12] 1137 	mov	r7,a
      0005CB BF 02 78         [24] 1138 	cjne	r7,#0x02,00107$
                                   1139 ;	../../../../core/net/mac/frame802154.c:224: tx_frame_buffer[pos++] = p->src_pid & 0xff;
      0005CE A8 81            [24] 1140 	mov	r0,sp
      0005D0 EA               [12] 1141 	mov	a,r2
      0005D1 04               [12] 1142 	inc	a
      0005D2 F6               [12] 1143 	mov	@r0,a
      0005D3 E5 81            [12] 1144 	mov	a,sp
      0005D5 24 FD            [12] 1145 	add	a,#0xfd
      0005D7 F8               [12] 1146 	mov	r0,a
      0005D8 E5 81            [12] 1147 	mov	a,sp
      0005DA 24 FA            [12] 1148 	add	a,#0xfa
      0005DC F9               [12] 1149 	mov	r1,a
      0005DD EA               [12] 1150 	mov	a,r2
      0005DE 26               [12] 1151 	add	a,@r0
      0005DF F7               [12] 1152 	mov	@r1,a
      0005E0 E4               [12] 1153 	clr	a
      0005E1 08               [12] 1154 	inc	r0
      0005E2 36               [12] 1155 	addc	a,@r0
      0005E3 09               [12] 1156 	inc	r1
      0005E4 F7               [12] 1157 	mov	@r1,a
      0005E5 08               [12] 1158 	inc	r0
      0005E6 09               [12] 1159 	inc	r1
      0005E7 E6               [12] 1160 	mov	a,@r0
      0005E8 F7               [12] 1161 	mov	@r1,a
      0005E9 E5 81            [12] 1162 	mov	a,sp
      0005EB 24 F3            [12] 1163 	add	a,#0xf3
      0005ED F8               [12] 1164 	mov	r0,a
      0005EE 74 13            [12] 1165 	mov	a,#0x13
      0005F0 26               [12] 1166 	add	a,@r0
      0005F1 FB               [12] 1167 	mov	r3,a
      0005F2 E4               [12] 1168 	clr	a
      0005F3 08               [12] 1169 	inc	r0
      0005F4 36               [12] 1170 	addc	a,@r0
      0005F5 FC               [12] 1171 	mov	r4,a
      0005F6 08               [12] 1172 	inc	r0
      0005F7 86 05            [24] 1173 	mov	ar5,@r0
      0005F9 8B 82            [24] 1174 	mov	dpl,r3
      0005FB 8C 83            [24] 1175 	mov	dph,r4
      0005FD 8D F0            [24] 1176 	mov	b,r5
      0005FF 12r00r00         [24] 1177 	lcall	__gptrget
      000602 FE               [12] 1178 	mov	r6,a
      000603 A3               [24] 1179 	inc	dptr
      000604 12r00r00         [24] 1180 	lcall	__gptrget
      000607 E5 81            [12] 1181 	mov	a,sp
      000609 24 FA            [12] 1182 	add	a,#0xfa
      00060B F8               [12] 1183 	mov	r0,a
      00060C 86 82            [24] 1184 	mov	dpl,@r0
      00060E 08               [12] 1185 	inc	r0
      00060F 86 83            [24] 1186 	mov	dph,@r0
      000611 08               [12] 1187 	inc	r0
      000612 86 F0            [24] 1188 	mov	b,@r0
      000614 EE               [12] 1189 	mov	a,r6
      000615 12r00r00         [24] 1190 	lcall	__gptrput
                                   1191 ;	../../../../core/net/mac/frame802154.c:225: tx_frame_buffer[pos++] = (p->src_pid >> 8) & 0xff;
      000618 A8 81            [24] 1192 	mov	r0,sp
      00061A 86 07            [24] 1193 	mov	ar7,@r0
      00061C A8 81            [24] 1194 	mov	r0,sp
      00061E 06               [12] 1195 	inc	@r0
      00061F E5 81            [12] 1196 	mov	a,sp
      000621 24 FD            [12] 1197 	add	a,#0xfd
      000623 F8               [12] 1198 	mov	r0,a
      000624 EF               [12] 1199 	mov	a,r7
      000625 26               [12] 1200 	add	a,@r0
      000626 FF               [12] 1201 	mov	r7,a
      000627 E4               [12] 1202 	clr	a
      000628 08               [12] 1203 	inc	r0
      000629 36               [12] 1204 	addc	a,@r0
      00062A FE               [12] 1205 	mov	r6,a
      00062B 08               [12] 1206 	inc	r0
      00062C 86 02            [24] 1207 	mov	ar2,@r0
      00062E 8B 82            [24] 1208 	mov	dpl,r3
      000630 8C 83            [24] 1209 	mov	dph,r4
      000632 8D F0            [24] 1210 	mov	b,r5
      000634 12r00r00         [24] 1211 	lcall	__gptrget
      000637 A3               [24] 1212 	inc	dptr
      000638 12r00r00         [24] 1213 	lcall	__gptrget
      00063B FC               [12] 1214 	mov	r4,a
      00063C FB               [12] 1215 	mov	r3,a
      00063D 8F 82            [24] 1216 	mov	dpl,r7
      00063F 8E 83            [24] 1217 	mov	dph,r6
      000641 8A F0            [24] 1218 	mov	b,r2
      000643 12r00r00         [24] 1219 	lcall	__gptrput
      000646                       1220 00107$:
                                   1221 ;	../../../../core/net/mac/frame802154.c:229: for(c = flen.src_addr_len; c > 0; c--) {
      000646 90r00r03         [24] 1222 	mov	dptr,#(_flen + 0x0003)
      000649 E0               [24] 1223 	movx	a,@dptr
      00064A FE               [12] 1224 	mov	r6,a
      00064B 7F 00            [12] 1225 	mov	r7,#0x00
      00064D E5 81            [12] 1226 	mov	a,sp
      00064F 24 F3            [12] 1227 	add	a,#0xf3
      000651 F8               [12] 1228 	mov	r0,a
      000652 E5 81            [12] 1229 	mov	a,sp
      000654 24 FA            [12] 1230 	add	a,#0xfa
      000656 F9               [12] 1231 	mov	r1,a
      000657 74 15            [12] 1232 	mov	a,#0x15
      000659 26               [12] 1233 	add	a,@r0
      00065A F7               [12] 1234 	mov	@r1,a
      00065B E4               [12] 1235 	clr	a
      00065C 08               [12] 1236 	inc	r0
      00065D 36               [12] 1237 	addc	a,@r0
      00065E 09               [12] 1238 	inc	r1
      00065F F7               [12] 1239 	mov	@r1,a
      000660 08               [12] 1240 	inc	r0
      000661 09               [12] 1241 	inc	r1
      000662 E6               [12] 1242 	mov	a,@r0
      000663 F7               [12] 1243 	mov	@r1,a
      000664 A8 81            [24] 1244 	mov	r0,sp
      000666 86 02            [24] 1245 	mov	ar2,@r0
      000668                       1246 00113$:
      000668 C3               [12] 1247 	clr	c
      000669 E4               [12] 1248 	clr	a
      00066A 9E               [12] 1249 	subb	a,r6
      00066B E4               [12] 1250 	clr	a
      00066C 64 80            [12] 1251 	xrl	a,#0x80
      00066E 8F F0            [24] 1252 	mov	b,r7
      000670 63 F0 80         [24] 1253 	xrl	b,#0x80
      000673 95 F0            [12] 1254 	subb	a,b
      000675 50 4E            [24] 1255 	jnc	00108$
                                   1256 ;	../../../../core/net/mac/frame802154.c:230: tx_frame_buffer[pos++] = p->src_addr[c - 1];
      000677 8A 05            [24] 1257 	mov	ar5,r2
      000679 0A               [12] 1258 	inc	r2
      00067A E5 81            [12] 1259 	mov	a,sp
      00067C 24 FD            [12] 1260 	add	a,#0xfd
      00067E F8               [12] 1261 	mov	r0,a
      00067F E5 81            [12] 1262 	mov	a,sp
      000681 24 F7            [12] 1263 	add	a,#0xf7
      000683 F9               [12] 1264 	mov	r1,a
      000684 ED               [12] 1265 	mov	a,r5
      000685 26               [12] 1266 	add	a,@r0
      000686 F7               [12] 1267 	mov	@r1,a
      000687 E4               [12] 1268 	clr	a
      000688 08               [12] 1269 	inc	r0
      000689 36               [12] 1270 	addc	a,@r0
      00068A 09               [12] 1271 	inc	r1
      00068B F7               [12] 1272 	mov	@r1,a
      00068C 08               [12] 1273 	inc	r0
      00068D 09               [12] 1274 	inc	r1
      00068E E6               [12] 1275 	mov	a,@r0
      00068F F7               [12] 1276 	mov	@r1,a
      000690 8E 05            [24] 1277 	mov	ar5,r6
      000692 ED               [12] 1278 	mov	a,r5
      000693 14               [12] 1279 	dec	a
      000694 C8               [12] 1280 	xch	a,r0
      000695 E5 81            [12] 1281 	mov	a,sp
      000697 24 FA            [12] 1282 	add	a,#0xfa
      000699 C8               [12] 1283 	xch	a,r0
      00069A 26               [12] 1284 	add	a,@r0
      00069B FB               [12] 1285 	mov	r3,a
      00069C 08               [12] 1286 	inc	r0
      00069D E4               [12] 1287 	clr	a
      00069E 36               [12] 1288 	addc	a,@r0
      00069F FC               [12] 1289 	mov	r4,a
      0006A0 08               [12] 1290 	inc	r0
      0006A1 86 05            [24] 1291 	mov	ar5,@r0
      0006A3 8B 82            [24] 1292 	mov	dpl,r3
      0006A5 8C 83            [24] 1293 	mov	dph,r4
      0006A7 8D F0            [24] 1294 	mov	b,r5
      0006A9 12r00r00         [24] 1295 	lcall	__gptrget
      0006AC FB               [12] 1296 	mov	r3,a
      0006AD E5 81            [12] 1297 	mov	a,sp
      0006AF 24 F7            [12] 1298 	add	a,#0xf7
      0006B1 F8               [12] 1299 	mov	r0,a
      0006B2 86 82            [24] 1300 	mov	dpl,@r0
      0006B4 08               [12] 1301 	inc	r0
      0006B5 86 83            [24] 1302 	mov	dph,@r0
      0006B7 08               [12] 1303 	inc	r0
      0006B8 86 F0            [24] 1304 	mov	b,@r0
      0006BA EB               [12] 1305 	mov	a,r3
      0006BB 12r00r00         [24] 1306 	lcall	__gptrput
                                   1307 ;	../../../../core/net/mac/frame802154.c:229: for(c = flen.src_addr_len; c > 0; c--) {
      0006BE 1E               [12] 1308 	dec	r6
      0006BF BE FF 01         [24] 1309 	cjne	r6,#0xFF,00148$
      0006C2 1F               [12] 1310 	dec	r7
      0006C3                       1311 00148$:
      0006C3 80 A3            [24] 1312 	sjmp	00113$
      0006C5                       1313 00108$:
                                   1314 ;	../../../../core/net/mac/frame802154.c:239: return pos;
      0006C5 8A 82            [24] 1315 	mov	dpl,r2
      0006C7                       1316 00115$:
      0006C7 E5 81            [12] 1317 	mov	a,sp
      0006C9 24 F2            [12] 1318 	add	a,#0xF2
      0006CB F5 81            [12] 1319 	mov	sp,a
      0006CD 02r00r00         [24] 1320 	ljmp	__sdcc_banked_ret
                                   1321 ;------------------------------------------------------------
                                   1322 ;Allocation info for local variables in function 'frame802154_parse'
                                   1323 ;------------------------------------------------------------
                                   1324 ;len                       Allocated to stack - sp -16
                                   1325 ;pf                        Allocated to stack - sp -19
                                   1326 ;data                      Allocated to stack - sp -12
                                   1327 ;p                         Allocated to stack - sp -3
                                   1328 ;c                         Allocated to stack - sp +0
                                   1329 ;sloc0                     Allocated to stack - sp -9
                                   1330 ;sloc1                     Allocated to stack - sp -6
                                   1331 ;------------------------------------------------------------
                                   1332 ;	../../../../core/net/mac/frame802154.c:252: frame802154_parse(uint8_t *data, uint8_t len, frame802154_t *pf)
                                   1333 ;	-----------------------------------------
                                   1334 ;	 function frame802154_parse
                                   1335 ;	-----------------------------------------
      0006D0                       1336 _frame802154_parse:
      0006D0 C0 82            [24] 1337 	push	dpl
      0006D2 C0 83            [24] 1338 	push	dph
      0006D4 C0 F0            [24] 1339 	push	b
      0006D6 E5 81            [12] 1340 	mov	a,sp
      0006D8 24 0A            [12] 1341 	add	a,#0x0A
                                   1342 ;	../../../../core/net/mac/frame802154.c:257: if(len < 3) {
      0006DA F5 81            [12] 1343 	mov	sp,a
      0006DC 24 F0            [12] 1344 	add	a,#0xf0
      0006DE F8               [12] 1345 	mov	r0,a
      0006DF B6 03 00         [24] 1346 	cjne	@r0,#0x03,00173$
      0006E2                       1347 00173$:
      0006E2 50 06            [24] 1348 	jnc	00102$
                                   1349 ;	../../../../core/net/mac/frame802154.c:258: return 0;
      0006E4 75 82 00         [24] 1350 	mov	dpl,#0x00
      0006E7 02r0Dr5D         [24] 1351 	ljmp	00128$
      0006EA                       1352 00102$:
                                   1353 ;	../../../../core/net/mac/frame802154.c:263: memset(&fcf, 0, sizeof(fcf));
      0006EA 74 08            [12] 1354 	mov	a,#0x08
      0006EC C0 E0            [24] 1355 	push	acc
      0006EE E4               [12] 1356 	clr	a
      0006EF C0 E0            [24] 1357 	push	acc
      0006F1 E4               [12] 1358 	clr	a
      0006F2 C0 E0            [24] 1359 	push	acc
      0006F4 90r00r05         [24] 1360 	mov	dptr,#_fcf
      0006F7 75 F0 00         [24] 1361 	mov	b,#0x00
      0006FA 78r00            [12] 1362 	mov	r0,#_memset
      0006FC 79s00            [12] 1363 	mov	r1,#(_memset >> 8)
      0006FE 7As00            [12] 1364 	mov	r2,#(_memset >> 16)
      000700 12r00r00         [24] 1365 	lcall	__sdcc_banked_call
      000703 15 81            [12] 1366 	dec	sp
      000705 15 81            [12] 1367 	dec	sp
      000707 15 81            [12] 1368 	dec	sp
                                   1369 ;	../../../../core/net/mac/frame802154.c:265: fcf.frame_type = p[0] & 7;
      000709 E5 81            [12] 1370 	mov	a,sp
      00070B 24 F4            [12] 1371 	add	a,#0xf4
      00070D F8               [12] 1372 	mov	r0,a
      00070E 86 82            [24] 1373 	mov	dpl,@r0
      000710 08               [12] 1374 	inc	r0
      000711 86 83            [24] 1375 	mov	dph,@r0
      000713 08               [12] 1376 	inc	r0
      000714 86 F0            [24] 1377 	mov	b,@r0
      000716 12r00r00         [24] 1378 	lcall	__gptrget
      000719 FC               [12] 1379 	mov	r4,a
      00071A 53 04 07         [24] 1380 	anl	ar4,#0x07
      00071D 90r00r05         [24] 1381 	mov	dptr,#_fcf
      000720 EC               [12] 1382 	mov	a,r4
      000721 F0               [24] 1383 	movx	@dptr,a
                                   1384 ;	../../../../core/net/mac/frame802154.c:266: fcf.security_enabled = (p[0] >> 3) & 1;
      000722 E5 81            [12] 1385 	mov	a,sp
      000724 24 F4            [12] 1386 	add	a,#0xf4
      000726 F8               [12] 1387 	mov	r0,a
      000727 86 82            [24] 1388 	mov	dpl,@r0
      000729 08               [12] 1389 	inc	r0
      00072A 86 83            [24] 1390 	mov	dph,@r0
      00072C 08               [12] 1391 	inc	r0
      00072D 86 F0            [24] 1392 	mov	b,@r0
      00072F 12r00r00         [24] 1393 	lcall	__gptrget
      000732 A2 E3            [12] 1394 	mov	c,acc[3]
      000734 E4               [12] 1395 	clr	a
      000735 33               [12] 1396 	rlc	a
      000736 90r00r06         [24] 1397 	mov	dptr,#(_fcf + 0x0001)
      000739 F0               [24] 1398 	movx	@dptr,a
                                   1399 ;	../../../../core/net/mac/frame802154.c:267: fcf.frame_pending = (p[0] >> 4) & 1;
      00073A E5 81            [12] 1400 	mov	a,sp
      00073C 24 F4            [12] 1401 	add	a,#0xf4
      00073E F8               [12] 1402 	mov	r0,a
      00073F 86 82            [24] 1403 	mov	dpl,@r0
      000741 08               [12] 1404 	inc	r0
      000742 86 83            [24] 1405 	mov	dph,@r0
      000744 08               [12] 1406 	inc	r0
      000745 86 F0            [24] 1407 	mov	b,@r0
      000747 12r00r00         [24] 1408 	lcall	__gptrget
      00074A C4               [12] 1409 	swap	a
      00074B 54 01            [12] 1410 	anl	a,#0x01
      00074D 90r00r07         [24] 1411 	mov	dptr,#(_fcf + 0x0002)
      000750 F0               [24] 1412 	movx	@dptr,a
                                   1413 ;	../../../../core/net/mac/frame802154.c:268: fcf.ack_required = (p[0] >> 5) & 1;
      000751 E5 81            [12] 1414 	mov	a,sp
      000753 24 F4            [12] 1415 	add	a,#0xf4
      000755 F8               [12] 1416 	mov	r0,a
      000756 86 82            [24] 1417 	mov	dpl,@r0
      000758 08               [12] 1418 	inc	r0
      000759 86 83            [24] 1419 	mov	dph,@r0
      00075B 08               [12] 1420 	inc	r0
      00075C 86 F0            [24] 1421 	mov	b,@r0
      00075E 12r00r00         [24] 1422 	lcall	__gptrget
      000761 A2 E5            [12] 1423 	mov	c,acc[5]
      000763 E4               [12] 1424 	clr	a
      000764 33               [12] 1425 	rlc	a
      000765 90r00r08         [24] 1426 	mov	dptr,#(_fcf + 0x0003)
      000768 F0               [24] 1427 	movx	@dptr,a
                                   1428 ;	../../../../core/net/mac/frame802154.c:269: fcf.panid_compression = (p[0] >> 6) & 1;
      000769 E5 81            [12] 1429 	mov	a,sp
      00076B 24 F4            [12] 1430 	add	a,#0xf4
      00076D F8               [12] 1431 	mov	r0,a
      00076E 86 82            [24] 1432 	mov	dpl,@r0
      000770 08               [12] 1433 	inc	r0
      000771 86 83            [24] 1434 	mov	dph,@r0
      000773 08               [12] 1435 	inc	r0
      000774 86 F0            [24] 1436 	mov	b,@r0
      000776 12r00r00         [24] 1437 	lcall	__gptrget
      000779 23               [12] 1438 	rl	a
      00077A 23               [12] 1439 	rl	a
      00077B 54 01            [12] 1440 	anl	a,#0x01
      00077D 90r00r09         [24] 1441 	mov	dptr,#(_fcf + 0x0004)
      000780 F0               [24] 1442 	movx	@dptr,a
                                   1443 ;	../../../../core/net/mac/frame802154.c:271: fcf.dest_addr_mode = (p[1] >> 2) & 3;
      000781 E5 81            [12] 1444 	mov	a,sp
      000783 24 F4            [12] 1445 	add	a,#0xf4
      000785 F8               [12] 1446 	mov	r0,a
      000786 74 01            [12] 1447 	mov	a,#0x01
      000788 26               [12] 1448 	add	a,@r0
      000789 FA               [12] 1449 	mov	r2,a
      00078A E4               [12] 1450 	clr	a
      00078B 08               [12] 1451 	inc	r0
      00078C 36               [12] 1452 	addc	a,@r0
      00078D FB               [12] 1453 	mov	r3,a
      00078E 08               [12] 1454 	inc	r0
      00078F 86 04            [24] 1455 	mov	ar4,@r0
      000791 8A 82            [24] 1456 	mov	dpl,r2
      000793 8B 83            [24] 1457 	mov	dph,r3
      000795 8C F0            [24] 1458 	mov	b,r4
      000797 12r00r00         [24] 1459 	lcall	__gptrget
      00079A 03               [12] 1460 	rr	a
      00079B 03               [12] 1461 	rr	a
      00079C 54 3F            [12] 1462 	anl	a,#0x3F
      00079E FF               [12] 1463 	mov	r7,a
      00079F 53 07 03         [24] 1464 	anl	ar7,#0x03
      0007A2 90r00r0A         [24] 1465 	mov	dptr,#(_fcf + 0x0005)
      0007A5 EF               [12] 1466 	mov	a,r7
      0007A6 F0               [24] 1467 	movx	@dptr,a
                                   1468 ;	../../../../core/net/mac/frame802154.c:272: fcf.frame_version = (p[1] >> 4) & 3;
      0007A7 8A 82            [24] 1469 	mov	dpl,r2
      0007A9 8B 83            [24] 1470 	mov	dph,r3
      0007AB 8C F0            [24] 1471 	mov	b,r4
      0007AD 12r00r00         [24] 1472 	lcall	__gptrget
      0007B0 C4               [12] 1473 	swap	a
      0007B1 54 0F            [12] 1474 	anl	a,#0x0F
      0007B3 FF               [12] 1475 	mov	r7,a
      0007B4 53 07 03         [24] 1476 	anl	ar7,#0x03
      0007B7 90r00r0B         [24] 1477 	mov	dptr,#(_fcf + 0x0006)
      0007BA EF               [12] 1478 	mov	a,r7
      0007BB F0               [24] 1479 	movx	@dptr,a
                                   1480 ;	../../../../core/net/mac/frame802154.c:273: fcf.src_addr_mode = (p[1] >> 6) & 3;
      0007BC 8A 82            [24] 1481 	mov	dpl,r2
      0007BE 8B 83            [24] 1482 	mov	dph,r3
      0007C0 8C F0            [24] 1483 	mov	b,r4
      0007C2 12r00r00         [24] 1484 	lcall	__gptrget
      0007C5 23               [12] 1485 	rl	a
      0007C6 23               [12] 1486 	rl	a
      0007C7 54 03            [12] 1487 	anl	a,#0x03
      0007C9 FA               [12] 1488 	mov	r2,a
      0007CA 53 02 03         [24] 1489 	anl	ar2,#0x03
      0007CD 90r00r0C         [24] 1490 	mov	dptr,#(_fcf + 0x0007)
      0007D0 EA               [12] 1491 	mov	a,r2
      0007D1 F0               [24] 1492 	movx	@dptr,a
                                   1493 ;	../../../../core/net/mac/frame802154.c:276: memcpy(&pf->fcf, &fcf, sizeof(frame802154_fcf_t));
      0007D2 E5 81            [12] 1494 	mov	a,sp
      0007D4 24 ED            [12] 1495 	add	a,#0xed
      0007D6 F8               [12] 1496 	mov	r0,a
      0007D7 86 05            [24] 1497 	mov	ar5,@r0
      0007D9 08               [12] 1498 	inc	r0
      0007DA 86 06            [24] 1499 	mov	ar6,@r0
      0007DC 08               [12] 1500 	inc	r0
      0007DD 86 07            [24] 1501 	mov	ar7,@r0
      0007DF 8D 02            [24] 1502 	mov	ar2,r5
      0007E1 8E 03            [24] 1503 	mov	ar3,r6
      0007E3 8F 04            [24] 1504 	mov	ar4,r7
      0007E5 C0 07            [24] 1505 	push	ar7
      0007E7 C0 06            [24] 1506 	push	ar6
      0007E9 C0 05            [24] 1507 	push	ar5
      0007EB 74 08            [12] 1508 	mov	a,#0x08
      0007ED C0 E0            [24] 1509 	push	acc
      0007EF E4               [12] 1510 	clr	a
      0007F0 C0 E0            [24] 1511 	push	acc
      0007F2 74r05            [12] 1512 	mov	a,#_fcf
      0007F4 C0 E0            [24] 1513 	push	acc
      0007F6 74s00            [12] 1514 	mov	a,#(_fcf >> 8)
      0007F8 C0 E0            [24] 1515 	push	acc
      0007FA E4               [12] 1516 	clr	a
      0007FB C0 E0            [24] 1517 	push	acc
      0007FD 8A 82            [24] 1518 	mov	dpl,r2
      0007FF 8B 83            [24] 1519 	mov	dph,r3
      000801 8C F0            [24] 1520 	mov	b,r4
      000803 78r00            [12] 1521 	mov	r0,#_memcpy
      000805 79s00            [12] 1522 	mov	r1,#(_memcpy >> 8)
      000807 7As00            [12] 1523 	mov	r2,#(_memcpy >> 16)
      000809 12r00r00         [24] 1524 	lcall	__sdcc_banked_call
      00080C E5 81            [12] 1525 	mov	a,sp
      00080E 24 FB            [12] 1526 	add	a,#0xfb
      000810 F5 81            [12] 1527 	mov	sp,a
      000812 D0 05            [24] 1528 	pop	ar5
      000814 D0 06            [24] 1529 	pop	ar6
      000816 D0 07            [24] 1530 	pop	ar7
                                   1531 ;	../../../../core/net/mac/frame802154.c:277: pf->seq = p[2];
      000818 E5 81            [12] 1532 	mov	a,sp
      00081A 24 F7            [12] 1533 	add	a,#0xf7
      00081C F8               [12] 1534 	mov	r0,a
      00081D 74 08            [12] 1535 	mov	a,#0x08
      00081F 2D               [12] 1536 	add	a,r5
      000820 F6               [12] 1537 	mov	@r0,a
      000821 E4               [12] 1538 	clr	a
      000822 3E               [12] 1539 	addc	a,r6
      000823 08               [12] 1540 	inc	r0
      000824 F6               [12] 1541 	mov	@r0,a
      000825 08               [12] 1542 	inc	r0
      000826 A6 07            [24] 1543 	mov	@r0,ar7
      000828 E5 81            [12] 1544 	mov	a,sp
      00082A 24 F4            [12] 1545 	add	a,#0xf4
      00082C F8               [12] 1546 	mov	r0,a
      00082D 74 02            [12] 1547 	mov	a,#0x02
      00082F 26               [12] 1548 	add	a,@r0
      000830 FA               [12] 1549 	mov	r2,a
      000831 E4               [12] 1550 	clr	a
      000832 08               [12] 1551 	inc	r0
      000833 36               [12] 1552 	addc	a,@r0
      000834 FB               [12] 1553 	mov	r3,a
      000835 08               [12] 1554 	inc	r0
      000836 86 04            [24] 1555 	mov	ar4,@r0
      000838 8A 82            [24] 1556 	mov	dpl,r2
      00083A 8B 83            [24] 1557 	mov	dph,r3
      00083C 8C F0            [24] 1558 	mov	b,r4
      00083E 12r00r00         [24] 1559 	lcall	__gptrget
      000841 FA               [12] 1560 	mov	r2,a
      000842 E5 81            [12] 1561 	mov	a,sp
      000844 24 F7            [12] 1562 	add	a,#0xf7
      000846 F8               [12] 1563 	mov	r0,a
      000847 86 82            [24] 1564 	mov	dpl,@r0
      000849 08               [12] 1565 	inc	r0
      00084A 86 83            [24] 1566 	mov	dph,@r0
      00084C 08               [12] 1567 	inc	r0
      00084D 86 F0            [24] 1568 	mov	b,@r0
      00084F EA               [12] 1569 	mov	a,r2
      000850 12r00r00         [24] 1570 	lcall	__gptrput
                                   1571 ;	../../../../core/net/mac/frame802154.c:278: p += 3;                             /* Skip first three bytes */
      000853 E5 81            [12] 1572 	mov	a,sp
      000855 24 F4            [12] 1573 	add	a,#0xf4
      000857 F8               [12] 1574 	mov	r0,a
      000858 E5 81            [12] 1575 	mov	a,sp
      00085A 24 FD            [12] 1576 	add	a,#0xfd
      00085C F9               [12] 1577 	mov	r1,a
      00085D 74 03            [12] 1578 	mov	a,#0x03
      00085F 26               [12] 1579 	add	a,@r0
      000860 F7               [12] 1580 	mov	@r1,a
      000861 E4               [12] 1581 	clr	a
      000862 08               [12] 1582 	inc	r0
      000863 36               [12] 1583 	addc	a,@r0
      000864 09               [12] 1584 	inc	r1
      000865 F7               [12] 1585 	mov	@r1,a
      000866 08               [12] 1586 	inc	r0
      000867 09               [12] 1587 	inc	r1
      000868 E6               [12] 1588 	mov	a,@r0
      000869 F7               [12] 1589 	mov	@r1,a
                                   1590 ;	../../../../core/net/mac/frame802154.c:281: if(fcf.dest_addr_mode) {
      00086A 90r00r0A         [24] 1591 	mov	dptr,#(_fcf + 0x0005)
      00086D E0               [24] 1592 	movx	a,@dptr
      00086E 70 03            [24] 1593 	jnz	00175$
      000870 02r0Ar3B         [24] 1594 	ljmp	00110$
      000873                       1595 00175$:
                                   1596 ;	../../../../core/net/mac/frame802154.c:283: pf->dest_pid = p[0] + (p[1] << 8);
      000873 74 09            [12] 1597 	mov	a,#0x09
      000875 2D               [12] 1598 	add	a,r5
      000876 FA               [12] 1599 	mov	r2,a
      000877 E4               [12] 1600 	clr	a
      000878 3E               [12] 1601 	addc	a,r6
      000879 FB               [12] 1602 	mov	r3,a
      00087A 8F 04            [24] 1603 	mov	ar4,r7
      00087C C0 05            [24] 1604 	push	ar5
      00087E C0 06            [24] 1605 	push	ar6
      000880 C0 07            [24] 1606 	push	ar7
      000882 E5 81            [12] 1607 	mov	a,sp
      000884 24 FA            [12] 1608 	add	a,#0xfa
      000886 F8               [12] 1609 	mov	r0,a
      000887 86 82            [24] 1610 	mov	dpl,@r0
      000889 08               [12] 1611 	inc	r0
      00088A 86 83            [24] 1612 	mov	dph,@r0
      00088C 08               [12] 1613 	inc	r0
      00088D 86 F0            [24] 1614 	mov	b,@r0
      00088F 12r00r00         [24] 1615 	lcall	__gptrget
      000892 FF               [12] 1616 	mov	r7,a
      000893 E5 81            [12] 1617 	mov	a,sp
      000895 24 F4            [12] 1618 	add	a,#0xf4
      000897 F8               [12] 1619 	mov	r0,a
      000898 A6 07            [24] 1620 	mov	@r0,ar7
      00089A 08               [12] 1621 	inc	r0
      00089B 76 00            [12] 1622 	mov	@r0,#0x00
      00089D E5 81            [12] 1623 	mov	a,sp
      00089F 24 FA            [12] 1624 	add	a,#0xfa
      0008A1 F8               [12] 1625 	mov	r0,a
      0008A2 74 01            [12] 1626 	mov	a,#0x01
      0008A4 26               [12] 1627 	add	a,@r0
      0008A5 FD               [12] 1628 	mov	r5,a
      0008A6 E4               [12] 1629 	clr	a
      0008A7 08               [12] 1630 	inc	r0
      0008A8 36               [12] 1631 	addc	a,@r0
      0008A9 FE               [12] 1632 	mov	r6,a
      0008AA 08               [12] 1633 	inc	r0
      0008AB 86 07            [24] 1634 	mov	ar7,@r0
      0008AD 8D 82            [24] 1635 	mov	dpl,r5
      0008AF 8E 83            [24] 1636 	mov	dph,r6
      0008B1 8F F0            [24] 1637 	mov	b,r7
      0008B3 12r00r00         [24] 1638 	lcall	__gptrget
      0008B6 FF               [12] 1639 	mov	r7,a
      0008B7 7D 00            [12] 1640 	mov	r5,#0x00
      0008B9 E5 81            [12] 1641 	mov	a,sp
      0008BB 24 F4            [12] 1642 	add	a,#0xf4
      0008BD F8               [12] 1643 	mov	r0,a
      0008BE ED               [12] 1644 	mov	a,r5
      0008BF 26               [12] 1645 	add	a,@r0
      0008C0 FD               [12] 1646 	mov	r5,a
      0008C1 EF               [12] 1647 	mov	a,r7
      0008C2 08               [12] 1648 	inc	r0
      0008C3 36               [12] 1649 	addc	a,@r0
      0008C4 FF               [12] 1650 	mov	r7,a
      0008C5 8A 82            [24] 1651 	mov	dpl,r2
      0008C7 8B 83            [24] 1652 	mov	dph,r3
      0008C9 8C F0            [24] 1653 	mov	b,r4
      0008CB ED               [12] 1654 	mov	a,r5
      0008CC 12r00r00         [24] 1655 	lcall	__gptrput
      0008CF A3               [24] 1656 	inc	dptr
      0008D0 EF               [12] 1657 	mov	a,r7
      0008D1 12r00r00         [24] 1658 	lcall	__gptrput
                                   1659 ;	../../../../core/net/mac/frame802154.c:284: p += 2;
      0008D4 E5 81            [12] 1660 	mov	a,sp
      0008D6 24 FA            [12] 1661 	add	a,#0xfa
      0008D8 F8               [12] 1662 	mov	r0,a
      0008D9 74 02            [12] 1663 	mov	a,#0x02
      0008DB 26               [12] 1664 	add	a,@r0
      0008DC F6               [12] 1665 	mov	@r0,a
      0008DD E4               [12] 1666 	clr	a
      0008DE 08               [12] 1667 	inc	r0
      0008DF 36               [12] 1668 	addc	a,@r0
      0008E0 F6               [12] 1669 	mov	@r0,a
                                   1670 ;	../../../../core/net/mac/frame802154.c:292: if(fcf.dest_addr_mode == FRAME802154_SHORTADDRMODE) {
      0008E1 90r00r0A         [24] 1671 	mov	dptr,#(_fcf + 0x0005)
      0008E4 E0               [24] 1672 	movx	a,@dptr
      0008E5 FC               [12] 1673 	mov	r4,a
      0008E6 BC 02 02         [24] 1674 	cjne	r4,#0x02,00176$
      0008E9 80 09            [24] 1675 	sjmp	00177$
      0008EB                       1676 00176$:
      0008EB D0 07            [24] 1677 	pop	ar7
      0008ED D0 06            [24] 1678 	pop	ar6
      0008EF D0 05            [24] 1679 	pop	ar5
      0008F1 02r09rAD         [24] 1680 	ljmp	00107$
      0008F4                       1681 00177$:
      0008F4 D0 07            [24] 1682 	pop	ar7
      0008F6 D0 06            [24] 1683 	pop	ar6
      0008F8 D0 05            [24] 1684 	pop	ar5
                                   1685 ;	../../../../core/net/mac/frame802154.c:293: rimeaddr_copy((rimeaddr_t *)&(pf->dest_addr), &rimeaddr_null);
      0008FA E5 81            [12] 1686 	mov	a,sp
      0008FC 24 FA            [12] 1687 	add	a,#0xfa
      0008FE F8               [12] 1688 	mov	r0,a
      0008FF 74 0B            [12] 1689 	mov	a,#0x0B
      000901 2D               [12] 1690 	add	a,r5
      000902 F6               [12] 1691 	mov	@r0,a
      000903 E4               [12] 1692 	clr	a
      000904 3E               [12] 1693 	addc	a,r6
      000905 08               [12] 1694 	inc	r0
      000906 F6               [12] 1695 	mov	@r0,a
      000907 08               [12] 1696 	inc	r0
      000908 A6 07            [24] 1697 	mov	@r0,ar7
      00090A E5 81            [12] 1698 	mov	a,sp
      00090C 24 FA            [12] 1699 	add	a,#0xfa
      00090E F8               [12] 1700 	mov	r0,a
      00090F 86 02            [24] 1701 	mov	ar2,@r0
      000911 08               [12] 1702 	inc	r0
      000912 86 03            [24] 1703 	mov	ar3,@r0
      000914 08               [12] 1704 	inc	r0
      000915 86 04            [24] 1705 	mov	ar4,@r0
      000917 C0 07            [24] 1706 	push	ar7
      000919 C0 06            [24] 1707 	push	ar6
      00091B C0 05            [24] 1708 	push	ar5
      00091D 74r00            [12] 1709 	mov	a,#_rimeaddr_null
      00091F C0 E0            [24] 1710 	push	acc
      000921 74s00            [12] 1711 	mov	a,#(_rimeaddr_null >> 8)
      000923 C0 E0            [24] 1712 	push	acc
      000925 74 80            [12] 1713 	mov	a,#0x80
      000927 C0 E0            [24] 1714 	push	acc
      000929 8A 82            [24] 1715 	mov	dpl,r2
      00092B 8B 83            [24] 1716 	mov	dph,r3
      00092D 8C F0            [24] 1717 	mov	b,r4
      00092F 78r00            [12] 1718 	mov	r0,#_rimeaddr_copy
      000931 79s00            [12] 1719 	mov	r1,#(_rimeaddr_copy >> 8)
      000933 7As00            [12] 1720 	mov	r2,#(_rimeaddr_copy >> 16)
      000935 12r00r00         [24] 1721 	lcall	__sdcc_banked_call
      000938 15 81            [12] 1722 	dec	sp
      00093A 15 81            [12] 1723 	dec	sp
      00093C 15 81            [12] 1724 	dec	sp
      00093E D0 05            [24] 1725 	pop	ar5
      000940 D0 06            [24] 1726 	pop	ar6
      000942 D0 07            [24] 1727 	pop	ar7
                                   1728 ;	../../../../core/net/mac/frame802154.c:294: pf->dest_addr[0] = p[1];
      000944 E5 81            [12] 1729 	mov	a,sp
      000946 24 FD            [12] 1730 	add	a,#0xfd
      000948 F8               [12] 1731 	mov	r0,a
      000949 74 01            [12] 1732 	mov	a,#0x01
      00094B 26               [12] 1733 	add	a,@r0
      00094C FA               [12] 1734 	mov	r2,a
      00094D E4               [12] 1735 	clr	a
      00094E 08               [12] 1736 	inc	r0
      00094F 36               [12] 1737 	addc	a,@r0
      000950 FB               [12] 1738 	mov	r3,a
      000951 08               [12] 1739 	inc	r0
      000952 86 04            [24] 1740 	mov	ar4,@r0
      000954 8A 82            [24] 1741 	mov	dpl,r2
      000956 8B 83            [24] 1742 	mov	dph,r3
      000958 8C F0            [24] 1743 	mov	b,r4
      00095A 12r00r00         [24] 1744 	lcall	__gptrget
      00095D FA               [12] 1745 	mov	r2,a
      00095E E5 81            [12] 1746 	mov	a,sp
      000960 24 FA            [12] 1747 	add	a,#0xfa
      000962 F8               [12] 1748 	mov	r0,a
      000963 86 82            [24] 1749 	mov	dpl,@r0
      000965 08               [12] 1750 	inc	r0
      000966 86 83            [24] 1751 	mov	dph,@r0
      000968 08               [12] 1752 	inc	r0
      000969 86 F0            [24] 1753 	mov	b,@r0
      00096B EA               [12] 1754 	mov	a,r2
      00096C 12r00r00         [24] 1755 	lcall	__gptrput
                                   1756 ;	../../../../core/net/mac/frame802154.c:295: pf->dest_addr[1] = p[0];
      00096F 74 0C            [12] 1757 	mov	a,#0x0C
      000971 2D               [12] 1758 	add	a,r5
      000972 FA               [12] 1759 	mov	r2,a
      000973 E4               [12] 1760 	clr	a
      000974 3E               [12] 1761 	addc	a,r6
      000975 FB               [12] 1762 	mov	r3,a
      000976 8F 04            [24] 1763 	mov	ar4,r7
      000978 C0 05            [24] 1764 	push	ar5
      00097A C0 06            [24] 1765 	push	ar6
      00097C C0 07            [24] 1766 	push	ar7
      00097E E5 81            [12] 1767 	mov	a,sp
      000980 24 FA            [12] 1768 	add	a,#0xfa
      000982 F8               [12] 1769 	mov	r0,a
      000983 86 82            [24] 1770 	mov	dpl,@r0
      000985 08               [12] 1771 	inc	r0
      000986 86 83            [24] 1772 	mov	dph,@r0
      000988 08               [12] 1773 	inc	r0
      000989 86 F0            [24] 1774 	mov	b,@r0
      00098B 12r00r00         [24] 1775 	lcall	__gptrget
      00098E 8A 82            [24] 1776 	mov	dpl,r2
      000990 8B 83            [24] 1777 	mov	dph,r3
      000992 8C F0            [24] 1778 	mov	b,r4
      000994 12r00r00         [24] 1779 	lcall	__gptrput
                                   1780 ;	../../../../core/net/mac/frame802154.c:296: p += 2;
      000997 E5 81            [12] 1781 	mov	a,sp
      000999 24 FA            [12] 1782 	add	a,#0xfa
      00099B F8               [12] 1783 	mov	r0,a
      00099C 74 02            [12] 1784 	mov	a,#0x02
      00099E 26               [12] 1785 	add	a,@r0
      00099F F6               [12] 1786 	mov	@r0,a
      0009A0 E4               [12] 1787 	clr	a
      0009A1 08               [12] 1788 	inc	r0
      0009A2 36               [12] 1789 	addc	a,@r0
      0009A3 F6               [12] 1790 	mov	@r0,a
      0009A4 D0 07            [24] 1791 	pop	ar7
      0009A6 D0 06            [24] 1792 	pop	ar6
      0009A8 D0 05            [24] 1793 	pop	ar5
      0009AA 02r0Ar89         [24] 1794 	ljmp	00111$
      0009AD                       1795 00107$:
                                   1796 ;	../../../../core/net/mac/frame802154.c:297: } else if(fcf.dest_addr_mode == FRAME802154_LONGADDRMODE) {
      0009AD BC 03 02         [24] 1797 	cjne	r4,#0x03,00178$
      0009B0 80 03            [24] 1798 	sjmp	00179$
      0009B2                       1799 00178$:
      0009B2 02r0Ar89         [24] 1800 	ljmp	00111$
      0009B5                       1801 00179$:
                                   1802 ;	../../../../core/net/mac/frame802154.c:298: for(c = 0; c < 8; c++) {
      0009B5 E5 81            [12] 1803 	mov	a,sp
      0009B7 24 FA            [12] 1804 	add	a,#0xfa
      0009B9 F8               [12] 1805 	mov	r0,a
      0009BA 74 0B            [12] 1806 	mov	a,#0x0B
      0009BC 2D               [12] 1807 	add	a,r5
      0009BD F6               [12] 1808 	mov	@r0,a
      0009BE E4               [12] 1809 	clr	a
      0009BF 3E               [12] 1810 	addc	a,r6
      0009C0 08               [12] 1811 	inc	r0
      0009C1 F6               [12] 1812 	mov	@r0,a
      0009C2 08               [12] 1813 	inc	r0
      0009C3 A6 07            [24] 1814 	mov	@r0,ar7
      0009C5 A8 81            [24] 1815 	mov	r0,sp
      0009C7 76 00            [12] 1816 	mov	@r0,#0x00
      0009C9                       1817 00124$:
                                   1818 ;	../../../../core/net/mac/frame802154.c:299: pf->dest_addr[c] = p[7 - c];
      0009C9 C0 05            [24] 1819 	push	ar5
      0009CB C0 06            [24] 1820 	push	ar6
      0009CD C0 07            [24] 1821 	push	ar7
      0009CF E5 81            [12] 1822 	mov	a,sp
      0009D1 24 F7            [12] 1823 	add	a,#0xf7
      0009D3 F8               [12] 1824 	mov	r0,a
      0009D4 E5 81            [12] 1825 	mov	a,sp
      0009D6 24 FD            [12] 1826 	add	a,#0xfd
      0009D8 F9               [12] 1827 	mov	r1,a
      0009D9 E7               [12] 1828 	mov	a,@r1
      0009DA 26               [12] 1829 	add	a,@r0
      0009DB FA               [12] 1830 	mov	r2,a
      0009DC E4               [12] 1831 	clr	a
      0009DD 08               [12] 1832 	inc	r0
      0009DE 36               [12] 1833 	addc	a,@r0
      0009DF FB               [12] 1834 	mov	r3,a
      0009E0 08               [12] 1835 	inc	r0
      0009E1 86 07            [24] 1836 	mov	ar7,@r0
      0009E3 E5 81            [12] 1837 	mov	a,sp
      0009E5 24 FD            [12] 1838 	add	a,#0xfd
      0009E7 F8               [12] 1839 	mov	r0,a
      0009E8 86 05            [24] 1840 	mov	ar5,@r0
      0009EA 7E 00            [12] 1841 	mov	r6,#0x00
      0009EC 74 07            [12] 1842 	mov	a,#0x07
      0009EE C3               [12] 1843 	clr	c
      0009EF 9D               [12] 1844 	subb	a,r5
      0009F0 FD               [12] 1845 	mov	r5,a
      0009F1 E4               [12] 1846 	clr	a
      0009F2 9E               [12] 1847 	subb	a,r6
      0009F3 FE               [12] 1848 	mov	r6,a
      0009F4 E5 81            [12] 1849 	mov	a,sp
      0009F6 24 FA            [12] 1850 	add	a,#0xfa
      0009F8 F8               [12] 1851 	mov	r0,a
      0009F9 ED               [12] 1852 	mov	a,r5
      0009FA 26               [12] 1853 	add	a,@r0
      0009FB FD               [12] 1854 	mov	r5,a
      0009FC EE               [12] 1855 	mov	a,r6
      0009FD 08               [12] 1856 	inc	r0
      0009FE 36               [12] 1857 	addc	a,@r0
      0009FF FC               [12] 1858 	mov	r4,a
      000A00 08               [12] 1859 	inc	r0
      000A01 86 06            [24] 1860 	mov	ar6,@r0
      000A03 8D 82            [24] 1861 	mov	dpl,r5
      000A05 8C 83            [24] 1862 	mov	dph,r4
      000A07 8E F0            [24] 1863 	mov	b,r6
      000A09 12r00r00         [24] 1864 	lcall	__gptrget
      000A0C FD               [12] 1865 	mov	r5,a
      000A0D 8A 82            [24] 1866 	mov	dpl,r2
      000A0F 8B 83            [24] 1867 	mov	dph,r3
      000A11 8F F0            [24] 1868 	mov	b,r7
      000A13 12r00r00         [24] 1869 	lcall	__gptrput
                                   1870 ;	../../../../core/net/mac/frame802154.c:298: for(c = 0; c < 8; c++) {
      000A16 E5 81            [12] 1871 	mov	a,sp
      000A18 24 FD            [12] 1872 	add	a,#0xfd
      000A1A F8               [12] 1873 	mov	r0,a
      000A1B 06               [12] 1874 	inc	@r0
      000A1C E5 81            [12] 1875 	mov	a,sp
      000A1E 24 FD            [12] 1876 	add	a,#0xfd
      000A20 F8               [12] 1877 	mov	r0,a
      000A21 B6 08 00         [24] 1878 	cjne	@r0,#0x08,00180$
      000A24                       1879 00180$:
      000A24 D0 07            [24] 1880 	pop	ar7
      000A26 D0 06            [24] 1881 	pop	ar6
      000A28 D0 05            [24] 1882 	pop	ar5
      000A2A 40 9D            [24] 1883 	jc	00124$
                                   1884 ;	../../../../core/net/mac/frame802154.c:301: p += 8;
      000A2C E5 81            [12] 1885 	mov	a,sp
      000A2E 24 FD            [12] 1886 	add	a,#0xfd
      000A30 F8               [12] 1887 	mov	r0,a
      000A31 74 08            [12] 1888 	mov	a,#0x08
      000A33 26               [12] 1889 	add	a,@r0
      000A34 F6               [12] 1890 	mov	@r0,a
      000A35 E4               [12] 1891 	clr	a
      000A36 08               [12] 1892 	inc	r0
      000A37 36               [12] 1893 	addc	a,@r0
      000A38 F6               [12] 1894 	mov	@r0,a
      000A39 80 4E            [24] 1895 	sjmp	00111$
      000A3B                       1896 00110$:
                                   1897 ;	../../../../core/net/mac/frame802154.c:304: rimeaddr_copy((rimeaddr_t *)&(pf->dest_addr), &rimeaddr_null);
      000A3B 74 0B            [12] 1898 	mov	a,#0x0B
      000A3D 2D               [12] 1899 	add	a,r5
      000A3E FA               [12] 1900 	mov	r2,a
      000A3F E4               [12] 1901 	clr	a
      000A40 3E               [12] 1902 	addc	a,r6
      000A41 FB               [12] 1903 	mov	r3,a
      000A42 8F 04            [24] 1904 	mov	ar4,r7
      000A44 C0 07            [24] 1905 	push	ar7
      000A46 C0 06            [24] 1906 	push	ar6
      000A48 C0 05            [24] 1907 	push	ar5
      000A4A 74r00            [12] 1908 	mov	a,#_rimeaddr_null
      000A4C C0 E0            [24] 1909 	push	acc
      000A4E 74s00            [12] 1910 	mov	a,#(_rimeaddr_null >> 8)
      000A50 C0 E0            [24] 1911 	push	acc
      000A52 74 80            [12] 1912 	mov	a,#0x80
      000A54 C0 E0            [24] 1913 	push	acc
      000A56 8A 82            [24] 1914 	mov	dpl,r2
      000A58 8B 83            [24] 1915 	mov	dph,r3
      000A5A 8C F0            [24] 1916 	mov	b,r4
      000A5C 78r00            [12] 1917 	mov	r0,#_rimeaddr_copy
      000A5E 79s00            [12] 1918 	mov	r1,#(_rimeaddr_copy >> 8)
      000A60 7As00            [12] 1919 	mov	r2,#(_rimeaddr_copy >> 16)
      000A62 12r00r00         [24] 1920 	lcall	__sdcc_banked_call
      000A65 15 81            [12] 1921 	dec	sp
      000A67 15 81            [12] 1922 	dec	sp
      000A69 15 81            [12] 1923 	dec	sp
      000A6B D0 05            [24] 1924 	pop	ar5
      000A6D D0 06            [24] 1925 	pop	ar6
      000A6F D0 07            [24] 1926 	pop	ar7
                                   1927 ;	../../../../core/net/mac/frame802154.c:305: pf->dest_pid = 0;
      000A71 74 09            [12] 1928 	mov	a,#0x09
      000A73 2D               [12] 1929 	add	a,r5
      000A74 FA               [12] 1930 	mov	r2,a
      000A75 E4               [12] 1931 	clr	a
      000A76 3E               [12] 1932 	addc	a,r6
      000A77 FB               [12] 1933 	mov	r3,a
      000A78 8F 04            [24] 1934 	mov	ar4,r7
      000A7A 8A 82            [24] 1935 	mov	dpl,r2
      000A7C 8B 83            [24] 1936 	mov	dph,r3
      000A7E 8C F0            [24] 1937 	mov	b,r4
      000A80 E4               [12] 1938 	clr	a
      000A81 12r00r00         [24] 1939 	lcall	__gptrput
      000A84 A3               [24] 1940 	inc	dptr
      000A85 E4               [12] 1941 	clr	a
      000A86 12r00r00         [24] 1942 	lcall	__gptrput
      000A89                       1943 00111$:
                                   1944 ;	../../../../core/net/mac/frame802154.c:309: if(fcf.src_addr_mode) {
      000A89 90r00r0C         [24] 1945 	mov	dptr,#(_fcf + 0x0007)
      000A8C E0               [24] 1946 	movx	a,@dptr
      000A8D 70 03            [24] 1947 	jnz	00182$
      000A8F 02r0Cr9F         [24] 1948 	ljmp	00122$
      000A92                       1949 00182$:
                                   1950 ;	../../../../core/net/mac/frame802154.c:311: if(!fcf.panid_compression) {
      000A92 90r00r09         [24] 1951 	mov	dptr,#(_fcf + 0x0004)
      000A95 E0               [24] 1952 	movx	a,@dptr
      000A96 70 76            [24] 1953 	jnz	00113$
                                   1954 ;	../../../../core/net/mac/frame802154.c:312: pf->src_pid = p[0] + (p[1] << 8);
      000A98 74 13            [12] 1955 	mov	a,#0x13
      000A9A 2D               [12] 1956 	add	a,r5
      000A9B FA               [12] 1957 	mov	r2,a
      000A9C E4               [12] 1958 	clr	a
      000A9D 3E               [12] 1959 	addc	a,r6
      000A9E FB               [12] 1960 	mov	r3,a
      000A9F 8F 04            [24] 1961 	mov	ar4,r7
      000AA1 C0 05            [24] 1962 	push	ar5
      000AA3 C0 06            [24] 1963 	push	ar6
      000AA5 C0 07            [24] 1964 	push	ar7
      000AA7 E5 81            [12] 1965 	mov	a,sp
      000AA9 24 FA            [12] 1966 	add	a,#0xfa
      000AAB F8               [12] 1967 	mov	r0,a
      000AAC 86 82            [24] 1968 	mov	dpl,@r0
      000AAE 08               [12] 1969 	inc	r0
      000AAF 86 83            [24] 1970 	mov	dph,@r0
      000AB1 08               [12] 1971 	inc	r0
      000AB2 86 F0            [24] 1972 	mov	b,@r0
      000AB4 12r00r00         [24] 1973 	lcall	__gptrget
      000AB7 FF               [12] 1974 	mov	r7,a
      000AB8 E5 81            [12] 1975 	mov	a,sp
      000ABA 24 F7            [12] 1976 	add	a,#0xf7
      000ABC F8               [12] 1977 	mov	r0,a
      000ABD A6 07            [24] 1978 	mov	@r0,ar7
      000ABF 08               [12] 1979 	inc	r0
      000AC0 76 00            [12] 1980 	mov	@r0,#0x00
      000AC2 E5 81            [12] 1981 	mov	a,sp
      000AC4 24 FA            [12] 1982 	add	a,#0xfa
      000AC6 F8               [12] 1983 	mov	r0,a
      000AC7 74 01            [12] 1984 	mov	a,#0x01
      000AC9 26               [12] 1985 	add	a,@r0
      000ACA FD               [12] 1986 	mov	r5,a
      000ACB E4               [12] 1987 	clr	a
      000ACC 08               [12] 1988 	inc	r0
      000ACD 36               [12] 1989 	addc	a,@r0
      000ACE FE               [12] 1990 	mov	r6,a
      000ACF 08               [12] 1991 	inc	r0
      000AD0 86 07            [24] 1992 	mov	ar7,@r0
      000AD2 8D 82            [24] 1993 	mov	dpl,r5
      000AD4 8E 83            [24] 1994 	mov	dph,r6
      000AD6 8F F0            [24] 1995 	mov	b,r7
      000AD8 12r00r00         [24] 1996 	lcall	__gptrget
      000ADB FF               [12] 1997 	mov	r7,a
      000ADC 7D 00            [12] 1998 	mov	r5,#0x00
      000ADE E5 81            [12] 1999 	mov	a,sp
      000AE0 24 F7            [12] 2000 	add	a,#0xf7
      000AE2 F8               [12] 2001 	mov	r0,a
      000AE3 ED               [12] 2002 	mov	a,r5
      000AE4 26               [12] 2003 	add	a,@r0
      000AE5 FD               [12] 2004 	mov	r5,a
      000AE6 EF               [12] 2005 	mov	a,r7
      000AE7 08               [12] 2006 	inc	r0
      000AE8 36               [12] 2007 	addc	a,@r0
      000AE9 FF               [12] 2008 	mov	r7,a
      000AEA 8A 82            [24] 2009 	mov	dpl,r2
      000AEC 8B 83            [24] 2010 	mov	dph,r3
      000AEE 8C F0            [24] 2011 	mov	b,r4
      000AF0 ED               [12] 2012 	mov	a,r5
      000AF1 12r00r00         [24] 2013 	lcall	__gptrput
      000AF4 A3               [24] 2014 	inc	dptr
      000AF5 EF               [12] 2015 	mov	a,r7
      000AF6 12r00r00         [24] 2016 	lcall	__gptrput
                                   2017 ;	../../../../core/net/mac/frame802154.c:313: p += 2;
      000AF9 E5 81            [12] 2018 	mov	a,sp
      000AFB 24 FA            [12] 2019 	add	a,#0xfa
      000AFD F8               [12] 2020 	mov	r0,a
      000AFE 74 02            [12] 2021 	mov	a,#0x02
      000B00 26               [12] 2022 	add	a,@r0
      000B01 F6               [12] 2023 	mov	@r0,a
      000B02 E4               [12] 2024 	clr	a
      000B03 08               [12] 2025 	inc	r0
      000B04 36               [12] 2026 	addc	a,@r0
      000B05 F6               [12] 2027 	mov	@r0,a
      000B06 D0 07            [24] 2028 	pop	ar7
      000B08 D0 06            [24] 2029 	pop	ar6
      000B0A D0 05            [24] 2030 	pop	ar5
      000B0C 80 3E            [24] 2031 	sjmp	00114$
      000B0E                       2032 00113$:
                                   2033 ;	../../../../core/net/mac/frame802154.c:315: pf->src_pid = pf->dest_pid;
      000B0E E5 81            [12] 2034 	mov	a,sp
      000B10 24 FA            [12] 2035 	add	a,#0xfa
      000B12 F8               [12] 2036 	mov	r0,a
      000B13 74 13            [12] 2037 	mov	a,#0x13
      000B15 2D               [12] 2038 	add	a,r5
      000B16 F6               [12] 2039 	mov	@r0,a
      000B17 E4               [12] 2040 	clr	a
      000B18 3E               [12] 2041 	addc	a,r6
      000B19 08               [12] 2042 	inc	r0
      000B1A F6               [12] 2043 	mov	@r0,a
      000B1B 08               [12] 2044 	inc	r0
      000B1C A6 07            [24] 2045 	mov	@r0,ar7
      000B1E 74 09            [12] 2046 	mov	a,#0x09
      000B20 2D               [12] 2047 	add	a,r5
      000B21 FA               [12] 2048 	mov	r2,a
      000B22 E4               [12] 2049 	clr	a
      000B23 3E               [12] 2050 	addc	a,r6
      000B24 FB               [12] 2051 	mov	r3,a
      000B25 8F 04            [24] 2052 	mov	ar4,r7
      000B27 8A 82            [24] 2053 	mov	dpl,r2
      000B29 8B 83            [24] 2054 	mov	dph,r3
      000B2B 8C F0            [24] 2055 	mov	b,r4
      000B2D 12r00r00         [24] 2056 	lcall	__gptrget
      000B30 FA               [12] 2057 	mov	r2,a
      000B31 A3               [24] 2058 	inc	dptr
      000B32 12r00r00         [24] 2059 	lcall	__gptrget
      000B35 FB               [12] 2060 	mov	r3,a
      000B36 E5 81            [12] 2061 	mov	a,sp
      000B38 24 FA            [12] 2062 	add	a,#0xfa
      000B3A F8               [12] 2063 	mov	r0,a
      000B3B 86 82            [24] 2064 	mov	dpl,@r0
      000B3D 08               [12] 2065 	inc	r0
      000B3E 86 83            [24] 2066 	mov	dph,@r0
      000B40 08               [12] 2067 	inc	r0
      000B41 86 F0            [24] 2068 	mov	b,@r0
      000B43 EA               [12] 2069 	mov	a,r2
      000B44 12r00r00         [24] 2070 	lcall	__gptrput
      000B47 A3               [24] 2071 	inc	dptr
      000B48 EB               [12] 2072 	mov	a,r3
      000B49 12r00r00         [24] 2073 	lcall	__gptrput
      000B4C                       2074 00114$:
                                   2075 ;	../../../../core/net/mac/frame802154.c:324: if(fcf.src_addr_mode == FRAME802154_SHORTADDRMODE) {
      000B4C 90r00r0C         [24] 2076 	mov	dptr,#(_fcf + 0x0007)
      000B4F E0               [24] 2077 	movx	a,@dptr
      000B50 FC               [12] 2078 	mov	r4,a
      000B51 BC 02 02         [24] 2079 	cjne	r4,#0x02,00184$
      000B54 80 03            [24] 2080 	sjmp	00185$
      000B56                       2081 00184$:
      000B56 02r0Cr0C         [24] 2082 	ljmp	00119$
      000B59                       2083 00185$:
                                   2084 ;	../../../../core/net/mac/frame802154.c:325: rimeaddr_copy((rimeaddr_t *)&(pf->src_addr), &rimeaddr_null);
      000B59 E5 81            [12] 2085 	mov	a,sp
      000B5B 24 FA            [12] 2086 	add	a,#0xfa
      000B5D F8               [12] 2087 	mov	r0,a
      000B5E 74 15            [12] 2088 	mov	a,#0x15
      000B60 2D               [12] 2089 	add	a,r5
      000B61 F6               [12] 2090 	mov	@r0,a
      000B62 E4               [12] 2091 	clr	a
      000B63 3E               [12] 2092 	addc	a,r6
      000B64 08               [12] 2093 	inc	r0
      000B65 F6               [12] 2094 	mov	@r0,a
      000B66 08               [12] 2095 	inc	r0
      000B67 A6 07            [24] 2096 	mov	@r0,ar7
      000B69 E5 81            [12] 2097 	mov	a,sp
      000B6B 24 FA            [12] 2098 	add	a,#0xfa
      000B6D F8               [12] 2099 	mov	r0,a
      000B6E 86 02            [24] 2100 	mov	ar2,@r0
      000B70 08               [12] 2101 	inc	r0
      000B71 86 03            [24] 2102 	mov	ar3,@r0
      000B73 08               [12] 2103 	inc	r0
      000B74 86 04            [24] 2104 	mov	ar4,@r0
      000B76 C0 07            [24] 2105 	push	ar7
      000B78 C0 06            [24] 2106 	push	ar6
      000B7A C0 05            [24] 2107 	push	ar5
      000B7C 74r00            [12] 2108 	mov	a,#_rimeaddr_null
      000B7E C0 E0            [24] 2109 	push	acc
      000B80 74s00            [12] 2110 	mov	a,#(_rimeaddr_null >> 8)
      000B82 C0 E0            [24] 2111 	push	acc
      000B84 74 80            [12] 2112 	mov	a,#0x80
      000B86 C0 E0            [24] 2113 	push	acc
      000B88 8A 82            [24] 2114 	mov	dpl,r2
      000B8A 8B 83            [24] 2115 	mov	dph,r3
      000B8C 8C F0            [24] 2116 	mov	b,r4
      000B8E 78r00            [12] 2117 	mov	r0,#_rimeaddr_copy
      000B90 79s00            [12] 2118 	mov	r1,#(_rimeaddr_copy >> 8)
      000B92 7As00            [12] 2119 	mov	r2,#(_rimeaddr_copy >> 16)
      000B94 12r00r00         [24] 2120 	lcall	__sdcc_banked_call
      000B97 15 81            [12] 2121 	dec	sp
      000B99 15 81            [12] 2122 	dec	sp
      000B9B 15 81            [12] 2123 	dec	sp
      000B9D D0 05            [24] 2124 	pop	ar5
      000B9F D0 06            [24] 2125 	pop	ar6
      000BA1 D0 07            [24] 2126 	pop	ar7
                                   2127 ;	../../../../core/net/mac/frame802154.c:326: pf->src_addr[0] = p[1];
      000BA3 E5 81            [12] 2128 	mov	a,sp
      000BA5 24 FD            [12] 2129 	add	a,#0xfd
      000BA7 F8               [12] 2130 	mov	r0,a
      000BA8 74 01            [12] 2131 	mov	a,#0x01
      000BAA 26               [12] 2132 	add	a,@r0
      000BAB FA               [12] 2133 	mov	r2,a
      000BAC E4               [12] 2134 	clr	a
      000BAD 08               [12] 2135 	inc	r0
      000BAE 36               [12] 2136 	addc	a,@r0
      000BAF FB               [12] 2137 	mov	r3,a
      000BB0 08               [12] 2138 	inc	r0
      000BB1 86 04            [24] 2139 	mov	ar4,@r0
      000BB3 8A 82            [24] 2140 	mov	dpl,r2
      000BB5 8B 83            [24] 2141 	mov	dph,r3
      000BB7 8C F0            [24] 2142 	mov	b,r4
      000BB9 12r00r00         [24] 2143 	lcall	__gptrget
      000BBC FA               [12] 2144 	mov	r2,a
      000BBD E5 81            [12] 2145 	mov	a,sp
      000BBF 24 FA            [12] 2146 	add	a,#0xfa
      000BC1 F8               [12] 2147 	mov	r0,a
      000BC2 86 82            [24] 2148 	mov	dpl,@r0
      000BC4 08               [12] 2149 	inc	r0
      000BC5 86 83            [24] 2150 	mov	dph,@r0
      000BC7 08               [12] 2151 	inc	r0
      000BC8 86 F0            [24] 2152 	mov	b,@r0
      000BCA EA               [12] 2153 	mov	a,r2
      000BCB 12r00r00         [24] 2154 	lcall	__gptrput
                                   2155 ;	../../../../core/net/mac/frame802154.c:327: pf->src_addr[1] = p[0];
      000BCE 74 16            [12] 2156 	mov	a,#0x16
      000BD0 2D               [12] 2157 	add	a,r5
      000BD1 FA               [12] 2158 	mov	r2,a
      000BD2 E4               [12] 2159 	clr	a
      000BD3 3E               [12] 2160 	addc	a,r6
      000BD4 FB               [12] 2161 	mov	r3,a
      000BD5 8F 04            [24] 2162 	mov	ar4,r7
      000BD7 C0 05            [24] 2163 	push	ar5
      000BD9 C0 06            [24] 2164 	push	ar6
      000BDB C0 07            [24] 2165 	push	ar7
      000BDD E5 81            [12] 2166 	mov	a,sp
      000BDF 24 FA            [12] 2167 	add	a,#0xfa
      000BE1 F8               [12] 2168 	mov	r0,a
      000BE2 86 82            [24] 2169 	mov	dpl,@r0
      000BE4 08               [12] 2170 	inc	r0
      000BE5 86 83            [24] 2171 	mov	dph,@r0
      000BE7 08               [12] 2172 	inc	r0
      000BE8 86 F0            [24] 2173 	mov	b,@r0
      000BEA 12r00r00         [24] 2174 	lcall	__gptrget
      000BED 8A 82            [24] 2175 	mov	dpl,r2
      000BEF 8B 83            [24] 2176 	mov	dph,r3
      000BF1 8C F0            [24] 2177 	mov	b,r4
      000BF3 12r00r00         [24] 2178 	lcall	__gptrput
                                   2179 ;	../../../../core/net/mac/frame802154.c:328: p += 2;
      000BF6 E5 81            [12] 2180 	mov	a,sp
      000BF8 24 FA            [12] 2181 	add	a,#0xfa
      000BFA F8               [12] 2182 	mov	r0,a
      000BFB 74 02            [12] 2183 	mov	a,#0x02
      000BFD 26               [12] 2184 	add	a,@r0
      000BFE F6               [12] 2185 	mov	@r0,a
      000BFF E4               [12] 2186 	clr	a
      000C00 08               [12] 2187 	inc	r0
      000C01 36               [12] 2188 	addc	a,@r0
      000C02 F6               [12] 2189 	mov	@r0,a
      000C03 D0 07            [24] 2190 	pop	ar7
      000C05 D0 06            [24] 2191 	pop	ar6
      000C07 D0 05            [24] 2192 	pop	ar5
      000C09 02r0CrED         [24] 2193 	ljmp	00123$
      000C0C                       2194 00119$:
                                   2195 ;	../../../../core/net/mac/frame802154.c:329: } else if(fcf.src_addr_mode == FRAME802154_LONGADDRMODE) {
      000C0C 90r00r0C         [24] 2196 	mov	dptr,#(_fcf + 0x0007)
      000C0F E0               [24] 2197 	movx	a,@dptr
      000C10 FC               [12] 2198 	mov	r4,a
      000C11 BC 03 02         [24] 2199 	cjne	r4,#0x03,00186$
      000C14 80 03            [24] 2200 	sjmp	00187$
      000C16                       2201 00186$:
      000C16 02r0CrED         [24] 2202 	ljmp	00123$
      000C19                       2203 00187$:
                                   2204 ;	../../../../core/net/mac/frame802154.c:330: for(c = 0; c < 8; c++) {
      000C19 E5 81            [12] 2205 	mov	a,sp
      000C1B 24 FA            [12] 2206 	add	a,#0xfa
      000C1D F8               [12] 2207 	mov	r0,a
      000C1E 74 15            [12] 2208 	mov	a,#0x15
      000C20 2D               [12] 2209 	add	a,r5
      000C21 F6               [12] 2210 	mov	@r0,a
      000C22 E4               [12] 2211 	clr	a
      000C23 3E               [12] 2212 	addc	a,r6
      000C24 08               [12] 2213 	inc	r0
      000C25 F6               [12] 2214 	mov	@r0,a
      000C26 08               [12] 2215 	inc	r0
      000C27 A6 07            [24] 2216 	mov	@r0,ar7
      000C29 A8 81            [24] 2217 	mov	r0,sp
      000C2B 76 00            [12] 2218 	mov	@r0,#0x00
      000C2D                       2219 00126$:
                                   2220 ;	../../../../core/net/mac/frame802154.c:331: pf->src_addr[c] = p[7 - c];
      000C2D C0 05            [24] 2221 	push	ar5
      000C2F C0 06            [24] 2222 	push	ar6
      000C31 C0 07            [24] 2223 	push	ar7
      000C33 E5 81            [12] 2224 	mov	a,sp
      000C35 24 F7            [12] 2225 	add	a,#0xf7
      000C37 F8               [12] 2226 	mov	r0,a
      000C38 E5 81            [12] 2227 	mov	a,sp
      000C3A 24 FD            [12] 2228 	add	a,#0xfd
      000C3C F9               [12] 2229 	mov	r1,a
      000C3D E7               [12] 2230 	mov	a,@r1
      000C3E 26               [12] 2231 	add	a,@r0
      000C3F FA               [12] 2232 	mov	r2,a
      000C40 E4               [12] 2233 	clr	a
      000C41 08               [12] 2234 	inc	r0
      000C42 36               [12] 2235 	addc	a,@r0
      000C43 FB               [12] 2236 	mov	r3,a
      000C44 08               [12] 2237 	inc	r0
      000C45 86 07            [24] 2238 	mov	ar7,@r0
      000C47 E5 81            [12] 2239 	mov	a,sp
      000C49 24 FD            [12] 2240 	add	a,#0xfd
      000C4B F8               [12] 2241 	mov	r0,a
      000C4C 86 05            [24] 2242 	mov	ar5,@r0
      000C4E 7E 00            [12] 2243 	mov	r6,#0x00
      000C50 74 07            [12] 2244 	mov	a,#0x07
      000C52 C3               [12] 2245 	clr	c
      000C53 9D               [12] 2246 	subb	a,r5
      000C54 FD               [12] 2247 	mov	r5,a
      000C55 E4               [12] 2248 	clr	a
      000C56 9E               [12] 2249 	subb	a,r6
      000C57 FE               [12] 2250 	mov	r6,a
      000C58 E5 81            [12] 2251 	mov	a,sp
      000C5A 24 FA            [12] 2252 	add	a,#0xfa
      000C5C F8               [12] 2253 	mov	r0,a
      000C5D ED               [12] 2254 	mov	a,r5
      000C5E 26               [12] 2255 	add	a,@r0
      000C5F FD               [12] 2256 	mov	r5,a
      000C60 EE               [12] 2257 	mov	a,r6
      000C61 08               [12] 2258 	inc	r0
      000C62 36               [12] 2259 	addc	a,@r0
      000C63 FC               [12] 2260 	mov	r4,a
      000C64 08               [12] 2261 	inc	r0
      000C65 86 06            [24] 2262 	mov	ar6,@r0
      000C67 8D 82            [24] 2263 	mov	dpl,r5
      000C69 8C 83            [24] 2264 	mov	dph,r4
      000C6B 8E F0            [24] 2265 	mov	b,r6
      000C6D 12r00r00         [24] 2266 	lcall	__gptrget
      000C70 FD               [12] 2267 	mov	r5,a
      000C71 8A 82            [24] 2268 	mov	dpl,r2
      000C73 8B 83            [24] 2269 	mov	dph,r3
      000C75 8F F0            [24] 2270 	mov	b,r7
      000C77 12r00r00         [24] 2271 	lcall	__gptrput
                                   2272 ;	../../../../core/net/mac/frame802154.c:330: for(c = 0; c < 8; c++) {
      000C7A E5 81            [12] 2273 	mov	a,sp
      000C7C 24 FD            [12] 2274 	add	a,#0xfd
      000C7E F8               [12] 2275 	mov	r0,a
      000C7F 06               [12] 2276 	inc	@r0
      000C80 E5 81            [12] 2277 	mov	a,sp
      000C82 24 FD            [12] 2278 	add	a,#0xfd
      000C84 F8               [12] 2279 	mov	r0,a
      000C85 B6 08 00         [24] 2280 	cjne	@r0,#0x08,00188$
      000C88                       2281 00188$:
      000C88 D0 07            [24] 2282 	pop	ar7
      000C8A D0 06            [24] 2283 	pop	ar6
      000C8C D0 05            [24] 2284 	pop	ar5
      000C8E 40 9D            [24] 2285 	jc	00126$
                                   2286 ;	../../../../core/net/mac/frame802154.c:333: p += 8;
      000C90 E5 81            [12] 2287 	mov	a,sp
      000C92 24 FD            [12] 2288 	add	a,#0xfd
      000C94 F8               [12] 2289 	mov	r0,a
      000C95 74 08            [12] 2290 	mov	a,#0x08
      000C97 26               [12] 2291 	add	a,@r0
      000C98 F6               [12] 2292 	mov	@r0,a
      000C99 E4               [12] 2293 	clr	a
      000C9A 08               [12] 2294 	inc	r0
      000C9B 36               [12] 2295 	addc	a,@r0
      000C9C F6               [12] 2296 	mov	@r0,a
      000C9D 80 4E            [24] 2297 	sjmp	00123$
      000C9F                       2298 00122$:
                                   2299 ;	../../../../core/net/mac/frame802154.c:336: rimeaddr_copy((rimeaddr_t *)&(pf->src_addr), &rimeaddr_null);
      000C9F 74 15            [12] 2300 	mov	a,#0x15
      000CA1 2D               [12] 2301 	add	a,r5
      000CA2 FA               [12] 2302 	mov	r2,a
      000CA3 E4               [12] 2303 	clr	a
      000CA4 3E               [12] 2304 	addc	a,r6
      000CA5 FB               [12] 2305 	mov	r3,a
      000CA6 8F 04            [24] 2306 	mov	ar4,r7
      000CA8 C0 07            [24] 2307 	push	ar7
      000CAA C0 06            [24] 2308 	push	ar6
      000CAC C0 05            [24] 2309 	push	ar5
      000CAE 74r00            [12] 2310 	mov	a,#_rimeaddr_null
      000CB0 C0 E0            [24] 2311 	push	acc
      000CB2 74s00            [12] 2312 	mov	a,#(_rimeaddr_null >> 8)
      000CB4 C0 E0            [24] 2313 	push	acc
      000CB6 74 80            [12] 2314 	mov	a,#0x80
      000CB8 C0 E0            [24] 2315 	push	acc
      000CBA 8A 82            [24] 2316 	mov	dpl,r2
      000CBC 8B 83            [24] 2317 	mov	dph,r3
      000CBE 8C F0            [24] 2318 	mov	b,r4
      000CC0 78r00            [12] 2319 	mov	r0,#_rimeaddr_copy
      000CC2 79s00            [12] 2320 	mov	r1,#(_rimeaddr_copy >> 8)
      000CC4 7As00            [12] 2321 	mov	r2,#(_rimeaddr_copy >> 16)
      000CC6 12r00r00         [24] 2322 	lcall	__sdcc_banked_call
      000CC9 15 81            [12] 2323 	dec	sp
      000CCB 15 81            [12] 2324 	dec	sp
      000CCD 15 81            [12] 2325 	dec	sp
      000CCF D0 05            [24] 2326 	pop	ar5
      000CD1 D0 06            [24] 2327 	pop	ar6
      000CD3 D0 07            [24] 2328 	pop	ar7
                                   2329 ;	../../../../core/net/mac/frame802154.c:337: pf->src_pid = 0;
      000CD5 74 13            [12] 2330 	mov	a,#0x13
      000CD7 2D               [12] 2331 	add	a,r5
      000CD8 FA               [12] 2332 	mov	r2,a
      000CD9 E4               [12] 2333 	clr	a
      000CDA 3E               [12] 2334 	addc	a,r6
      000CDB FB               [12] 2335 	mov	r3,a
      000CDC 8F 04            [24] 2336 	mov	ar4,r7
      000CDE 8A 82            [24] 2337 	mov	dpl,r2
      000CE0 8B 83            [24] 2338 	mov	dph,r3
      000CE2 8C F0            [24] 2339 	mov	b,r4
      000CE4 E4               [12] 2340 	clr	a
      000CE5 12r00r00         [24] 2341 	lcall	__gptrput
      000CE8 A3               [24] 2342 	inc	dptr
      000CE9 E4               [12] 2343 	clr	a
      000CEA 12r00r00         [24] 2344 	lcall	__gptrput
      000CED                       2345 00123$:
                                   2346 ;	../../../../core/net/mac/frame802154.c:346: c = p - data;
      000CED E5 81            [12] 2347 	mov	a,sp
      000CEF 24 FD            [12] 2348 	add	a,#0xfd
      000CF1 F8               [12] 2349 	mov	r0,a
      000CF2 E5 81            [12] 2350 	mov	a,sp
      000CF4 24 F4            [12] 2351 	add	a,#0xf4
      000CF6 F9               [12] 2352 	mov	r1,a
      000CF7 E6               [12] 2353 	mov	a,@r0
      000CF8 C3               [12] 2354 	clr	c
      000CF9 97               [12] 2355 	subb	a,@r1
      000CFA FB               [12] 2356 	mov	r3,a
      000CFB 08               [12] 2357 	inc	r0
      000CFC E6               [12] 2358 	mov	a,@r0
      000CFD 09               [12] 2359 	inc	r1
      000CFE 97               [12] 2360 	subb	a,@r1
                                   2361 ;	../../../../core/net/mac/frame802154.c:348: pf->payload_len = len - c;
      000CFF E5 81            [12] 2362 	mov	a,sp
      000D01 24 FA            [12] 2363 	add	a,#0xfa
      000D03 F8               [12] 2364 	mov	r0,a
      000D04 74 30            [12] 2365 	mov	a,#0x30
      000D06 2D               [12] 2366 	add	a,r5
      000D07 F6               [12] 2367 	mov	@r0,a
      000D08 E4               [12] 2368 	clr	a
      000D09 3E               [12] 2369 	addc	a,r6
      000D0A 08               [12] 2370 	inc	r0
      000D0B F6               [12] 2371 	mov	@r0,a
      000D0C 08               [12] 2372 	inc	r0
      000D0D A6 07            [24] 2373 	mov	@r0,ar7
      000D0F E5 81            [12] 2374 	mov	a,sp
      000D11 24 F0            [12] 2375 	add	a,#0xf0
      000D13 F8               [12] 2376 	mov	r0,a
      000D14 E6               [12] 2377 	mov	a,@r0
      000D15 C3               [12] 2378 	clr	c
      000D16 9B               [12] 2379 	subb	a,r3
      000D17 FC               [12] 2380 	mov	r4,a
      000D18 E5 81            [12] 2381 	mov	a,sp
      000D1A 24 FA            [12] 2382 	add	a,#0xfa
      000D1C F8               [12] 2383 	mov	r0,a
      000D1D 86 82            [24] 2384 	mov	dpl,@r0
      000D1F 08               [12] 2385 	inc	r0
      000D20 86 83            [24] 2386 	mov	dph,@r0
      000D22 08               [12] 2387 	inc	r0
      000D23 86 F0            [24] 2388 	mov	b,@r0
      000D25 EC               [12] 2389 	mov	a,r4
      000D26 12r00r00         [24] 2390 	lcall	__gptrput
                                   2391 ;	../../../../core/net/mac/frame802154.c:350: pf->payload = p;
      000D29 74 2D            [12] 2392 	mov	a,#0x2D
      000D2B 2D               [12] 2393 	add	a,r5
      000D2C FD               [12] 2394 	mov	r5,a
      000D2D E4               [12] 2395 	clr	a
      000D2E 3E               [12] 2396 	addc	a,r6
      000D2F FE               [12] 2397 	mov	r6,a
      000D30 8D 82            [24] 2398 	mov	dpl,r5
      000D32 8E 83            [24] 2399 	mov	dph,r6
      000D34 8F F0            [24] 2400 	mov	b,r7
      000D36 E5 81            [12] 2401 	mov	a,sp
      000D38 24 FD            [12] 2402 	add	a,#0xfd
      000D3A F8               [12] 2403 	mov	r0,a
      000D3B E6               [12] 2404 	mov	a,@r0
      000D3C 12r00r00         [24] 2405 	lcall	__gptrput
      000D3F A3               [24] 2406 	inc	dptr
      000D40 08               [12] 2407 	inc	r0
      000D41 E6               [12] 2408 	mov	a,@r0
      000D42 12r00r00         [24] 2409 	lcall	__gptrput
      000D45 A3               [24] 2410 	inc	dptr
      000D46 08               [12] 2411 	inc	r0
      000D47 E6               [12] 2412 	mov	a,@r0
      000D48 12r00r00         [24] 2413 	lcall	__gptrput
                                   2414 ;	../../../../core/net/mac/frame802154.c:353: return c > len ? 0 : c;
      000D4B E5 81            [12] 2415 	mov	a,sp
      000D4D 24 F0            [12] 2416 	add	a,#0xf0
      000D4F F8               [12] 2417 	mov	r0,a
      000D50 C3               [12] 2418 	clr	c
      000D51 E6               [12] 2419 	mov	a,@r0
      000D52 9B               [12] 2420 	subb	a,r3
      000D53 50 04            [24] 2421 	jnc	00130$
      000D55 7F 00            [12] 2422 	mov	r7,#0x00
      000D57 80 02            [24] 2423 	sjmp	00131$
      000D59                       2424 00130$:
      000D59 8B 07            [24] 2425 	mov	ar7,r3
      000D5B                       2426 00131$:
      000D5B 8F 82            [24] 2427 	mov	dpl,r7
      000D5D                       2428 00128$:
      000D5D E5 81            [12] 2429 	mov	a,sp
      000D5F 24 F3            [12] 2430 	add	a,#0xF3
      000D61 F5 81            [12] 2431 	mov	sp,a
      000D63 02r00r00         [24] 2432 	ljmp	__sdcc_banked_ret
                                   2433 	.area CSEG    (CODE)
                                   2434 	.area CONST   (CODE)
                                   2435 	.area XINIT   (CODE)
                                   2436 	.area CABS    (ABS,CODE)
