                                      1 ;--------------------------------------------------------
                                      2 ; File Created by SDCC : free open source ANSI-C Compiler
                                      3 ; Version 3.3.1 #8804 (Aug  6 2013) (Linux)
                                      4 ; This file was generated Mon Aug 25 04:16:41 2014
                                      5 ;--------------------------------------------------------
                                      6 	.module uip6
                                      7 	.optsdcc -mmcs51 --model-huge
                                      8 	
                                      9 ;--------------------------------------------------------
                                     10 ; Public variables in this module
                                     11 ;--------------------------------------------------------
                                     12 	.globl _remove_ext_hdr
                                     13 	.globl _uip_add32
                                     14 	.globl _rpl_verify_header
                                     15 	.globl _rpl_update_header_empty
                                     16 	.globl _uip_rpl_input
                                     17 	.globl _uip_ds6_select_src
                                     18 	.globl _uip_ds6_maddr_lookup
                                     19 	.globl _uip_ds6_addr_lookup
                                     20 	.globl _uip_ds6_is_addr_onlink
                                     21 	.globl _uip_ds6_init
                                     22 	.globl _uip_nd6_na_input
                                     23 	.globl _uip_nd6_ns_input
                                     24 	.globl _uip_icmp6_error_output
                                     25 	.globl _uip_icmp6_echo_request_input
                                     26 	.globl _tcpip_icmp6_call
                                     27 	.globl _tcpip_uipcall
                                     28 	.globl _memset
                                     29 	.globl _memcmp
                                     30 	.globl _memmove
                                     31 	.globl _memcpy
                                     32 	.globl _ACTIVE
                                     33 	.globl _TX_BYTE
                                     34 	.globl _RX_BYTE
                                     35 	.globl _ERR
                                     36 	.globl _FE
                                     37 	.globl _SLAVE
                                     38 	.globl _RE
                                     39 	.globl _MODE
                                     40 	.globl _T3OVFIF
                                     41 	.globl _T3CH0IF
                                     42 	.globl _T3CH1IF
                                     43 	.globl _T4OVFIF
                                     44 	.globl _T4CH0IF
                                     45 	.globl _T4CH1IF
                                     46 	.globl _OVFIM
                                     47 	.globl _B_0
                                     48 	.globl _B_1
                                     49 	.globl _B_2
                                     50 	.globl _B_3
                                     51 	.globl _B_4
                                     52 	.globl _B_5
                                     53 	.globl _B_6
                                     54 	.globl _B_7
                                     55 	.globl _P2IF
                                     56 	.globl _UTX0IF
                                     57 	.globl _UTX1IF
                                     58 	.globl _P1IF
                                     59 	.globl _WDTIF
                                     60 	.globl _ACC_0
                                     61 	.globl _ACC_1
                                     62 	.globl _ACC_2
                                     63 	.globl _ACC_3
                                     64 	.globl _ACC_4
                                     65 	.globl _ACC_5
                                     66 	.globl _ACC_6
                                     67 	.globl _ACC_7
                                     68 	.globl _P
                                     69 	.globl _F1
                                     70 	.globl _OV
                                     71 	.globl _RS0
                                     72 	.globl _RS1
                                     73 	.globl _F0
                                     74 	.globl _AC
                                     75 	.globl _CY
                                     76 	.globl _DMAIF
                                     77 	.globl _T1IF
                                     78 	.globl _T2IF
                                     79 	.globl _T3IF
                                     80 	.globl _T4IF
                                     81 	.globl _P0IF
                                     82 	.globl _STIF
                                     83 	.globl _DMAIE
                                     84 	.globl _T1IE
                                     85 	.globl _T2IE
                                     86 	.globl _T3IE
                                     87 	.globl _T4IE
                                     88 	.globl _P0IE
                                     89 	.globl _RFERRIE
                                     90 	.globl _ADCIE
                                     91 	.globl _URX0IE
                                     92 	.globl _URX1IE
                                     93 	.globl _ENCIE
                                     94 	.globl _STIE
                                     95 	.globl _EA
                                     96 	.globl _P2_0
                                     97 	.globl _P2_1
                                     98 	.globl _P2_2
                                     99 	.globl _P2_3
                                    100 	.globl _P2_4
                                    101 	.globl _P2_5
                                    102 	.globl _P2_6
                                    103 	.globl _P2_7
                                    104 	.globl _ENCIF_0
                                    105 	.globl _ENCIF_1
                                    106 	.globl _P1_0
                                    107 	.globl _P1_1
                                    108 	.globl _P1_2
                                    109 	.globl _P1_3
                                    110 	.globl _P1_4
                                    111 	.globl _P1_5
                                    112 	.globl _P1_6
                                    113 	.globl _P1_7
                                    114 	.globl _IT0
                                    115 	.globl _RFERRIF
                                    116 	.globl _IT1
                                    117 	.globl _URX0IF
                                    118 	.globl _ADCIF
                                    119 	.globl _URX1IF
                                    120 	.globl _P0_0
                                    121 	.globl _P0_1
                                    122 	.globl _P0_2
                                    123 	.globl _P0_3
                                    124 	.globl _P0_4
                                    125 	.globl _P0_5
                                    126 	.globl _P0_6
                                    127 	.globl _P0_7
                                    128 	.globl _WDCTL
                                    129 	.globl _U1GCR
                                    130 	.globl _U1UCR
                                    131 	.globl _U1BAUD
                                    132 	.globl _U1DBUF
                                    133 	.globl _U1CSR
                                    134 	.globl _U0GCR
                                    135 	.globl _U0UCR
                                    136 	.globl _U0BAUD
                                    137 	.globl _U0DBUF
                                    138 	.globl _U0CSR
                                    139 	.globl _TIMIF
                                    140 	.globl _T4CC1
                                    141 	.globl _T4CCTL1
                                    142 	.globl _T4CC0
                                    143 	.globl _T4CCTL0
                                    144 	.globl _T4CTL
                                    145 	.globl _T4CNT
                                    146 	.globl _T3CC1
                                    147 	.globl _T3CCTL1
                                    148 	.globl _T3CC0
                                    149 	.globl _T3CCTL0
                                    150 	.globl _T3CTL
                                    151 	.globl _T3CNT
                                    152 	.globl _T2MSEL
                                    153 	.globl _T2IRQM
                                    154 	.globl _T2MOVF2
                                    155 	.globl _T2MOVF1
                                    156 	.globl _T2MOVF0
                                    157 	.globl _T2M1
                                    158 	.globl _T2M0
                                    159 	.globl _T2IRQF
                                    160 	.globl _T2EVTCFG
                                    161 	.globl _T2CTRL
                                    162 	.globl _T1STAT
                                    163 	.globl _T1CCTL2
                                    164 	.globl _T1CCTL1
                                    165 	.globl _T1CCTL0
                                    166 	.globl _T1CTL
                                    167 	.globl _T1CNTH
                                    168 	.globl _T1CNTL
                                    169 	.globl _T1CC2H
                                    170 	.globl _T1CC2L
                                    171 	.globl _T1CC1H
                                    172 	.globl _T1CC1L
                                    173 	.globl _T1CC0H
                                    174 	.globl _T1CC0L
                                    175 	.globl _CLKCONSTA
                                    176 	.globl _CLKCONCMD
                                    177 	.globl _SLEEPSTA
                                    178 	.globl _SLEEPCMD
                                    179 	.globl _STLOAD
                                    180 	.globl _ST2
                                    181 	.globl _ST1
                                    182 	.globl _ST0
                                    183 	.globl _RFERRF
                                    184 	.globl _RFIRQF0
                                    185 	.globl _RFST
                                    186 	.globl _RFD
                                    187 	.globl _RFIRQF1
                                    188 	.globl _PSBANK
                                    189 	.globl _FMAP
                                    190 	.globl _MEMCTR
                                    191 	.globl __XPAGE
                                    192 	.globl _MPAGE
                                    193 	.globl _PMUX
                                    194 	.globl _P2DIR
                                    195 	.globl _P1DIR
                                    196 	.globl _P0DIR
                                    197 	.globl _P2INP
                                    198 	.globl _P1INP
                                    199 	.globl _P2SEL
                                    200 	.globl _P1SEL
                                    201 	.globl _P0SEL
                                    202 	.globl _APCFG
                                    203 	.globl _PERCFG
                                    204 	.globl _P0INP
                                    205 	.globl _P2IEN
                                    206 	.globl _P1IEN
                                    207 	.globl _P0IEN
                                    208 	.globl _PICTL
                                    209 	.globl _P2IFG
                                    210 	.globl _P1IFG
                                    211 	.globl _P0IFG
                                    212 	.globl _DMAREQ
                                    213 	.globl _DMAARM
                                    214 	.globl _DMA0CFGH
                                    215 	.globl _DMA0CFGL
                                    216 	.globl _DMA1CFGH
                                    217 	.globl _DMA1CFGL
                                    218 	.globl _DMAIRQ
                                    219 	.globl _ENCCS
                                    220 	.globl _ENCDO
                                    221 	.globl _ENCDI
                                    222 	.globl _RNDH
                                    223 	.globl _RNDL
                                    224 	.globl _ADCH
                                    225 	.globl _ADCL
                                    226 	.globl _ADCCON3
                                    227 	.globl _ADCCON2
                                    228 	.globl _ADCCON1
                                    229 	.globl _B
                                    230 	.globl _IRCON2
                                    231 	.globl _ACC
                                    232 	.globl _PSW
                                    233 	.globl _IRCON
                                    234 	.globl _IP1
                                    235 	.globl _IEN1
                                    236 	.globl _IP0
                                    237 	.globl _IEN0
                                    238 	.globl _P2
                                    239 	.globl _S1CON
                                    240 	.globl _IEN2
                                    241 	.globl _S0CON
                                    242 	.globl _DPS
                                    243 	.globl _P1
                                    244 	.globl _TCON
                                    245 	.globl _PCON
                                    246 	.globl _DPH1
                                    247 	.globl _DPL1
                                    248 	.globl _DPH0
                                    249 	.globl _DPL0
                                    250 	.globl _SP
                                    251 	.globl _P0
                                    252 	.globl _uip_ext_opt_offset
                                    253 	.globl _uip_ext_len
                                    254 	.globl _uip_ext_bitmap
                                    255 	.globl _uip_icmp6_conns
                                    256 	.globl _uip_udp_conns
                                    257 	.globl _uip_udp_conn
                                    258 	.globl _uip_acc32
                                    259 	.globl _uip_listenports
                                    260 	.globl _uip_conns
                                    261 	.globl _uip_conn
                                    262 	.globl _uip_flags
                                    263 	.globl _uip_slen
                                    264 	.globl _uip_len
                                    265 	.globl _uip_sappdata
                                    266 	.globl _uip_appdata
                                    267 	.globl _uip_aligned_buf
                                    268 	.globl _uip_next_hdr
                                    269 	.globl _uip_lladdr
                                    270 	.globl _X_IEEE_ADDR
                                    271 	.globl _X_INFOPAGE
                                    272 	.globl _X_P2DIR
                                    273 	.globl _X_P1DIR
                                    274 	.globl _X_P0DIR
                                    275 	.globl _X_U1GCR
                                    276 	.globl _X_U1UCR
                                    277 	.globl _X_U1BAUD
                                    278 	.globl _X_U1DBUF
                                    279 	.globl _X_U1CSR
                                    280 	.globl _X_P2INP
                                    281 	.globl _X_P1INP
                                    282 	.globl _X_P2SEL
                                    283 	.globl _X_P1SEL
                                    284 	.globl _X_P0SEL
                                    285 	.globl _X_APCFG
                                    286 	.globl _X_PERCFG
                                    287 	.globl _X_T4CC1
                                    288 	.globl _X_T4CCTL1
                                    289 	.globl _X_T4CC0
                                    290 	.globl _X_T4CCTL0
                                    291 	.globl _X_T4CTL
                                    292 	.globl _X_T4CNT
                                    293 	.globl _X_RFIRQF0
                                    294 	.globl _X_T1CCTL2
                                    295 	.globl _X_T1CCTL1
                                    296 	.globl _X_T1CCTL0
                                    297 	.globl _X_T1CTL
                                    298 	.globl _X_T1CNTH
                                    299 	.globl _X_T1CNTL
                                    300 	.globl _X_RFST
                                    301 	.globl _X_T1CC2H
                                    302 	.globl _X_T1CC2L
                                    303 	.globl _X_T1CC1H
                                    304 	.globl _X_T1CC1L
                                    305 	.globl _X_T1CC0H
                                    306 	.globl _X_T1CC0L
                                    307 	.globl _X_RFD
                                    308 	.globl _X_TIMIF
                                    309 	.globl _X_DMAREQ
                                    310 	.globl _X_DMAARM
                                    311 	.globl _X_DMA0CFGH
                                    312 	.globl _X_DMA0CFGL
                                    313 	.globl _X_DMA1CFGH
                                    314 	.globl _X_DMA1CFGL
                                    315 	.globl _X_DMAIRQ
                                    316 	.globl _X_T3CC1
                                    317 	.globl _X_T3CCTL1
                                    318 	.globl _X_T3CC0
                                    319 	.globl _X_T3CCTL0
                                    320 	.globl _X_T3CTL
                                    321 	.globl _X_T3CNT
                                    322 	.globl _X_WDCTL
                                    323 	.globl _X_MEMCTR
                                    324 	.globl _X_CLKCONCMD
                                    325 	.globl _X_U0GCR
                                    326 	.globl _X_U0UCR
                                    327 	.globl _X_T2MSEL
                                    328 	.globl _X_U0BAUD
                                    329 	.globl _X_U0DBUF
                                    330 	.globl _X_RFERRF
                                    331 	.globl _X_SLEEPCMD
                                    332 	.globl _X_RNDH
                                    333 	.globl _X_RNDL
                                    334 	.globl _X_ADCH
                                    335 	.globl _X_ADCL
                                    336 	.globl _X_ADCCON3
                                    337 	.globl _X_ADCCON2
                                    338 	.globl _X_ADCCON1
                                    339 	.globl _X_ENCCS
                                    340 	.globl _X_ENCDO
                                    341 	.globl _X_ENCDI
                                    342 	.globl _X_T1STAT
                                    343 	.globl _X_PMUX
                                    344 	.globl _X_STLOAD
                                    345 	.globl _X_P2IEN
                                    346 	.globl _X_P0IEN
                                    347 	.globl _X_T2IRQM
                                    348 	.globl _X_T2MOVF2
                                    349 	.globl _X_T2MOVF1
                                    350 	.globl _X_T2MOVF0
                                    351 	.globl _X_T2M1
                                    352 	.globl _X_T2M0
                                    353 	.globl _X_T2IRQF
                                    354 	.globl _X_P2
                                    355 	.globl _X_PSBANK
                                    356 	.globl _X_FMAP
                                    357 	.globl _X_CLKCONSTA
                                    358 	.globl _X_SLEEPSTA
                                    359 	.globl _X_T2EVTCFG
                                    360 	.globl _X_ST2
                                    361 	.globl _X_ST1
                                    362 	.globl _X_ST0
                                    363 	.globl _X_T2CTRL
                                    364 	.globl _X__XPAGE
                                    365 	.globl _X_MPAGE
                                    366 	.globl _X_RFIRQF1
                                    367 	.globl _X_P1
                                    368 	.globl _X_P0INP
                                    369 	.globl _X_P1IEN
                                    370 	.globl _X_PICTL
                                    371 	.globl _X_P2IFG
                                    372 	.globl _X_P1IFG
                                    373 	.globl _X_P0IFG
                                    374 	.globl _X_U0CSR
                                    375 	.globl _X_P0
                                    376 	.globl _USBF5
                                    377 	.globl _USBF4
                                    378 	.globl _USBF3
                                    379 	.globl _USBF2
                                    380 	.globl _USBF1
                                    381 	.globl _USBF0
                                    382 	.globl _USBCNTH
                                    383 	.globl _USBCNTL
                                    384 	.globl _USBCNT0
                                    385 	.globl _USBCSOH
                                    386 	.globl _USBCSOL
                                    387 	.globl _USBMAXO
                                    388 	.globl _USBCSIH
                                    389 	.globl _USBCSIL
                                    390 	.globl _USBCS0
                                    391 	.globl _USBMAXI
                                    392 	.globl _USBCTRL
                                    393 	.globl _USBINDEX
                                    394 	.globl _USBFRMH
                                    395 	.globl _USBFRML
                                    396 	.globl _USBCIE
                                    397 	.globl _USBOIE
                                    398 	.globl _USBIIE
                                    399 	.globl _USBCIF
                                    400 	.globl _USBOIF
                                    401 	.globl _USBIIF
                                    402 	.globl _USBPOW
                                    403 	.globl _USBADDR
                                    404 	.globl _CSPT
                                    405 	.globl _CSPZ
                                    406 	.globl _CSPY
                                    407 	.globl _CSPX
                                    408 	.globl _CSPSTAT
                                    409 	.globl _CSPCTRL
                                    410 	.globl _CSPPROG23
                                    411 	.globl _CSPPROG22
                                    412 	.globl _CSPPROG21
                                    413 	.globl _CSPPROG20
                                    414 	.globl _CSPPROG19
                                    415 	.globl _CSPPROG18
                                    416 	.globl _CSPPROG17
                                    417 	.globl _CSPPROG16
                                    418 	.globl _CSPPROG15
                                    419 	.globl _CSPPROG14
                                    420 	.globl _CSPPROG13
                                    421 	.globl _CSPPROG12
                                    422 	.globl _CSPPROG11
                                    423 	.globl _CSPPROG10
                                    424 	.globl _CSPPROG9
                                    425 	.globl _CSPPROG8
                                    426 	.globl _CSPPROG7
                                    427 	.globl _CSPPROG6
                                    428 	.globl _CSPPROG5
                                    429 	.globl _CSPPROG4
                                    430 	.globl _CSPPROG3
                                    431 	.globl _CSPPROG2
                                    432 	.globl _CSPPROG1
                                    433 	.globl _CSPPROG0
                                    434 	.globl _RFC_OBS_CTRL2
                                    435 	.globl _RFC_OBS_CTRL1
                                    436 	.globl _RFC_OBS_CTRL0
                                    437 	.globl _TXFILTCFG
                                    438 	.globl _PTEST1
                                    439 	.globl _PTEST0
                                    440 	.globl _ATEST
                                    441 	.globl _DACTEST2
                                    442 	.globl _DACTEST1
                                    443 	.globl _DACTEST0
                                    444 	.globl _MDMTEST1
                                    445 	.globl _MDMTEST0
                                    446 	.globl _ADCTEST2
                                    447 	.globl _ADCTEST1
                                    448 	.globl _ADCTEST0
                                    449 	.globl _AGCCTRL3
                                    450 	.globl _AGCCTRL2
                                    451 	.globl _AGCCTRL1
                                    452 	.globl _AGCCTRL0
                                    453 	.globl _FSCAL3
                                    454 	.globl _FSCAL2
                                    455 	.globl _FSCAL1
                                    456 	.globl _FSCAL0
                                    457 	.globl _FSCTRL
                                    458 	.globl _RXCTRL
                                    459 	.globl _FREQEST
                                    460 	.globl _MDMCTRL1
                                    461 	.globl _MDMCTRL0
                                    462 	.globl _RFRND
                                    463 	.globl _RFERRM
                                    464 	.globl _RFIRQM1
                                    465 	.globl _RFIRQM0
                                    466 	.globl _TXLAST_PTR
                                    467 	.globl _TXFIRST_PTR
                                    468 	.globl _RXP1_PTR
                                    469 	.globl _RXLAST_PTR
                                    470 	.globl _RXFIRST_PTR
                                    471 	.globl _TXFIFOCNT
                                    472 	.globl _RXFIFOCNT
                                    473 	.globl _RXFIRST
                                    474 	.globl _RSSISTAT
                                    475 	.globl _RSSI
                                    476 	.globl _CCACTRL1
                                    477 	.globl _CCACTRL0
                                    478 	.globl _FSMCTRL
                                    479 	.globl _FIFOPCTRL
                                    480 	.globl _FSMSTAT1
                                    481 	.globl _FSMSTAT0
                                    482 	.globl _TXCTRL
                                    483 	.globl _TXPOWER
                                    484 	.globl _FREQCTRL
                                    485 	.globl _FREQTUNE
                                    486 	.globl _RXMASKCLR
                                    487 	.globl _RXMASKSET
                                    488 	.globl _RXENABLE
                                    489 	.globl _FRMCTRL1
                                    490 	.globl _FRMCTRL0
                                    491 	.globl _SRCEXTEN2
                                    492 	.globl _SRCEXTEN1
                                    493 	.globl _SRCEXTEN0
                                    494 	.globl _SRCSHORTEN2
                                    495 	.globl _SRCSHORTEN1
                                    496 	.globl _SRCSHORTEN0
                                    497 	.globl _SRCMATCH
                                    498 	.globl _FRMFILT1
                                    499 	.globl _FRMFILT0
                                    500 	.globl _SHORT_ADDR1
                                    501 	.globl _SHORT_ADDR0
                                    502 	.globl _PAN_ID1
                                    503 	.globl _PAN_ID0
                                    504 	.globl _EXT_ADDR7
                                    505 	.globl _EXT_ADDR6
                                    506 	.globl _EXT_ADDR5
                                    507 	.globl _EXT_ADDR4
                                    508 	.globl _EXT_ADDR3
                                    509 	.globl _EXT_ADDR2
                                    510 	.globl _EXT_ADDR1
                                    511 	.globl _EXT_ADDR0
                                    512 	.globl _SRCSHORTPENDEN2
                                    513 	.globl _SRCSHORTPENDEN1
                                    514 	.globl _SRCSHORTPENDEN0
                                    515 	.globl _SRCEXTPENDEN2
                                    516 	.globl _SRCEXTPENDEN1
                                    517 	.globl _SRCEXTPENDEN0
                                    518 	.globl _SRCRESINDEX
                                    519 	.globl _SRCRESMASK2
                                    520 	.globl _SRCRESMASK1
                                    521 	.globl _SRCRESMASK0
                                    522 	.globl _SRC_ADDR_TABLE
                                    523 	.globl _TXFIFO
                                    524 	.globl _RXFIFO
                                    525 	.globl _RFCORE_RAM
                                    526 	.globl _CMPCTL
                                    527 	.globl _OPAMPS
                                    528 	.globl _OPAMPC
                                    529 	.globl _STCV2
                                    530 	.globl _STCV1
                                    531 	.globl _STCV0
                                    532 	.globl _STCS
                                    533 	.globl _STCC
                                    534 	.globl _T1CC4H
                                    535 	.globl _T1CC4L
                                    536 	.globl _T1CC3H
                                    537 	.globl _T1CC3L
                                    538 	.globl _XX_T1CC2H
                                    539 	.globl _XX_T1CC2L
                                    540 	.globl _XX_T1CC1H
                                    541 	.globl _XX_T1CC1L
                                    542 	.globl _XX_T1CC0H
                                    543 	.globl _XX_T1CC0L
                                    544 	.globl _T1CCTL4
                                    545 	.globl _T1CCTL3
                                    546 	.globl _XX_T1CCTL2
                                    547 	.globl _XX_T1CCTL1
                                    548 	.globl _XX_T1CCTL0
                                    549 	.globl _CLD
                                    550 	.globl _IRCTL
                                    551 	.globl _CHIPINFO1
                                    552 	.globl _CHIPINFO0
                                    553 	.globl _FWDATA
                                    554 	.globl _FADDRH
                                    555 	.globl _FADDRL
                                    556 	.globl _FCTL
                                    557 	.globl _IVCTRL
                                    558 	.globl _BATTMON
                                    559 	.globl _SRCRC
                                    560 	.globl _DBGDATA
                                    561 	.globl _TESTREG0
                                    562 	.globl _CHIPID
                                    563 	.globl _CHVER
                                    564 	.globl _OBSSEL5
                                    565 	.globl _OBSSEL4
                                    566 	.globl _OBSSEL3
                                    567 	.globl _OBSSEL2
                                    568 	.globl _OBSSEL1
                                    569 	.globl _OBSSEL0
                                    570 	.globl _I2CIO
                                    571 	.globl _I2CWC
                                    572 	.globl _I2CADDR
                                    573 	.globl _I2CDATA
                                    574 	.globl _I2CSTAT
                                    575 	.globl _I2CCFG
                                    576 	.globl _OPAMPMC
                                    577 	.globl _MONMUX
                                    578 	.globl _uip_chksum
                                    579 	.globl _uip_ipchksum
                                    580 	.globl _uip_icmp6chksum
                                    581 	.globl _uip_tcpchksum
                                    582 	.globl _uip_udpchksum
                                    583 	.globl _uip_init
                                    584 	.globl _uip_connect
                                    585 	.globl _uip_udp_new
                                    586 	.globl _uip_unlisten
                                    587 	.globl _uip_listen
                                    588 	.globl _uip_process
                                    589 	.globl _uip_htons
                                    590 	.globl _uip_htonl
                                    591 	.globl _uip_send
                                    592 ;--------------------------------------------------------
                                    593 ; special function registers
                                    594 ;--------------------------------------------------------
                                    595 	.area RSEG    (ABS,DATA)
      000000                        596 	.org 0x0000
                           000080   597 _P0	=	0x0080
                           000081   598 _SP	=	0x0081
                           000082   599 _DPL0	=	0x0082
                           000083   600 _DPH0	=	0x0083
                           000084   601 _DPL1	=	0x0084
                           000085   602 _DPH1	=	0x0085
                           000087   603 _PCON	=	0x0087
                           000088   604 _TCON	=	0x0088
                           000090   605 _P1	=	0x0090
                           000092   606 _DPS	=	0x0092
                           000098   607 _S0CON	=	0x0098
                           00009A   608 _IEN2	=	0x009a
                           00009B   609 _S1CON	=	0x009b
                           0000A0   610 _P2	=	0x00a0
                           0000A8   611 _IEN0	=	0x00a8
                           0000A9   612 _IP0	=	0x00a9
                           0000B8   613 _IEN1	=	0x00b8
                           0000B9   614 _IP1	=	0x00b9
                           0000C0   615 _IRCON	=	0x00c0
                           0000D0   616 _PSW	=	0x00d0
                           0000E0   617 _ACC	=	0x00e0
                           0000E8   618 _IRCON2	=	0x00e8
                           0000F0   619 _B	=	0x00f0
                           0000B4   620 _ADCCON1	=	0x00b4
                           0000B5   621 _ADCCON2	=	0x00b5
                           0000B6   622 _ADCCON3	=	0x00b6
                           0000BA   623 _ADCL	=	0x00ba
                           0000BB   624 _ADCH	=	0x00bb
                           0000BC   625 _RNDL	=	0x00bc
                           0000BD   626 _RNDH	=	0x00bd
                           0000B1   627 _ENCDI	=	0x00b1
                           0000B2   628 _ENCDO	=	0x00b2
                           0000B3   629 _ENCCS	=	0x00b3
                           0000D1   630 _DMAIRQ	=	0x00d1
                           0000D2   631 _DMA1CFGL	=	0x00d2
                           0000D3   632 _DMA1CFGH	=	0x00d3
                           0000D4   633 _DMA0CFGL	=	0x00d4
                           0000D5   634 _DMA0CFGH	=	0x00d5
                           0000D6   635 _DMAARM	=	0x00d6
                           0000D7   636 _DMAREQ	=	0x00d7
                           000089   637 _P0IFG	=	0x0089
                           00008A   638 _P1IFG	=	0x008a
                           00008B   639 _P2IFG	=	0x008b
                           00008C   640 _PICTL	=	0x008c
                           0000AB   641 _P0IEN	=	0x00ab
                           00008D   642 _P1IEN	=	0x008d
                           0000AC   643 _P2IEN	=	0x00ac
                           00008F   644 _P0INP	=	0x008f
                           0000F1   645 _PERCFG	=	0x00f1
                           0000F2   646 _APCFG	=	0x00f2
                           0000F3   647 _P0SEL	=	0x00f3
                           0000F4   648 _P1SEL	=	0x00f4
                           0000F5   649 _P2SEL	=	0x00f5
                           0000F6   650 _P1INP	=	0x00f6
                           0000F7   651 _P2INP	=	0x00f7
                           0000FD   652 _P0DIR	=	0x00fd
                           0000FE   653 _P1DIR	=	0x00fe
                           0000FF   654 _P2DIR	=	0x00ff
                           0000AE   655 _PMUX	=	0x00ae
                           000093   656 _MPAGE	=	0x0093
                           000093   657 __XPAGE	=	0x0093
                           0000C7   658 _MEMCTR	=	0x00c7
                           00009F   659 _FMAP	=	0x009f
                           00009F   660 _PSBANK	=	0x009f
                           000091   661 _RFIRQF1	=	0x0091
                           0000D9   662 _RFD	=	0x00d9
                           0000E1   663 _RFST	=	0x00e1
                           0000E9   664 _RFIRQF0	=	0x00e9
                           0000BF   665 _RFERRF	=	0x00bf
                           000095   666 _ST0	=	0x0095
                           000096   667 _ST1	=	0x0096
                           000097   668 _ST2	=	0x0097
                           0000AD   669 _STLOAD	=	0x00ad
                           0000BE   670 _SLEEPCMD	=	0x00be
                           00009D   671 _SLEEPSTA	=	0x009d
                           0000C6   672 _CLKCONCMD	=	0x00c6
                           00009E   673 _CLKCONSTA	=	0x009e
                           0000DA   674 _T1CC0L	=	0x00da
                           0000DB   675 _T1CC0H	=	0x00db
                           0000DC   676 _T1CC1L	=	0x00dc
                           0000DD   677 _T1CC1H	=	0x00dd
                           0000DE   678 _T1CC2L	=	0x00de
                           0000DF   679 _T1CC2H	=	0x00df
                           0000E2   680 _T1CNTL	=	0x00e2
                           0000E3   681 _T1CNTH	=	0x00e3
                           0000E4   682 _T1CTL	=	0x00e4
                           0000E5   683 _T1CCTL0	=	0x00e5
                           0000E6   684 _T1CCTL1	=	0x00e6
                           0000E7   685 _T1CCTL2	=	0x00e7
                           0000AF   686 _T1STAT	=	0x00af
                           000094   687 _T2CTRL	=	0x0094
                           00009C   688 _T2EVTCFG	=	0x009c
                           0000A1   689 _T2IRQF	=	0x00a1
                           0000A2   690 _T2M0	=	0x00a2
                           0000A3   691 _T2M1	=	0x00a3
                           0000A4   692 _T2MOVF0	=	0x00a4
                           0000A5   693 _T2MOVF1	=	0x00a5
                           0000A6   694 _T2MOVF2	=	0x00a6
                           0000A7   695 _T2IRQM	=	0x00a7
                           0000C3   696 _T2MSEL	=	0x00c3
                           0000CA   697 _T3CNT	=	0x00ca
                           0000CB   698 _T3CTL	=	0x00cb
                           0000CC   699 _T3CCTL0	=	0x00cc
                           0000CD   700 _T3CC0	=	0x00cd
                           0000CE   701 _T3CCTL1	=	0x00ce
                           0000CF   702 _T3CC1	=	0x00cf
                           0000EA   703 _T4CNT	=	0x00ea
                           0000EB   704 _T4CTL	=	0x00eb
                           0000EC   705 _T4CCTL0	=	0x00ec
                           0000ED   706 _T4CC0	=	0x00ed
                           0000EE   707 _T4CCTL1	=	0x00ee
                           0000EF   708 _T4CC1	=	0x00ef
                           0000D8   709 _TIMIF	=	0x00d8
                           000086   710 _U0CSR	=	0x0086
                           0000C1   711 _U0DBUF	=	0x00c1
                           0000C2   712 _U0BAUD	=	0x00c2
                           0000C4   713 _U0UCR	=	0x00c4
                           0000C5   714 _U0GCR	=	0x00c5
                           0000F8   715 _U1CSR	=	0x00f8
                           0000F9   716 _U1DBUF	=	0x00f9
                           0000FA   717 _U1BAUD	=	0x00fa
                           0000FB   718 _U1UCR	=	0x00fb
                           0000FC   719 _U1GCR	=	0x00fc
                           0000C9   720 _WDCTL	=	0x00c9
                                    721 ;--------------------------------------------------------
                                    722 ; special function bits
                                    723 ;--------------------------------------------------------
                                    724 	.area RSEG    (ABS,DATA)
      000000                        725 	.org 0x0000
                           000087   726 _P0_7	=	0x0087
                           000086   727 _P0_6	=	0x0086
                           000085   728 _P0_5	=	0x0085
                           000084   729 _P0_4	=	0x0084
                           000083   730 _P0_3	=	0x0083
                           000082   731 _P0_2	=	0x0082
                           000081   732 _P0_1	=	0x0081
                           000080   733 _P0_0	=	0x0080
                           00008F   734 _URX1IF	=	0x008f
                           00008D   735 _ADCIF	=	0x008d
                           00008B   736 _URX0IF	=	0x008b
                           00008A   737 _IT1	=	0x008a
                           000089   738 _RFERRIF	=	0x0089
                           000088   739 _IT0	=	0x0088
                           000097   740 _P1_7	=	0x0097
                           000096   741 _P1_6	=	0x0096
                           000095   742 _P1_5	=	0x0095
                           000094   743 _P1_4	=	0x0094
                           000093   744 _P1_3	=	0x0093
                           000092   745 _P1_2	=	0x0092
                           000091   746 _P1_1	=	0x0091
                           000090   747 _P1_0	=	0x0090
                           000099   748 _ENCIF_1	=	0x0099
                           000098   749 _ENCIF_0	=	0x0098
                           0000A7   750 _P2_7	=	0x00a7
                           0000A6   751 _P2_6	=	0x00a6
                           0000A5   752 _P2_5	=	0x00a5
                           0000A4   753 _P2_4	=	0x00a4
                           0000A3   754 _P2_3	=	0x00a3
                           0000A2   755 _P2_2	=	0x00a2
                           0000A1   756 _P2_1	=	0x00a1
                           0000A0   757 _P2_0	=	0x00a0
                           0000AF   758 _EA	=	0x00af
                           0000AD   759 _STIE	=	0x00ad
                           0000AC   760 _ENCIE	=	0x00ac
                           0000AB   761 _URX1IE	=	0x00ab
                           0000AA   762 _URX0IE	=	0x00aa
                           0000A9   763 _ADCIE	=	0x00a9
                           0000A8   764 _RFERRIE	=	0x00a8
                           0000BD   765 _P0IE	=	0x00bd
                           0000BC   766 _T4IE	=	0x00bc
                           0000BB   767 _T3IE	=	0x00bb
                           0000BA   768 _T2IE	=	0x00ba
                           0000B9   769 _T1IE	=	0x00b9
                           0000B8   770 _DMAIE	=	0x00b8
                           0000C7   771 _STIF	=	0x00c7
                           0000C5   772 _P0IF	=	0x00c5
                           0000C4   773 _T4IF	=	0x00c4
                           0000C3   774 _T3IF	=	0x00c3
                           0000C2   775 _T2IF	=	0x00c2
                           0000C1   776 _T1IF	=	0x00c1
                           0000C0   777 _DMAIF	=	0x00c0
                           0000D7   778 _CY	=	0x00d7
                           0000D6   779 _AC	=	0x00d6
                           0000D5   780 _F0	=	0x00d5
                           0000D4   781 _RS1	=	0x00d4
                           0000D3   782 _RS0	=	0x00d3
                           0000D2   783 _OV	=	0x00d2
                           0000D1   784 _F1	=	0x00d1
                           0000D0   785 _P	=	0x00d0
                           0000E7   786 _ACC_7	=	0x00e7
                           0000E6   787 _ACC_6	=	0x00e6
                           0000E5   788 _ACC_5	=	0x00e5
                           0000E4   789 _ACC_4	=	0x00e4
                           0000E3   790 _ACC_3	=	0x00e3
                           0000E2   791 _ACC_2	=	0x00e2
                           0000E1   792 _ACC_1	=	0x00e1
                           0000E0   793 _ACC_0	=	0x00e0
                           0000EC   794 _WDTIF	=	0x00ec
                           0000EB   795 _P1IF	=	0x00eb
                           0000EA   796 _UTX1IF	=	0x00ea
                           0000E9   797 _UTX0IF	=	0x00e9
                           0000E8   798 _P2IF	=	0x00e8
                           0000F7   799 _B_7	=	0x00f7
                           0000F6   800 _B_6	=	0x00f6
                           0000F5   801 _B_5	=	0x00f5
                           0000F4   802 _B_4	=	0x00f4
                           0000F3   803 _B_3	=	0x00f3
                           0000F2   804 _B_2	=	0x00f2
                           0000F1   805 _B_1	=	0x00f1
                           0000F0   806 _B_0	=	0x00f0
                           0000DE   807 _OVFIM	=	0x00de
                           0000DD   808 _T4CH1IF	=	0x00dd
                           0000DC   809 _T4CH0IF	=	0x00dc
                           0000DB   810 _T4OVFIF	=	0x00db
                           0000DA   811 _T3CH1IF	=	0x00da
                           0000D9   812 _T3CH0IF	=	0x00d9
                           0000D8   813 _T3OVFIF	=	0x00d8
                           0000FF   814 _MODE	=	0x00ff
                           0000FE   815 _RE	=	0x00fe
                           0000FD   816 _SLAVE	=	0x00fd
                           0000FC   817 _FE	=	0x00fc
                           0000FB   818 _ERR	=	0x00fb
                           0000FA   819 _RX_BYTE	=	0x00fa
                           0000F9   820 _TX_BYTE	=	0x00f9
                           0000F8   821 _ACTIVE	=	0x00f8
                                    822 ;--------------------------------------------------------
                                    823 ; overlayable register banks
                                    824 ;--------------------------------------------------------
                                    825 	.area REG_BANK_0	(REL,OVR,DATA)
      000000                        826 	.ds 8
                                    827 ;--------------------------------------------------------
                                    828 ; internal ram data
                                    829 ;--------------------------------------------------------
                                    830 	.area DSEG    (DATA)
                                    831 ;--------------------------------------------------------
                                    832 ; overlayable items in internal ram 
                                    833 ;--------------------------------------------------------
                                    834 ;--------------------------------------------------------
                                    835 ; indirectly addressable internal ram data
                                    836 ;--------------------------------------------------------
                                    837 	.area ISEG    (DATA)
                                    838 ;--------------------------------------------------------
                                    839 ; absolute internal ram data
                                    840 ;--------------------------------------------------------
                                    841 	.area IABS    (ABS,DATA)
                                    842 	.area IABS    (ABS,DATA)
                                    843 ;--------------------------------------------------------
                                    844 ; bit data
                                    845 ;--------------------------------------------------------
                                    846 	.area BSEG    (BIT)
                                    847 ;--------------------------------------------------------
                                    848 ; paged external ram data
                                    849 ;--------------------------------------------------------
                                    850 	.area PSEG    (PAG,XDATA)
                                    851 ;--------------------------------------------------------
                                    852 ; external ram data
                                    853 ;--------------------------------------------------------
                                    854 	.area XSEG    (XDATA)
                           0061A6   855 _MONMUX	=	0x61a6
                           0061A6   856 _OPAMPMC	=	0x61a6
                           006230   857 _I2CCFG	=	0x6230
                           006231   858 _I2CSTAT	=	0x6231
                           006232   859 _I2CDATA	=	0x6232
                           006233   860 _I2CADDR	=	0x6233
                           006234   861 _I2CWC	=	0x6234
                           006235   862 _I2CIO	=	0x6235
                           006243   863 _OBSSEL0	=	0x6243
                           006244   864 _OBSSEL1	=	0x6244
                           006245   865 _OBSSEL2	=	0x6245
                           006246   866 _OBSSEL3	=	0x6246
                           006247   867 _OBSSEL4	=	0x6247
                           006248   868 _OBSSEL5	=	0x6248
                           006249   869 _CHVER	=	0x6249
                           00624A   870 _CHIPID	=	0x624a
                           00624B   871 _TESTREG0	=	0x624b
                           006260   872 _DBGDATA	=	0x6260
                           006262   873 _SRCRC	=	0x6262
                           006264   874 _BATTMON	=	0x6264
                           006265   875 _IVCTRL	=	0x6265
                           006270   876 _FCTL	=	0x6270
                           006271   877 _FADDRL	=	0x6271
                           006272   878 _FADDRH	=	0x6272
                           006273   879 _FWDATA	=	0x6273
                           006276   880 _CHIPINFO0	=	0x6276
                           006277   881 _CHIPINFO1	=	0x6277
                           006281   882 _IRCTL	=	0x6281
                           006290   883 _CLD	=	0x6290
                           0062A0   884 _XX_T1CCTL0	=	0x62a0
                           0062A1   885 _XX_T1CCTL1	=	0x62a1
                           0062A2   886 _XX_T1CCTL2	=	0x62a2
                           0062A3   887 _T1CCTL3	=	0x62a3
                           0062A4   888 _T1CCTL4	=	0x62a4
                           0062A6   889 _XX_T1CC0L	=	0x62a6
                           0062A7   890 _XX_T1CC0H	=	0x62a7
                           0062A8   891 _XX_T1CC1L	=	0x62a8
                           0062A9   892 _XX_T1CC1H	=	0x62a9
                           0062AA   893 _XX_T1CC2L	=	0x62aa
                           0062AB   894 _XX_T1CC2H	=	0x62ab
                           0062AC   895 _T1CC3L	=	0x62ac
                           0062AD   896 _T1CC3H	=	0x62ad
                           0062AE   897 _T1CC4L	=	0x62ae
                           0062AF   898 _T1CC4H	=	0x62af
                           0062B0   899 _STCC	=	0x62b0
                           0062B1   900 _STCS	=	0x62b1
                           0062B2   901 _STCV0	=	0x62b2
                           0062B3   902 _STCV1	=	0x62b3
                           0062B4   903 _STCV2	=	0x62b4
                           0062C0   904 _OPAMPC	=	0x62c0
                           0062C1   905 _OPAMPS	=	0x62c1
                           0062D0   906 _CMPCTL	=	0x62d0
                           006000   907 _RFCORE_RAM	=	0x6000
                           006000   908 _RXFIFO	=	0x6000
                           006080   909 _TXFIFO	=	0x6080
                           006100   910 _SRC_ADDR_TABLE	=	0x6100
                           006160   911 _SRCRESMASK0	=	0x6160
                           006161   912 _SRCRESMASK1	=	0x6161
                           006162   913 _SRCRESMASK2	=	0x6162
                           006163   914 _SRCRESINDEX	=	0x6163
                           006164   915 _SRCEXTPENDEN0	=	0x6164
                           006165   916 _SRCEXTPENDEN1	=	0x6165
                           006166   917 _SRCEXTPENDEN2	=	0x6166
                           006167   918 _SRCSHORTPENDEN0	=	0x6167
                           006168   919 _SRCSHORTPENDEN1	=	0x6168
                           006169   920 _SRCSHORTPENDEN2	=	0x6169
                           00616A   921 _EXT_ADDR0	=	0x616a
                           00616B   922 _EXT_ADDR1	=	0x616b
                           00616C   923 _EXT_ADDR2	=	0x616c
                           00616D   924 _EXT_ADDR3	=	0x616d
                           00616E   925 _EXT_ADDR4	=	0x616e
                           00616F   926 _EXT_ADDR5	=	0x616f
                           006170   927 _EXT_ADDR6	=	0x6170
                           006171   928 _EXT_ADDR7	=	0x6171
                           006172   929 _PAN_ID0	=	0x6172
                           006173   930 _PAN_ID1	=	0x6173
                           006174   931 _SHORT_ADDR0	=	0x6174
                           006175   932 _SHORT_ADDR1	=	0x6175
                           006180   933 _FRMFILT0	=	0x6180
                           006181   934 _FRMFILT1	=	0x6181
                           006182   935 _SRCMATCH	=	0x6182
                           006183   936 _SRCSHORTEN0	=	0x6183
                           006184   937 _SRCSHORTEN1	=	0x6184
                           006185   938 _SRCSHORTEN2	=	0x6185
                           006186   939 _SRCEXTEN0	=	0x6186
                           006187   940 _SRCEXTEN1	=	0x6187
                           006188   941 _SRCEXTEN2	=	0x6188
                           006189   942 _FRMCTRL0	=	0x6189
                           00618A   943 _FRMCTRL1	=	0x618a
                           00618B   944 _RXENABLE	=	0x618b
                           00618C   945 _RXMASKSET	=	0x618c
                           00618D   946 _RXMASKCLR	=	0x618d
                           00618E   947 _FREQTUNE	=	0x618e
                           00618F   948 _FREQCTRL	=	0x618f
                           006190   949 _TXPOWER	=	0x6190
                           006191   950 _TXCTRL	=	0x6191
                           006192   951 _FSMSTAT0	=	0x6192
                           006193   952 _FSMSTAT1	=	0x6193
                           006194   953 _FIFOPCTRL	=	0x6194
                           006195   954 _FSMCTRL	=	0x6195
                           006196   955 _CCACTRL0	=	0x6196
                           006197   956 _CCACTRL1	=	0x6197
                           006198   957 _RSSI	=	0x6198
                           006199   958 _RSSISTAT	=	0x6199
                           00619A   959 _RXFIRST	=	0x619a
                           00619B   960 _RXFIFOCNT	=	0x619b
                           00619C   961 _TXFIFOCNT	=	0x619c
                           00619D   962 _RXFIRST_PTR	=	0x619d
                           00619E   963 _RXLAST_PTR	=	0x619e
                           00619F   964 _RXP1_PTR	=	0x619f
                           0061A1   965 _TXFIRST_PTR	=	0x61a1
                           0061A2   966 _TXLAST_PTR	=	0x61a2
                           0061A3   967 _RFIRQM0	=	0x61a3
                           0061A4   968 _RFIRQM1	=	0x61a4
                           0061A5   969 _RFERRM	=	0x61a5
                           0061A7   970 _RFRND	=	0x61a7
                           0061A8   971 _MDMCTRL0	=	0x61a8
                           0061A9   972 _MDMCTRL1	=	0x61a9
                           0061AA   973 _FREQEST	=	0x61aa
                           0061AB   974 _RXCTRL	=	0x61ab
                           0061AC   975 _FSCTRL	=	0x61ac
                           0061AD   976 _FSCAL0	=	0x61ad
                           0061AE   977 _FSCAL1	=	0x61ae
                           0061AF   978 _FSCAL2	=	0x61af
                           0061B0   979 _FSCAL3	=	0x61b0
                           0061B1   980 _AGCCTRL0	=	0x61b1
                           0061B2   981 _AGCCTRL1	=	0x61b2
                           0061B3   982 _AGCCTRL2	=	0x61b3
                           0061B4   983 _AGCCTRL3	=	0x61b4
                           0061B5   984 _ADCTEST0	=	0x61b5
                           0061B6   985 _ADCTEST1	=	0x61b6
                           0061B7   986 _ADCTEST2	=	0x61b7
                           0061B8   987 _MDMTEST0	=	0x61b8
                           0061B9   988 _MDMTEST1	=	0x61b9
                           0061BA   989 _DACTEST0	=	0x61ba
                           0061BB   990 _DACTEST1	=	0x61bb
                           0061BC   991 _DACTEST2	=	0x61bc
                           0061BD   992 _ATEST	=	0x61bd
                           0061BE   993 _PTEST0	=	0x61be
                           0061BF   994 _PTEST1	=	0x61bf
                           0061FA   995 _TXFILTCFG	=	0x61fa
                           0061EB   996 _RFC_OBS_CTRL0	=	0x61eb
                           0061EC   997 _RFC_OBS_CTRL1	=	0x61ec
                           0061ED   998 _RFC_OBS_CTRL2	=	0x61ed
                           0061C0   999 _CSPPROG0	=	0x61c0
                           0061C1  1000 _CSPPROG1	=	0x61c1
                           0061C2  1001 _CSPPROG2	=	0x61c2
                           0061C3  1002 _CSPPROG3	=	0x61c3
                           0061C4  1003 _CSPPROG4	=	0x61c4
                           0061C5  1004 _CSPPROG5	=	0x61c5
                           0061C6  1005 _CSPPROG6	=	0x61c6
                           0061C7  1006 _CSPPROG7	=	0x61c7
                           0061C8  1007 _CSPPROG8	=	0x61c8
                           0061C9  1008 _CSPPROG9	=	0x61c9
                           0061CA  1009 _CSPPROG10	=	0x61ca
                           0061CB  1010 _CSPPROG11	=	0x61cb
                           0061CC  1011 _CSPPROG12	=	0x61cc
                           0061CD  1012 _CSPPROG13	=	0x61cd
                           0061CE  1013 _CSPPROG14	=	0x61ce
                           0061CF  1014 _CSPPROG15	=	0x61cf
                           0061D0  1015 _CSPPROG16	=	0x61d0
                           0061D1  1016 _CSPPROG17	=	0x61d1
                           0061D2  1017 _CSPPROG18	=	0x61d2
                           0061D3  1018 _CSPPROG19	=	0x61d3
                           0061D4  1019 _CSPPROG20	=	0x61d4
                           0061D5  1020 _CSPPROG21	=	0x61d5
                           0061D6  1021 _CSPPROG22	=	0x61d6
                           0061D7  1022 _CSPPROG23	=	0x61d7
                           0061E0  1023 _CSPCTRL	=	0x61e0
                           0061E1  1024 _CSPSTAT	=	0x61e1
                           0061E2  1025 _CSPX	=	0x61e2
                           0061E3  1026 _CSPY	=	0x61e3
                           0061E4  1027 _CSPZ	=	0x61e4
                           0061E5  1028 _CSPT	=	0x61e5
                           006200  1029 _USBADDR	=	0x6200
                           006201  1030 _USBPOW	=	0x6201
                           006202  1031 _USBIIF	=	0x6202
                           006204  1032 _USBOIF	=	0x6204
                           006206  1033 _USBCIF	=	0x6206
                           006207  1034 _USBIIE	=	0x6207
                           006209  1035 _USBOIE	=	0x6209
                           00620B  1036 _USBCIE	=	0x620b
                           00620C  1037 _USBFRML	=	0x620c
                           00620D  1038 _USBFRMH	=	0x620d
                           00620E  1039 _USBINDEX	=	0x620e
                           00620F  1040 _USBCTRL	=	0x620f
                           006210  1041 _USBMAXI	=	0x6210
                           006211  1042 _USBCS0	=	0x6211
                           006211  1043 _USBCSIL	=	0x6211
                           006212  1044 _USBCSIH	=	0x6212
                           006213  1045 _USBMAXO	=	0x6213
                           006214  1046 _USBCSOL	=	0x6214
                           006215  1047 _USBCSOH	=	0x6215
                           006216  1048 _USBCNT0	=	0x6216
                           006216  1049 _USBCNTL	=	0x6216
                           006217  1050 _USBCNTH	=	0x6217
                           006220  1051 _USBF0	=	0x6220
                           006222  1052 _USBF1	=	0x6222
                           006224  1053 _USBF2	=	0x6224
                           006226  1054 _USBF3	=	0x6226
                           006228  1055 _USBF4	=	0x6228
                           00622A  1056 _USBF5	=	0x622a
                           007080  1057 _X_P0	=	0x7080
                           007086  1058 _X_U0CSR	=	0x7086
                           007089  1059 _X_P0IFG	=	0x7089
                           00708A  1060 _X_P1IFG	=	0x708a
                           00708B  1061 _X_P2IFG	=	0x708b
                           00708C  1062 _X_PICTL	=	0x708c
                           00708D  1063 _X_P1IEN	=	0x708d
                           00708F  1064 _X_P0INP	=	0x708f
                           007090  1065 _X_P1	=	0x7090
                           007091  1066 _X_RFIRQF1	=	0x7091
                           007093  1067 _X_MPAGE	=	0x7093
                           007093  1068 _X__XPAGE	=	0x7093
                           007094  1069 _X_T2CTRL	=	0x7094
                           007095  1070 _X_ST0	=	0x7095
                           007096  1071 _X_ST1	=	0x7096
                           007097  1072 _X_ST2	=	0x7097
                           00709C  1073 _X_T2EVTCFG	=	0x709c
                           00709D  1074 _X_SLEEPSTA	=	0x709d
                           00709E  1075 _X_CLKCONSTA	=	0x709e
                           00709F  1076 _X_FMAP	=	0x709f
                           00709F  1077 _X_PSBANK	=	0x709f
                           0070A0  1078 _X_P2	=	0x70a0
                           0070A1  1079 _X_T2IRQF	=	0x70a1
                           0070A2  1080 _X_T2M0	=	0x70a2
                           0070A3  1081 _X_T2M1	=	0x70a3
                           0070A4  1082 _X_T2MOVF0	=	0x70a4
                           0070A5  1083 _X_T2MOVF1	=	0x70a5
                           0070A6  1084 _X_T2MOVF2	=	0x70a6
                           0070A7  1085 _X_T2IRQM	=	0x70a7
                           0070AB  1086 _X_P0IEN	=	0x70ab
                           0070AC  1087 _X_P2IEN	=	0x70ac
                           0070AD  1088 _X_STLOAD	=	0x70ad
                           0070AE  1089 _X_PMUX	=	0x70ae
                           0070AF  1090 _X_T1STAT	=	0x70af
                           0070B1  1091 _X_ENCDI	=	0x70b1
                           0070B2  1092 _X_ENCDO	=	0x70b2
                           0070B3  1093 _X_ENCCS	=	0x70b3
                           0070B4  1094 _X_ADCCON1	=	0x70b4
                           0070B5  1095 _X_ADCCON2	=	0x70b5
                           0070B6  1096 _X_ADCCON3	=	0x70b6
                           0070BA  1097 _X_ADCL	=	0x70ba
                           0070BB  1098 _X_ADCH	=	0x70bb
                           0070BC  1099 _X_RNDL	=	0x70bc
                           0070BD  1100 _X_RNDH	=	0x70bd
                           0070BE  1101 _X_SLEEPCMD	=	0x70be
                           0070BF  1102 _X_RFERRF	=	0x70bf
                           0070C1  1103 _X_U0DBUF	=	0x70c1
                           0070C2  1104 _X_U0BAUD	=	0x70c2
                           0070C3  1105 _X_T2MSEL	=	0x70c3
                           0070C4  1106 _X_U0UCR	=	0x70c4
                           0070C5  1107 _X_U0GCR	=	0x70c5
                           0070C6  1108 _X_CLKCONCMD	=	0x70c6
                           0070C7  1109 _X_MEMCTR	=	0x70c7
                           0070C9  1110 _X_WDCTL	=	0x70c9
                           0070CA  1111 _X_T3CNT	=	0x70ca
                           0070CB  1112 _X_T3CTL	=	0x70cb
                           0070CC  1113 _X_T3CCTL0	=	0x70cc
                           0070CD  1114 _X_T3CC0	=	0x70cd
                           0070CE  1115 _X_T3CCTL1	=	0x70ce
                           0070CF  1116 _X_T3CC1	=	0x70cf
                           0070D1  1117 _X_DMAIRQ	=	0x70d1
                           0070D2  1118 _X_DMA1CFGL	=	0x70d2
                           0070D3  1119 _X_DMA1CFGH	=	0x70d3
                           0070D4  1120 _X_DMA0CFGL	=	0x70d4
                           0070D5  1121 _X_DMA0CFGH	=	0x70d5
                           0070D6  1122 _X_DMAARM	=	0x70d6
                           0070D7  1123 _X_DMAREQ	=	0x70d7
                           0070D8  1124 _X_TIMIF	=	0x70d8
                           0070D9  1125 _X_RFD	=	0x70d9
                           0070DA  1126 _X_T1CC0L	=	0x70da
                           0070DB  1127 _X_T1CC0H	=	0x70db
                           0070DC  1128 _X_T1CC1L	=	0x70dc
                           0070DD  1129 _X_T1CC1H	=	0x70dd
                           0070DE  1130 _X_T1CC2L	=	0x70de
                           0070DF  1131 _X_T1CC2H	=	0x70df
                           0070E1  1132 _X_RFST	=	0x70e1
                           0070E2  1133 _X_T1CNTL	=	0x70e2
                           0070E3  1134 _X_T1CNTH	=	0x70e3
                           0070E4  1135 _X_T1CTL	=	0x70e4
                           0070E5  1136 _X_T1CCTL0	=	0x70e5
                           0070E6  1137 _X_T1CCTL1	=	0x70e6
                           0070E7  1138 _X_T1CCTL2	=	0x70e7
                           0070E9  1139 _X_RFIRQF0	=	0x70e9
                           0070EA  1140 _X_T4CNT	=	0x70ea
                           0070EB  1141 _X_T4CTL	=	0x70eb
                           0070EC  1142 _X_T4CCTL0	=	0x70ec
                           0070ED  1143 _X_T4CC0	=	0x70ed
                           0070EE  1144 _X_T4CCTL1	=	0x70ee
                           0070EF  1145 _X_T4CC1	=	0x70ef
                           0070F1  1146 _X_PERCFG	=	0x70f1
                           0070F2  1147 _X_APCFG	=	0x70f2
                           0070F3  1148 _X_P0SEL	=	0x70f3
                           0070F4  1149 _X_P1SEL	=	0x70f4
                           0070F5  1150 _X_P2SEL	=	0x70f5
                           0070F6  1151 _X_P1INP	=	0x70f6
                           0070F7  1152 _X_P2INP	=	0x70f7
                           0070F8  1153 _X_U1CSR	=	0x70f8
                           0070F9  1154 _X_U1DBUF	=	0x70f9
                           0070FA  1155 _X_U1BAUD	=	0x70fa
                           0070FB  1156 _X_U1UCR	=	0x70fb
                           0070FC  1157 _X_U1GCR	=	0x70fc
                           0070FD  1158 _X_P0DIR	=	0x70fd
                           0070FE  1159 _X_P1DIR	=	0x70fe
                           0070FF  1160 _X_P2DIR	=	0x70ff
                           007800  1161 _X_INFOPAGE	=	0x7800
                           00780C  1162 _X_IEEE_ADDR	=	0x780c
      000000                       1163 _uip_lladdr::
      000000                       1164 	.ds 8
      000008                       1165 _uip_next_hdr::
      000008                       1166 	.ds 3
      00000B                       1167 _uip_aligned_buf::
      00000B                       1168 	.ds 240
      0000FB                       1169 _uip_appdata::
      0000FB                       1170 	.ds 3
      0000FE                       1171 _uip_sappdata::
      0000FE                       1172 	.ds 3
      000101                       1173 _uip_len::
      000101                       1174 	.ds 2
      000103                       1175 _uip_slen::
      000103                       1176 	.ds 2
      000105                       1177 _uip_flags::
      000105                       1178 	.ds 1
      000106                       1179 _uip_conn::
      000106                       1180 	.ds 3
      000109                       1181 _c:
      000109                       1182 	.ds 1
      00010A                       1183 _lastport:
      00010A                       1184 	.ds 2
      00010C                       1185 _uip_conns::
      00010C                       1186 	.ds 460
      0002D8                       1187 _uip_listenports::
      0002D8                       1188 	.ds 40
      000300                       1189 _iss:
      000300                       1190 	.ds 4
      000304                       1191 _uip_acc32::
      000304                       1192 	.ds 4
      000308                       1193 _opt:
      000308                       1194 	.ds 1
      000309                       1195 _tmp16:
      000309                       1196 	.ds 2
      00030B                       1197 _uip_udp_conn::
      00030B                       1198 	.ds 3
      00030E                       1199 _uip_udp_conns::
      00030E                       1200 	.ds 270
      00041C                       1201 _uip_icmp6_conns::
      00041C                       1202 	.ds 6
      000422                       1203 _chksum_t_1_227:
      000422                       1204 	.ds 2
      000424                       1205 _chksum_dataptr_1_227:
      000424                       1206 	.ds 3
      000427                       1207 _chksum_last_byte_1_227:
      000427                       1208 	.ds 3
      00042A                       1209 _uip_ipchksum_sum_1_235:
      00042A                       1210 	.ds 2
      00042C                       1211 _upper_layer_chksum_upper_layer_len_1_237:
      00042C                       1212 	.ds 2
      00042E                       1213 _upper_layer_chksum_sum_1_237:
      00042E                       1214 	.ds 2
      000430                       1215 _uip_send_copylen_1_423:
      000430                       1216 	.ds 2
                                   1217 ;--------------------------------------------------------
                                   1218 ; absolute external ram data
                                   1219 ;--------------------------------------------------------
                                   1220 	.area XABS    (ABS,XDATA)
                                   1221 ;--------------------------------------------------------
                                   1222 ; external initialized ram data
                                   1223 ;--------------------------------------------------------
                                   1224 	.area XISEG   (XDATA)
      000000                       1225 _uip_ext_bitmap::
      000000                       1226 	.ds 1
      000001                       1227 _uip_ext_len::
      000001                       1228 	.ds 1
      000002                       1229 _uip_ext_opt_offset::
      000002                       1230 	.ds 1
                                   1231 	.area HOME    (CODE)
                                   1232 	.area GSINIT0 (CODE)
                                   1233 	.area GSINIT1 (CODE)
                                   1234 	.area GSINIT2 (CODE)
                                   1235 	.area GSINIT3 (CODE)
                                   1236 	.area GSINIT4 (CODE)
                                   1237 	.area GSINIT5 (CODE)
                                   1238 	.area GSINIT  (CODE)
                                   1239 	.area GSFINAL (CODE)
                                   1240 	.area CSEG    (CODE)
                                   1241 ;--------------------------------------------------------
                                   1242 ; global & static initialisations
                                   1243 ;--------------------------------------------------------
                                   1244 	.area HOME    (CODE)
                                   1245 	.area GSINIT  (CODE)
                                   1246 	.area GSFINAL (CODE)
                                   1247 	.area GSINIT  (CODE)
                                   1248 ;--------------------------------------------------------
                                   1249 ; Home
                                   1250 ;--------------------------------------------------------
                                   1251 	.area HOME    (CODE)
                                   1252 	.area HOME    (CODE)
                                   1253 ;--------------------------------------------------------
                                   1254 ; code
                                   1255 ;--------------------------------------------------------
                                   1256 	.area BANK1   (CODE)
                                   1257 ;------------------------------------------------------------
                                   1258 ;Allocation info for local variables in function 'uip_add32'
                                   1259 ;------------------------------------------------------------
                                   1260 ;op16                      Allocated to stack - sp -7
                                   1261 ;op32                      Allocated to stack - sp -2
                                   1262 ;------------------------------------------------------------
                                   1263 ;	../../../../core/net/uip6.c:271: uip_add32(uint8_t *op32, uint16_t op16)
                                   1264 ;	-----------------------------------------
                                   1265 ;	 function uip_add32
                                   1266 ;	-----------------------------------------
      000000                       1267 _uip_add32:
                           000007  1268 	ar7 = 0x07
                           000006  1269 	ar6 = 0x06
                           000005  1270 	ar5 = 0x05
                           000004  1271 	ar4 = 0x04
                           000003  1272 	ar3 = 0x03
                           000002  1273 	ar2 = 0x02
                           000001  1274 	ar1 = 0x01
                           000000  1275 	ar0 = 0x00
      000000 C0 82            [24] 1276 	push	dpl
      000002 C0 83            [24] 1277 	push	dph
      000004 C0 F0            [24] 1278 	push	b
                                   1279 ;	../../../../core/net/uip6.c:273: uip_acc32[3] = op32[3] + (op16 & 0xff);
      000006 A8 81            [24] 1280 	mov	r0,sp
      000008 18               [12] 1281 	dec	r0
      000009 18               [12] 1282 	dec	r0
      00000A 74 03            [12] 1283 	mov	a,#0x03
      00000C 26               [12] 1284 	add	a,@r0
      00000D FA               [12] 1285 	mov	r2,a
      00000E E4               [12] 1286 	clr	a
      00000F 08               [12] 1287 	inc	r0
      000010 36               [12] 1288 	addc	a,@r0
      000011 FB               [12] 1289 	mov	r3,a
      000012 08               [12] 1290 	inc	r0
      000013 86 04            [24] 1291 	mov	ar4,@r0
      000015 8A 82            [24] 1292 	mov	dpl,r2
      000017 8B 83            [24] 1293 	mov	dph,r3
      000019 8C F0            [24] 1294 	mov	b,r4
      00001B 12r00r00         [24] 1295 	lcall	__gptrget
      00001E FA               [12] 1296 	mov	r2,a
      00001F E5 81            [12] 1297 	mov	a,sp
      000021 24 F9            [12] 1298 	add	a,#0xf9
      000023 F8               [12] 1299 	mov	r0,a
      000024 86 03            [24] 1300 	mov	ar3,@r0
      000026 EB               [12] 1301 	mov	a,r3
      000027 2A               [12] 1302 	add	a,r2
      000028 90r03r07         [24] 1303 	mov	dptr,#(_uip_acc32 + 0x0003)
      00002B F0               [24] 1304 	movx	@dptr,a
                                   1305 ;	../../../../core/net/uip6.c:274: uip_acc32[2] = op32[2] + (op16 >> 8);
      00002C A8 81            [24] 1306 	mov	r0,sp
      00002E 18               [12] 1307 	dec	r0
      00002F 18               [12] 1308 	dec	r0
      000030 74 02            [12] 1309 	mov	a,#0x02
      000032 26               [12] 1310 	add	a,@r0
      000033 FA               [12] 1311 	mov	r2,a
      000034 E4               [12] 1312 	clr	a
      000035 08               [12] 1313 	inc	r0
      000036 36               [12] 1314 	addc	a,@r0
      000037 FB               [12] 1315 	mov	r3,a
      000038 08               [12] 1316 	inc	r0
      000039 86 04            [24] 1317 	mov	ar4,@r0
      00003B 8A 82            [24] 1318 	mov	dpl,r2
      00003D 8B 83            [24] 1319 	mov	dph,r3
      00003F 8C F0            [24] 1320 	mov	b,r4
      000041 12r00r00         [24] 1321 	lcall	__gptrget
      000044 FA               [12] 1322 	mov	r2,a
      000045 E5 81            [12] 1323 	mov	a,sp
      000047 24 F9            [12] 1324 	add	a,#0xf9
      000049 F8               [12] 1325 	mov	r0,a
      00004A 08               [12] 1326 	inc	r0
      00004B E6               [12] 1327 	mov	a,@r0
      00004C 2A               [12] 1328 	add	a,r2
      00004D FA               [12] 1329 	mov	r2,a
      00004E 90r03r06         [24] 1330 	mov	dptr,#(_uip_acc32 + 0x0002)
      000051 F0               [24] 1331 	movx	@dptr,a
                                   1332 ;	../../../../core/net/uip6.c:275: uip_acc32[1] = op32[1];
      000052 A8 81            [24] 1333 	mov	r0,sp
      000054 18               [12] 1334 	dec	r0
      000055 18               [12] 1335 	dec	r0
      000056 74 01            [12] 1336 	mov	a,#0x01
      000058 26               [12] 1337 	add	a,@r0
      000059 FB               [12] 1338 	mov	r3,a
      00005A E4               [12] 1339 	clr	a
      00005B 08               [12] 1340 	inc	r0
      00005C 36               [12] 1341 	addc	a,@r0
      00005D FC               [12] 1342 	mov	r4,a
      00005E 08               [12] 1343 	inc	r0
      00005F 86 07            [24] 1344 	mov	ar7,@r0
      000061 8B 82            [24] 1345 	mov	dpl,r3
      000063 8C 83            [24] 1346 	mov	dph,r4
      000065 8F F0            [24] 1347 	mov	b,r7
      000067 12r00r00         [24] 1348 	lcall	__gptrget
      00006A FB               [12] 1349 	mov	r3,a
      00006B 90r03r05         [24] 1350 	mov	dptr,#(_uip_acc32 + 0x0001)
      00006E F0               [24] 1351 	movx	@dptr,a
                                   1352 ;	../../../../core/net/uip6.c:276: uip_acc32[0] = op32[0];
      00006F A8 81            [24] 1353 	mov	r0,sp
      000071 18               [12] 1354 	dec	r0
      000072 18               [12] 1355 	dec	r0
      000073 86 82            [24] 1356 	mov	dpl,@r0
      000075 08               [12] 1357 	inc	r0
      000076 86 83            [24] 1358 	mov	dph,@r0
      000078 08               [12] 1359 	inc	r0
      000079 86 F0            [24] 1360 	mov	b,@r0
      00007B 12r00r00         [24] 1361 	lcall	__gptrget
      00007E 90r03r04         [24] 1362 	mov	dptr,#_uip_acc32
      000081 F0               [24] 1363 	movx	@dptr,a
                                   1364 ;	../../../../core/net/uip6.c:278: if(uip_acc32[2] < (op16 >> 8)) {
      000082 E5 81            [12] 1365 	mov	a,sp
      000084 24 F9            [12] 1366 	add	a,#0xf9
      000086 F8               [12] 1367 	mov	r0,a
      000087 08               [12] 1368 	inc	r0
      000088 86 06            [24] 1369 	mov	ar6,@r0
      00008A 7F 00            [12] 1370 	mov	r7,#0x00
      00008C 7D 00            [12] 1371 	mov	r5,#0x00
      00008E C3               [12] 1372 	clr	c
      00008F EA               [12] 1373 	mov	a,r2
      000090 9E               [12] 1374 	subb	a,r6
      000091 ED               [12] 1375 	mov	a,r5
      000092 9F               [12] 1376 	subb	a,r7
      000093 50 19            [24] 1377 	jnc	00104$
                                   1378 ;	../../../../core/net/uip6.c:279: ++uip_acc32[1];
      000095 90r03r05         [24] 1379 	mov	dptr,#(_uip_acc32 + 0x0001)
      000098 E0               [24] 1380 	movx	a,@dptr
      000099 FF               [12] 1381 	mov	r7,a
      00009A 0F               [12] 1382 	inc	r7
      00009B 90r03r05         [24] 1383 	mov	dptr,#(_uip_acc32 + 0x0001)
      00009E EF               [12] 1384 	mov	a,r7
      00009F F0               [24] 1385 	movx	@dptr,a
                                   1386 ;	../../../../core/net/uip6.c:280: if(uip_acc32[1] == 0) {
      0000A0 EF               [12] 1387 	mov	a,r7
      0000A1 70 0B            [24] 1388 	jnz	00104$
                                   1389 ;	../../../../core/net/uip6.c:281: ++uip_acc32[0];
      0000A3 90r03r04         [24] 1390 	mov	dptr,#_uip_acc32
      0000A6 E0               [24] 1391 	movx	a,@dptr
      0000A7 FF               [12] 1392 	mov	r7,a
      0000A8 0F               [12] 1393 	inc	r7
      0000A9 90r03r04         [24] 1394 	mov	dptr,#_uip_acc32
      0000AC EF               [12] 1395 	mov	a,r7
      0000AD F0               [24] 1396 	movx	@dptr,a
      0000AE                       1397 00104$:
                                   1398 ;	../../../../core/net/uip6.c:286: if(uip_acc32[3] < (op16 & 0xff)) {
      0000AE 90r03r07         [24] 1399 	mov	dptr,#(_uip_acc32 + 0x0003)
      0000B1 E0               [24] 1400 	movx	a,@dptr
      0000B2 FF               [12] 1401 	mov	r7,a
      0000B3 E5 81            [12] 1402 	mov	a,sp
      0000B5 24 F9            [12] 1403 	add	a,#0xf9
      0000B7 F8               [12] 1404 	mov	r0,a
      0000B8 86 05            [24] 1405 	mov	ar5,@r0
      0000BA 7E 00            [12] 1406 	mov	r6,#0x00
      0000BC 7C 00            [12] 1407 	mov	r4,#0x00
      0000BE C3               [12] 1408 	clr	c
      0000BF EF               [12] 1409 	mov	a,r7
      0000C0 9D               [12] 1410 	subb	a,r5
      0000C1 EC               [12] 1411 	mov	a,r4
      0000C2 9E               [12] 1412 	subb	a,r6
      0000C3 50 27            [24] 1413 	jnc	00111$
                                   1414 ;	../../../../core/net/uip6.c:287: ++uip_acc32[2];
      0000C5 90r03r06         [24] 1415 	mov	dptr,#(_uip_acc32 + 0x0002)
      0000C8 E0               [24] 1416 	movx	a,@dptr
      0000C9 FF               [12] 1417 	mov	r7,a
      0000CA 0F               [12] 1418 	inc	r7
      0000CB 90r03r06         [24] 1419 	mov	dptr,#(_uip_acc32 + 0x0002)
      0000CE EF               [12] 1420 	mov	a,r7
      0000CF F0               [24] 1421 	movx	@dptr,a
                                   1422 ;	../../../../core/net/uip6.c:288: if(uip_acc32[2] == 0) {
      0000D0 EF               [12] 1423 	mov	a,r7
      0000D1 70 19            [24] 1424 	jnz	00111$
                                   1425 ;	../../../../core/net/uip6.c:289: ++uip_acc32[1];
      0000D3 90r03r05         [24] 1426 	mov	dptr,#(_uip_acc32 + 0x0001)
      0000D6 E0               [24] 1427 	movx	a,@dptr
      0000D7 FF               [12] 1428 	mov	r7,a
      0000D8 0F               [12] 1429 	inc	r7
      0000D9 90r03r05         [24] 1430 	mov	dptr,#(_uip_acc32 + 0x0001)
      0000DC EF               [12] 1431 	mov	a,r7
      0000DD F0               [24] 1432 	movx	@dptr,a
                                   1433 ;	../../../../core/net/uip6.c:290: if(uip_acc32[1] == 0) {
      0000DE EF               [12] 1434 	mov	a,r7
      0000DF 70 0B            [24] 1435 	jnz	00111$
                                   1436 ;	../../../../core/net/uip6.c:291: ++uip_acc32[0];
      0000E1 90r03r04         [24] 1437 	mov	dptr,#_uip_acc32
      0000E4 E0               [24] 1438 	movx	a,@dptr
      0000E5 FF               [12] 1439 	mov	r7,a
      0000E6 0F               [12] 1440 	inc	r7
      0000E7 90r03r04         [24] 1441 	mov	dptr,#_uip_acc32
      0000EA EF               [12] 1442 	mov	a,r7
      0000EB F0               [24] 1443 	movx	@dptr,a
      0000EC                       1444 00111$:
      0000EC 15 81            [12] 1445 	dec	sp
      0000EE 15 81            [12] 1446 	dec	sp
      0000F0 15 81            [12] 1447 	dec	sp
      0000F2 02r00r00         [24] 1448 	ljmp	__sdcc_banked_ret
                                   1449 ;------------------------------------------------------------
                                   1450 ;Allocation info for local variables in function 'chksum'
                                   1451 ;------------------------------------------------------------
                                   1452 ;data                      Allocated to stack - sp -13
                                   1453 ;len                       Allocated to stack - sp -15
                                   1454 ;sum                       Allocated to stack - sp -7
                                   1455 ;sloc0                     Allocated to stack - sp -5
                                   1456 ;sloc1                     Allocated to stack - sp -2
                                   1457 ;t                         Allocated with name '_chksum_t_1_227'
                                   1458 ;dataptr                   Allocated with name '_chksum_dataptr_1_227'
                                   1459 ;last_byte                 Allocated with name '_chksum_last_byte_1_227'
                                   1460 ;------------------------------------------------------------
                                   1461 ;	../../../../core/net/uip6.c:302: chksum(uint16_t sum, const uint8_t *data, uint16_t len)
                                   1462 ;	-----------------------------------------
                                   1463 ;	 function chksum
                                   1464 ;	-----------------------------------------
      0000F5                       1465 _chksum:
      0000F5 C0 82            [24] 1466 	push	dpl
      0000F7 C0 83            [24] 1467 	push	dph
      0000F9 E5 81            [12] 1468 	mov	a,sp
      0000FB 24 06            [12] 1469 	add	a,#0x06
                                   1470 ;	../../../../core/net/uip6.c:308: dataptr = data;
      0000FD F5 81            [12] 1471 	mov	sp,a
      0000FF 24 F3            [12] 1472 	add	a,#0xf3
      000101 F8               [12] 1473 	mov	r0,a
      000102 86 03            [24] 1474 	mov	ar3,@r0
      000104 08               [12] 1475 	inc	r0
      000105 86 04            [24] 1476 	mov	ar4,@r0
      000107 08               [12] 1477 	inc	r0
      000108 86 05            [24] 1478 	mov	ar5,@r0
      00010A 90r04r24         [24] 1479 	mov	dptr,#_chksum_dataptr_1_227
      00010D EB               [12] 1480 	mov	a,r3
      00010E F0               [24] 1481 	movx	@dptr,a
      00010F EC               [12] 1482 	mov	a,r4
      000110 A3               [24] 1483 	inc	dptr
      000111 F0               [24] 1484 	movx	@dptr,a
      000112 ED               [12] 1485 	mov	a,r5
      000113 A3               [24] 1486 	inc	dptr
      000114 F0               [24] 1487 	movx	@dptr,a
                                   1488 ;	../../../../core/net/uip6.c:309: last_byte = data + len - 1;
      000115 E5 81            [12] 1489 	mov	a,sp
      000117 24 F1            [12] 1490 	add	a,#0xf1
      000119 F8               [12] 1491 	mov	r0,a
      00011A E6               [12] 1492 	mov	a,@r0
      00011B 2B               [12] 1493 	add	a,r3
      00011C FB               [12] 1494 	mov	r3,a
      00011D 08               [12] 1495 	inc	r0
      00011E E6               [12] 1496 	mov	a,@r0
      00011F 3C               [12] 1497 	addc	a,r4
      000120 FC               [12] 1498 	mov	r4,a
      000121 1B               [12] 1499 	dec	r3
      000122 BB FF 01         [24] 1500 	cjne	r3,#0xFF,00127$
      000125 1C               [12] 1501 	dec	r4
      000126                       1502 00127$:
      000126 90r04r27         [24] 1503 	mov	dptr,#_chksum_last_byte_1_227
      000129 EB               [12] 1504 	mov	a,r3
      00012A F0               [24] 1505 	movx	@dptr,a
      00012B EC               [12] 1506 	mov	a,r4
      00012C A3               [24] 1507 	inc	dptr
      00012D F0               [24] 1508 	movx	@dptr,a
      00012E ED               [12] 1509 	mov	a,r5
      00012F A3               [24] 1510 	inc	dptr
      000130 F0               [24] 1511 	movx	@dptr,a
                                   1512 ;	../../../../core/net/uip6.c:311: while(dataptr < last_byte) {   /* At least two more bytes */
      000131 E5 81            [12] 1513 	mov	a,sp
      000133 24 FB            [12] 1514 	add	a,#0xfb
      000135 F8               [12] 1515 	mov	r0,a
      000136 A6 03            [24] 1516 	mov	@r0,ar3
      000138 08               [12] 1517 	inc	r0
      000139 A6 04            [24] 1518 	mov	@r0,ar4
      00013B 08               [12] 1519 	inc	r0
      00013C A6 05            [24] 1520 	mov	@r0,ar5
      00013E                       1521 00103$:
      00013E 90r04r24         [24] 1522 	mov	dptr,#_chksum_dataptr_1_227
      000141 A8 81            [24] 1523 	mov	r0,sp
      000143 18               [12] 1524 	dec	r0
      000144 18               [12] 1525 	dec	r0
      000145 E0               [24] 1526 	movx	a,@dptr
      000146 F6               [12] 1527 	mov	@r0,a
      000147 A3               [24] 1528 	inc	dptr
      000148 E0               [24] 1529 	movx	a,@dptr
      000149 08               [12] 1530 	inc	r0
      00014A F6               [12] 1531 	mov	@r0,a
      00014B A3               [24] 1532 	inc	dptr
      00014C E0               [24] 1533 	movx	a,@dptr
      00014D 08               [12] 1534 	inc	r0
      00014E F6               [12] 1535 	mov	@r0,a
      00014F A8 81            [24] 1536 	mov	r0,sp
      000151 18               [12] 1537 	dec	r0
      000152 18               [12] 1538 	dec	r0
      000153 E5 81            [12] 1539 	mov	a,sp
      000155 24 FB            [12] 1540 	add	a,#0xfb
      000157 F9               [12] 1541 	mov	r1,a
      000158 E7               [12] 1542 	mov	a,@r1
      000159 C0 E0            [24] 1543 	push	acc
      00015B 09               [12] 1544 	inc	r1
      00015C E7               [12] 1545 	mov	a,@r1
      00015D C0 E0            [24] 1546 	push	acc
      00015F 09               [12] 1547 	inc	r1
      000160 E7               [12] 1548 	mov	a,@r1
      000161 C0 E0            [24] 1549 	push	acc
      000163 86 82            [24] 1550 	mov	dpl,@r0
      000165 08               [12] 1551 	inc	r0
      000166 86 83            [24] 1552 	mov	dph,@r0
      000168 08               [12] 1553 	inc	r0
      000169 86 F0            [24] 1554 	mov	b,@r0
      00016B 12r00r00         [24] 1555 	lcall	___gptr_cmp
      00016E 15 81            [12] 1556 	dec	sp
      000170 15 81            [12] 1557 	dec	sp
      000172 15 81            [12] 1558 	dec	sp
      000174 40 03            [24] 1559 	jc	00128$
      000176 02r02r00         [24] 1560 	ljmp	00105$
      000179                       1561 00128$:
                                   1562 ;	../../../../core/net/uip6.c:312: t = (dataptr[0] << 8) + dataptr[1];
      000179 C0 03            [24] 1563 	push	ar3
      00017B C0 04            [24] 1564 	push	ar4
      00017D C0 05            [24] 1565 	push	ar5
      00017F E5 81            [12] 1566 	mov	a,sp
      000181 24 FB            [12] 1567 	add	a,#0xfb
      000183 F8               [12] 1568 	mov	r0,a
      000184 86 82            [24] 1569 	mov	dpl,@r0
      000186 08               [12] 1570 	inc	r0
      000187 86 83            [24] 1571 	mov	dph,@r0
      000189 08               [12] 1572 	inc	r0
      00018A 86 F0            [24] 1573 	mov	b,@r0
      00018C 12r00r00         [24] 1574 	lcall	__gptrget
      00018F FD               [12] 1575 	mov	r5,a
      000190 7A 00            [12] 1576 	mov	r2,#0x00
      000192 E5 81            [12] 1577 	mov	a,sp
      000194 24 FB            [12] 1578 	add	a,#0xfb
      000196 F8               [12] 1579 	mov	r0,a
      000197 74 01            [12] 1580 	mov	a,#0x01
      000199 26               [12] 1581 	add	a,@r0
      00019A FB               [12] 1582 	mov	r3,a
      00019B E4               [12] 1583 	clr	a
      00019C 08               [12] 1584 	inc	r0
      00019D 36               [12] 1585 	addc	a,@r0
      00019E FC               [12] 1586 	mov	r4,a
      00019F 08               [12] 1587 	inc	r0
      0001A0 86 07            [24] 1588 	mov	ar7,@r0
      0001A2 8B 82            [24] 1589 	mov	dpl,r3
      0001A4 8C 83            [24] 1590 	mov	dph,r4
      0001A6 8F F0            [24] 1591 	mov	b,r7
      0001A8 12r00r00         [24] 1592 	lcall	__gptrget
      0001AB 7F 00            [12] 1593 	mov	r7,#0x00
      0001AD 2A               [12] 1594 	add	a,r2
      0001AE FA               [12] 1595 	mov	r2,a
      0001AF EF               [12] 1596 	mov	a,r7
      0001B0 3D               [12] 1597 	addc	a,r5
      0001B1 FD               [12] 1598 	mov	r5,a
      0001B2 90r04r22         [24] 1599 	mov	dptr,#_chksum_t_1_227
      0001B5 EA               [12] 1600 	mov	a,r2
      0001B6 F0               [24] 1601 	movx	@dptr,a
      0001B7 ED               [12] 1602 	mov	a,r5
      0001B8 A3               [24] 1603 	inc	dptr
      0001B9 F0               [24] 1604 	movx	@dptr,a
                                   1605 ;	../../../../core/net/uip6.c:313: sum += t;
      0001BA E5 81            [12] 1606 	mov	a,sp
      0001BC 24 F6            [12] 1607 	add	a,#0xf6
      0001BE F8               [12] 1608 	mov	r0,a
      0001BF EA               [12] 1609 	mov	a,r2
      0001C0 26               [12] 1610 	add	a,@r0
      0001C1 F6               [12] 1611 	mov	@r0,a
      0001C2 ED               [12] 1612 	mov	a,r5
      0001C3 08               [12] 1613 	inc	r0
      0001C4 36               [12] 1614 	addc	a,@r0
      0001C5 F6               [12] 1615 	mov	@r0,a
                                   1616 ;	../../../../core/net/uip6.c:314: if(sum < t) {
      0001C6 E5 81            [12] 1617 	mov	a,sp
      0001C8 24 F6            [12] 1618 	add	a,#0xf6
      0001CA F8               [12] 1619 	mov	r0,a
      0001CB C3               [12] 1620 	clr	c
      0001CC E6               [12] 1621 	mov	a,@r0
      0001CD 9A               [12] 1622 	subb	a,r2
      0001CE 08               [12] 1623 	inc	r0
      0001CF E6               [12] 1624 	mov	a,@r0
      0001D0 9D               [12] 1625 	subb	a,r5
      0001D1 D0 05            [24] 1626 	pop	ar5
      0001D3 D0 04            [24] 1627 	pop	ar4
      0001D5 D0 03            [24] 1628 	pop	ar3
      0001D7 50 0B            [24] 1629 	jnc	00102$
                                   1630 ;	../../../../core/net/uip6.c:315: sum++;      /* carry */
      0001D9 E5 81            [12] 1631 	mov	a,sp
      0001DB 24 F9            [12] 1632 	add	a,#0xf9
      0001DD F8               [12] 1633 	mov	r0,a
      0001DE 06               [12] 1634 	inc	@r0
      0001DF B6 00 02         [24] 1635 	cjne	@r0,#0x00,00130$
      0001E2 08               [12] 1636 	inc	r0
      0001E3 06               [12] 1637 	inc	@r0
      0001E4                       1638 00130$:
      0001E4                       1639 00102$:
                                   1640 ;	../../../../core/net/uip6.c:317: dataptr += 2;
      0001E4 90r04r24         [24] 1641 	mov	dptr,#_chksum_dataptr_1_227
      0001E7 E0               [24] 1642 	movx	a,@dptr
      0001E8 FA               [12] 1643 	mov	r2,a
      0001E9 A3               [24] 1644 	inc	dptr
      0001EA E0               [24] 1645 	movx	a,@dptr
      0001EB FE               [12] 1646 	mov	r6,a
      0001EC A3               [24] 1647 	inc	dptr
      0001ED E0               [24] 1648 	movx	a,@dptr
      0001EE FF               [12] 1649 	mov	r7,a
      0001EF 90r04r24         [24] 1650 	mov	dptr,#_chksum_dataptr_1_227
      0001F2 74 02            [12] 1651 	mov	a,#0x02
      0001F4 2A               [12] 1652 	add	a,r2
      0001F5 F0               [24] 1653 	movx	@dptr,a
      0001F6 E4               [12] 1654 	clr	a
      0001F7 3E               [12] 1655 	addc	a,r6
      0001F8 A3               [24] 1656 	inc	dptr
      0001F9 F0               [24] 1657 	movx	@dptr,a
      0001FA EF               [12] 1658 	mov	a,r7
      0001FB A3               [24] 1659 	inc	dptr
      0001FC F0               [24] 1660 	movx	@dptr,a
      0001FD 02r01r3E         [24] 1661 	ljmp	00103$
      000200                       1662 00105$:
                                   1663 ;	../../../../core/net/uip6.c:320: if(dataptr == last_byte) {
      000200 A8 81            [24] 1664 	mov	r0,sp
      000202 18               [12] 1665 	dec	r0
      000203 18               [12] 1666 	dec	r0
      000204 C0 03            [24] 1667 	push	ar3
      000206 C0 04            [24] 1668 	push	ar4
      000208 C0 05            [24] 1669 	push	ar5
      00020A 86 82            [24] 1670 	mov	dpl,@r0
      00020C 08               [12] 1671 	inc	r0
      00020D 86 83            [24] 1672 	mov	dph,@r0
      00020F 08               [12] 1673 	inc	r0
      000210 86 F0            [24] 1674 	mov	b,@r0
      000212 12r00r00         [24] 1675 	lcall	___gptr_cmp
      000215 15 81            [12] 1676 	dec	sp
      000217 15 81            [12] 1677 	dec	sp
      000219 15 81            [12] 1678 	dec	sp
      00021B 70 3E            [24] 1679 	jnz	00109$
                                   1680 ;	../../../../core/net/uip6.c:321: t = (dataptr[0] << 8) + 0;
      00021D A8 81            [24] 1681 	mov	r0,sp
      00021F 18               [12] 1682 	dec	r0
      000220 18               [12] 1683 	dec	r0
      000221 86 82            [24] 1684 	mov	dpl,@r0
      000223 08               [12] 1685 	inc	r0
      000224 86 83            [24] 1686 	mov	dph,@r0
      000226 08               [12] 1687 	inc	r0
      000227 86 F0            [24] 1688 	mov	b,@r0
      000229 12r00r00         [24] 1689 	lcall	__gptrget
      00022C FE               [12] 1690 	mov	r6,a
      00022D 7F 00            [12] 1691 	mov	r7,#0x00
      00022F 90r04r22         [24] 1692 	mov	dptr,#_chksum_t_1_227
      000232 EF               [12] 1693 	mov	a,r7
      000233 F0               [24] 1694 	movx	@dptr,a
      000234 EE               [12] 1695 	mov	a,r6
      000235 A3               [24] 1696 	inc	dptr
      000236 F0               [24] 1697 	movx	@dptr,a
                                   1698 ;	../../../../core/net/uip6.c:322: sum += t;
      000237 E5 81            [12] 1699 	mov	a,sp
      000239 24 F9            [12] 1700 	add	a,#0xf9
      00023B F8               [12] 1701 	mov	r0,a
      00023C EF               [12] 1702 	mov	a,r7
      00023D 26               [12] 1703 	add	a,@r0
      00023E F6               [12] 1704 	mov	@r0,a
      00023F EE               [12] 1705 	mov	a,r6
      000240 08               [12] 1706 	inc	r0
      000241 36               [12] 1707 	addc	a,@r0
      000242 F6               [12] 1708 	mov	@r0,a
                                   1709 ;	../../../../core/net/uip6.c:323: if(sum < t) {
      000243 E5 81            [12] 1710 	mov	a,sp
      000245 24 F9            [12] 1711 	add	a,#0xf9
      000247 F8               [12] 1712 	mov	r0,a
      000248 C3               [12] 1713 	clr	c
      000249 E6               [12] 1714 	mov	a,@r0
      00024A 9F               [12] 1715 	subb	a,r7
      00024B 08               [12] 1716 	inc	r0
      00024C E6               [12] 1717 	mov	a,@r0
      00024D 9E               [12] 1718 	subb	a,r6
      00024E 50 0B            [24] 1719 	jnc	00109$
                                   1720 ;	../../../../core/net/uip6.c:324: sum++;      /* carry */
      000250 E5 81            [12] 1721 	mov	a,sp
      000252 24 F9            [12] 1722 	add	a,#0xf9
      000254 F8               [12] 1723 	mov	r0,a
      000255 06               [12] 1724 	inc	@r0
      000256 B6 00 02         [24] 1725 	cjne	@r0,#0x00,00134$
      000259 08               [12] 1726 	inc	r0
      00025A 06               [12] 1727 	inc	@r0
      00025B                       1728 00134$:
      00025B                       1729 00109$:
                                   1730 ;	../../../../core/net/uip6.c:329: return sum;
      00025B E5 81            [12] 1731 	mov	a,sp
      00025D 24 F9            [12] 1732 	add	a,#0xf9
      00025F F8               [12] 1733 	mov	r0,a
      000260 86 82            [24] 1734 	mov	dpl,@r0
      000262 08               [12] 1735 	inc	r0
      000263 86 83            [24] 1736 	mov	dph,@r0
      000265 E5 81            [12] 1737 	mov	a,sp
      000267 24 F8            [12] 1738 	add	a,#0xF8
      000269 F5 81            [12] 1739 	mov	sp,a
      00026B 02r00r00         [24] 1740 	ljmp	__sdcc_banked_ret
                                   1741 ;------------------------------------------------------------
                                   1742 ;Allocation info for local variables in function 'uip_chksum'
                                   1743 ;------------------------------------------------------------
                                   1744 ;len                       Allocated to stack - sp -4
                                   1745 ;data                      Allocated to registers r5 r6 r7 
                                   1746 ;------------------------------------------------------------
                                   1747 ;	../../../../core/net/uip6.c:333: uip_chksum(uint16_t *data, uint16_t len)
                                   1748 ;	-----------------------------------------
                                   1749 ;	 function uip_chksum
                                   1750 ;	-----------------------------------------
      00026E                       1751 _uip_chksum:
      00026E AD 82            [24] 1752 	mov	r5,dpl
      000270 AE 83            [24] 1753 	mov	r6,dph
      000272 AF F0            [24] 1754 	mov	r7,b
                                   1755 ;	../../../../core/net/uip6.c:335: return uip_htons(chksum(0, (uint8_t *)data, len));
      000274 E5 81            [12] 1756 	mov	a,sp
      000276 24 FC            [12] 1757 	add	a,#0xfc
      000278 F8               [12] 1758 	mov	r0,a
      000279 E6               [12] 1759 	mov	a,@r0
      00027A C0 E0            [24] 1760 	push	acc
      00027C 08               [12] 1761 	inc	r0
      00027D E6               [12] 1762 	mov	a,@r0
      00027E C0 E0            [24] 1763 	push	acc
      000280 C0 05            [24] 1764 	push	ar5
      000282 C0 06            [24] 1765 	push	ar6
      000284 C0 07            [24] 1766 	push	ar7
      000286 90 00 00         [24] 1767 	mov	dptr,#0x0000
      000289 78rF5            [12] 1768 	mov	r0,#_chksum
      00028B 79s00            [12] 1769 	mov	r1,#(_chksum >> 8)
      00028D 7As00            [12] 1770 	mov	r2,#(_chksum >> 16)
      00028F 12r00r00         [24] 1771 	lcall	__sdcc_banked_call
      000292 AE 82            [24] 1772 	mov	r6,dpl
      000294 AF 83            [24] 1773 	mov	r7,dph
      000296 E5 81            [12] 1774 	mov	a,sp
      000298 24 FB            [12] 1775 	add	a,#0xfb
      00029A F5 81            [12] 1776 	mov	sp,a
      00029C 8E 82            [24] 1777 	mov	dpl,r6
      00029E 8F 83            [24] 1778 	mov	dph,r7
      0002A0 78rA5            [12] 1779 	mov	r0,#_uip_htons
      0002A2 79s3B            [12] 1780 	mov	r1,#(_uip_htons >> 8)
      0002A4 7As00            [12] 1781 	mov	r2,#(_uip_htons >> 16)
      0002A6 12r00r00         [24] 1782 	lcall	__sdcc_banked_call
      0002A9 AE 82            [24] 1783 	mov	r6,dpl
      0002AB AF 83            [24] 1784 	mov  r7,dph
      0002AD 02r00r00         [24] 1785 	ljmp	__sdcc_banked_ret
                                   1786 ;------------------------------------------------------------
                                   1787 ;Allocation info for local variables in function 'uip_ipchksum'
                                   1788 ;------------------------------------------------------------
                                   1789 ;sum                       Allocated with name '_uip_ipchksum_sum_1_235'
                                   1790 ;------------------------------------------------------------
                                   1791 ;	../../../../core/net/uip6.c:340: uip_ipchksum(void)
                                   1792 ;	-----------------------------------------
                                   1793 ;	 function uip_ipchksum
                                   1794 ;	-----------------------------------------
      0002B0                       1795 _uip_ipchksum:
                                   1796 ;	../../../../core/net/uip6.c:344: sum = chksum(0, &uip_buf[UIP_LLH_LEN], UIP_IPH_LEN);
      0002B0 74 28            [12] 1797 	mov	a,#0x28
      0002B2 C0 E0            [24] 1798 	push	acc
      0002B4 E4               [12] 1799 	clr	a
      0002B5 C0 E0            [24] 1800 	push	acc
      0002B7 74r0B            [12] 1801 	mov	a,#_uip_aligned_buf
      0002B9 C0 E0            [24] 1802 	push	acc
      0002BB 74s00            [12] 1803 	mov	a,#(_uip_aligned_buf >> 8)
      0002BD C0 E0            [24] 1804 	push	acc
      0002BF E4               [12] 1805 	clr	a
      0002C0 C0 E0            [24] 1806 	push	acc
      0002C2 90 00 00         [24] 1807 	mov	dptr,#0x0000
      0002C5 78rF5            [12] 1808 	mov	r0,#_chksum
      0002C7 79s00            [12] 1809 	mov	r1,#(_chksum >> 8)
      0002C9 7As00            [12] 1810 	mov	r2,#(_chksum >> 16)
      0002CB 12r00r00         [24] 1811 	lcall	__sdcc_banked_call
      0002CE AE 82            [24] 1812 	mov	r6,dpl
      0002D0 AF 83            [24] 1813 	mov	r7,dph
      0002D2 E5 81            [12] 1814 	mov	a,sp
      0002D4 24 FB            [12] 1815 	add	a,#0xfb
      0002D6 F5 81            [12] 1816 	mov	sp,a
      0002D8 90r04r2A         [24] 1817 	mov	dptr,#_uip_ipchksum_sum_1_235
      0002DB EE               [12] 1818 	mov	a,r6
      0002DC F0               [24] 1819 	movx	@dptr,a
      0002DD EF               [12] 1820 	mov	a,r7
      0002DE A3               [24] 1821 	inc	dptr
      0002DF F0               [24] 1822 	movx	@dptr,a
                                   1823 ;	../../../../core/net/uip6.c:346: return (sum == 0) ? 0xffff : uip_htons(sum);
      0002E0 EE               [12] 1824 	mov	a,r6
      0002E1 4F               [12] 1825 	orl	a,r7
      0002E2 B4 01 00         [24] 1826 	cjne	a,#0x01,00108$
      0002E5                       1827 00108$:
      0002E5 E4               [12] 1828 	clr	a
      0002E6 33               [12] 1829 	rlc	a
      0002E7 FD               [12] 1830 	mov	r5,a
      0002E8 60 06            [24] 1831 	jz	00103$
      0002EA 7C FF            [12] 1832 	mov	r4,#0xFF
      0002EC 7D FF            [12] 1833 	mov	r5,#0xFF
      0002EE 80 11            [24] 1834 	sjmp	00104$
      0002F0                       1835 00103$:
      0002F0 8E 82            [24] 1836 	mov	dpl,r6
      0002F2 8F 83            [24] 1837 	mov	dph,r7
      0002F4 78rA5            [12] 1838 	mov	r0,#_uip_htons
      0002F6 79s3B            [12] 1839 	mov	r1,#(_uip_htons >> 8)
      0002F8 7As00            [12] 1840 	mov	r2,#(_uip_htons >> 16)
      0002FA 12r00r00         [24] 1841 	lcall	__sdcc_banked_call
      0002FD AC 82            [24] 1842 	mov	r4,dpl
      0002FF AD 83            [24] 1843 	mov	r5,dph
      000301                       1844 00104$:
      000301 8C 82            [24] 1845 	mov	dpl,r4
      000303 8D 83            [24] 1846 	mov	dph,r5
      000305 02r00r00         [24] 1847 	ljmp	__sdcc_banked_ret
                                   1848 ;------------------------------------------------------------
                                   1849 ;Allocation info for local variables in function 'upper_layer_chksum'
                                   1850 ;------------------------------------------------------------
                                   1851 ;proto                     Allocated to registers r7 
                                   1852 ;upper_layer_len           Allocated with name '_upper_layer_chksum_upper_layer_len_1_237'
                                   1853 ;sum                       Allocated with name '_upper_layer_chksum_sum_1_237'
                                   1854 ;------------------------------------------------------------
                                   1855 ;	../../../../core/net/uip6.c:351: upper_layer_chksum(uint8_t proto)
                                   1856 ;	-----------------------------------------
                                   1857 ;	 function upper_layer_chksum
                                   1858 ;	-----------------------------------------
      000308                       1859 _upper_layer_chksum:
      000308 AF 82            [24] 1860 	mov	r7,dpl
                                   1861 ;	../../../../core/net/uip6.c:365: upper_layer_len = (((uint16_t)(UIP_IP_BUF->len[0]) << 8) + UIP_IP_BUF->len[1] - uip_ext_len);
      00030A 7Dr0B            [12] 1862 	mov	r5,#_uip_aligned_buf
      00030C 7Es00            [12] 1863 	mov	r6,#(_uip_aligned_buf >> 8)
      00030E 8D 82            [24] 1864 	mov	dpl,r5
      000310 8E 83            [24] 1865 	mov	dph,r6
      000312 A3               [24] 1866 	inc	dptr
      000313 A3               [24] 1867 	inc	dptr
      000314 A3               [24] 1868 	inc	dptr
      000315 A3               [24] 1869 	inc	dptr
      000316 E0               [24] 1870 	movx	a,@dptr
      000317 FD               [12] 1871 	mov	r5,a
      000318 7E 00            [12] 1872 	mov	r6,#0x00
      00031A 7Br0B            [12] 1873 	mov	r3,#_uip_aligned_buf
      00031C 7Cs00            [12] 1874 	mov	r4,#(_uip_aligned_buf >> 8)
      00031E 8B 82            [24] 1875 	mov	dpl,r3
      000320 8C 83            [24] 1876 	mov	dph,r4
      000322 A3               [24] 1877 	inc	dptr
      000323 A3               [24] 1878 	inc	dptr
      000324 A3               [24] 1879 	inc	dptr
      000325 A3               [24] 1880 	inc	dptr
      000326 A3               [24] 1881 	inc	dptr
      000327 E0               [24] 1882 	movx	a,@dptr
      000328 7B 00            [12] 1883 	mov	r3,#0x00
      00032A 2E               [12] 1884 	add	a,r6
      00032B FE               [12] 1885 	mov	r6,a
      00032C EB               [12] 1886 	mov	a,r3
      00032D 3D               [12] 1887 	addc	a,r5
      00032E FD               [12] 1888 	mov	r5,a
      00032F 90r00r01         [24] 1889 	mov	dptr,#_uip_ext_len
      000332 E0               [24] 1890 	movx	a,@dptr
      000333 FC               [12] 1891 	mov	r4,a
      000334 7B 00            [12] 1892 	mov	r3,#0x00
      000336 90r04r2C         [24] 1893 	mov	dptr,#_upper_layer_chksum_upper_layer_len_1_237
      000339 EE               [12] 1894 	mov	a,r6
      00033A C3               [12] 1895 	clr	c
      00033B 9C               [12] 1896 	subb	a,r4
      00033C F0               [24] 1897 	movx	@dptr,a
      00033D ED               [12] 1898 	mov	a,r5
      00033E 9B               [12] 1899 	subb	a,r3
      00033F A3               [24] 1900 	inc	dptr
      000340 F0               [24] 1901 	movx	@dptr,a
                                   1902 ;	../../../../core/net/uip6.c:372: sum = upper_layer_len + proto;
      000341 7E 00            [12] 1903 	mov	r6,#0x00
      000343 90r04r2C         [24] 1904 	mov	dptr,#_upper_layer_chksum_upper_layer_len_1_237
      000346 E0               [24] 1905 	movx	a,@dptr
      000347 FC               [12] 1906 	mov	r4,a
      000348 A3               [24] 1907 	inc	dptr
      000349 E0               [24] 1908 	movx	a,@dptr
      00034A FD               [12] 1909 	mov	r5,a
      00034B EF               [12] 1910 	mov	a,r7
      00034C 2C               [12] 1911 	add	a,r4
      00034D FC               [12] 1912 	mov	r4,a
      00034E EE               [12] 1913 	mov	a,r6
      00034F 3D               [12] 1914 	addc	a,r5
      000350 FD               [12] 1915 	mov	r5,a
      000351 90r04r2E         [24] 1916 	mov	dptr,#_upper_layer_chksum_sum_1_237
      000354 EC               [12] 1917 	mov	a,r4
      000355 F0               [24] 1918 	movx	@dptr,a
      000356 ED               [12] 1919 	mov	a,r5
      000357 A3               [24] 1920 	inc	dptr
      000358 F0               [24] 1921 	movx	@dptr,a
                                   1922 ;	../../../../core/net/uip6.c:374: sum = chksum(sum, (uint8_t *)&UIP_IP_BUF->srcipaddr, 2 * sizeof(uip_ipaddr_t));
      000359 7Er0B            [12] 1923 	mov	r6,#_uip_aligned_buf
      00035B 7Fs00            [12] 1924 	mov	r7,#(_uip_aligned_buf >> 8)
      00035D 74 08            [12] 1925 	mov	a,#0x08
      00035F 2E               [12] 1926 	add	a,r6
      000360 FE               [12] 1927 	mov	r6,a
      000361 E4               [12] 1928 	clr	a
      000362 3F               [12] 1929 	addc	a,r7
      000363 FF               [12] 1930 	mov	r7,a
      000364 7B 00            [12] 1931 	mov	r3,#0x00
      000366 74 20            [12] 1932 	mov	a,#0x20
      000368 C0 E0            [24] 1933 	push	acc
      00036A E4               [12] 1934 	clr	a
      00036B C0 E0            [24] 1935 	push	acc
      00036D C0 06            [24] 1936 	push	ar6
      00036F C0 07            [24] 1937 	push	ar7
      000371 C0 03            [24] 1938 	push	ar3
      000373 8C 82            [24] 1939 	mov	dpl,r4
      000375 8D 83            [24] 1940 	mov	dph,r5
      000377 78rF5            [12] 1941 	mov	r0,#_chksum
      000379 79s00            [12] 1942 	mov	r1,#(_chksum >> 8)
      00037B 7As00            [12] 1943 	mov	r2,#(_chksum >> 16)
      00037D 12r00r00         [24] 1944 	lcall	__sdcc_banked_call
      000380 AE 82            [24] 1945 	mov	r6,dpl
      000382 AF 83            [24] 1946 	mov	r7,dph
      000384 E5 81            [12] 1947 	mov	a,sp
      000386 24 FB            [12] 1948 	add	a,#0xfb
      000388 F5 81            [12] 1949 	mov	sp,a
      00038A 90r04r2E         [24] 1950 	mov	dptr,#_upper_layer_chksum_sum_1_237
      00038D EE               [12] 1951 	mov	a,r6
      00038E F0               [24] 1952 	movx	@dptr,a
      00038F EF               [12] 1953 	mov	a,r7
      000390 A3               [24] 1954 	inc	dptr
      000391 F0               [24] 1955 	movx	@dptr,a
                                   1956 ;	../../../../core/net/uip6.c:378: upper_layer_len);
      000392 90r04r2C         [24] 1957 	mov	dptr,#_upper_layer_chksum_upper_layer_len_1_237
      000395 E0               [24] 1958 	movx	a,@dptr
      000396 FC               [12] 1959 	mov	r4,a
      000397 A3               [24] 1960 	inc	dptr
      000398 E0               [24] 1961 	movx	a,@dptr
      000399 FD               [12] 1962 	mov	r5,a
                                   1963 ;	../../../../core/net/uip6.c:377: sum = chksum(sum, &uip_buf[UIP_IPH_LEN + UIP_LLH_LEN + uip_ext_len],
      00039A 90r00r01         [24] 1964 	mov	dptr,#_uip_ext_len
      00039D E0               [24] 1965 	movx	a,@dptr
      00039E 24 28            [12] 1966 	add	a,#0x28
      0003A0 24r0B            [12] 1967 	add	a,#_uip_aligned_buf
      0003A2 FA               [12] 1968 	mov	r2,a
      0003A3 E4               [12] 1969 	clr	a
      0003A4 34s00            [12] 1970 	addc	a,#(_uip_aligned_buf >> 8)
      0003A6 F9               [12] 1971 	mov	r1,a
      0003A7 7B 00            [12] 1972 	mov	r3,#0x00
      0003A9 C0 04            [24] 1973 	push	ar4
      0003AB C0 05            [24] 1974 	push	ar5
      0003AD C0 02            [24] 1975 	push	ar2
      0003AF C0 01            [24] 1976 	push	ar1
      0003B1 C0 03            [24] 1977 	push	ar3
      0003B3 8E 82            [24] 1978 	mov	dpl,r6
      0003B5 8F 83            [24] 1979 	mov	dph,r7
      0003B7 78rF5            [12] 1980 	mov	r0,#_chksum
      0003B9 79s00            [12] 1981 	mov	r1,#(_chksum >> 8)
      0003BB 7As00            [12] 1982 	mov	r2,#(_chksum >> 16)
      0003BD 12r00r00         [24] 1983 	lcall	__sdcc_banked_call
      0003C0 AE 82            [24] 1984 	mov	r6,dpl
      0003C2 AF 83            [24] 1985 	mov	r7,dph
      0003C4 E5 81            [12] 1986 	mov	a,sp
      0003C6 24 FB            [12] 1987 	add	a,#0xfb
      0003C8 F5 81            [12] 1988 	mov	sp,a
      0003CA 90r04r2E         [24] 1989 	mov	dptr,#_upper_layer_chksum_sum_1_237
      0003CD EE               [12] 1990 	mov	a,r6
      0003CE F0               [24] 1991 	movx	@dptr,a
      0003CF EF               [12] 1992 	mov	a,r7
      0003D0 A3               [24] 1993 	inc	dptr
      0003D1 F0               [24] 1994 	movx	@dptr,a
                                   1995 ;	../../../../core/net/uip6.c:380: return (sum == 0) ? 0xffff : uip_htons(sum);
      0003D2 EE               [12] 1996 	mov	a,r6
      0003D3 4F               [12] 1997 	orl	a,r7
      0003D4 B4 01 00         [24] 1998 	cjne	a,#0x01,00108$
      0003D7                       1999 00108$:
      0003D7 E4               [12] 2000 	clr	a
      0003D8 33               [12] 2001 	rlc	a
      0003D9 FD               [12] 2002 	mov	r5,a
      0003DA 60 06            [24] 2003 	jz	00103$
      0003DC 7C FF            [12] 2004 	mov	r4,#0xFF
      0003DE 7D FF            [12] 2005 	mov	r5,#0xFF
      0003E0 80 11            [24] 2006 	sjmp	00104$
      0003E2                       2007 00103$:
      0003E2 8E 82            [24] 2008 	mov	dpl,r6
      0003E4 8F 83            [24] 2009 	mov	dph,r7
      0003E6 78rA5            [12] 2010 	mov	r0,#_uip_htons
      0003E8 79s3B            [12] 2011 	mov	r1,#(_uip_htons >> 8)
      0003EA 7As00            [12] 2012 	mov	r2,#(_uip_htons >> 16)
      0003EC 12r00r00         [24] 2013 	lcall	__sdcc_banked_call
      0003EF AC 82            [24] 2014 	mov	r4,dpl
      0003F1 AD 83            [24] 2015 	mov	r5,dph
      0003F3                       2016 00104$:
      0003F3 8C 82            [24] 2017 	mov	dpl,r4
      0003F5 8D 83            [24] 2018 	mov	dph,r5
      0003F7 02r00r00         [24] 2019 	ljmp	__sdcc_banked_ret
                                   2020 ;------------------------------------------------------------
                                   2021 ;Allocation info for local variables in function 'uip_icmp6chksum'
                                   2022 ;------------------------------------------------------------
                                   2023 ;	../../../../core/net/uip6.c:384: uip_icmp6chksum(void)
                                   2024 ;	-----------------------------------------
                                   2025 ;	 function uip_icmp6chksum
                                   2026 ;	-----------------------------------------
      0003FA                       2027 _uip_icmp6chksum:
                                   2028 ;	../../../../core/net/uip6.c:386: return upper_layer_chksum(UIP_PROTO_ICMP6);
      0003FA 75 82 3A         [24] 2029 	mov	dpl,#0x3A
      0003FD 78r08            [12] 2030 	mov	r0,#_upper_layer_chksum
      0003FF 79s03            [12] 2031 	mov	r1,#(_upper_layer_chksum >> 8)
      000401 7As00            [12] 2032 	mov	r2,#(_upper_layer_chksum >> 16)
      000403 12r00r00         [24] 2033 	lcall	__sdcc_banked_call
      000406 AE 82            [24] 2034 	mov	r6,dpl
      000408 AF 83            [24] 2035 	mov  r7,dph
      00040A 02r00r00         [24] 2036 	ljmp	__sdcc_banked_ret
                                   2037 ;------------------------------------------------------------
                                   2038 ;Allocation info for local variables in function 'uip_tcpchksum'
                                   2039 ;------------------------------------------------------------
                                   2040 ;	../../../../core/net/uip6.c:392: uip_tcpchksum(void)
                                   2041 ;	-----------------------------------------
                                   2042 ;	 function uip_tcpchksum
                                   2043 ;	-----------------------------------------
      00040D                       2044 _uip_tcpchksum:
                                   2045 ;	../../../../core/net/uip6.c:394: return upper_layer_chksum(UIP_PROTO_TCP);
      00040D 75 82 06         [24] 2046 	mov	dpl,#0x06
      000410 78r08            [12] 2047 	mov	r0,#_upper_layer_chksum
      000412 79s03            [12] 2048 	mov	r1,#(_upper_layer_chksum >> 8)
      000414 7As00            [12] 2049 	mov	r2,#(_upper_layer_chksum >> 16)
      000416 12r00r00         [24] 2050 	lcall	__sdcc_banked_call
      000419 AE 82            [24] 2051 	mov	r6,dpl
      00041B AF 83            [24] 2052 	mov  r7,dph
      00041D 02r00r00         [24] 2053 	ljmp	__sdcc_banked_ret
                                   2054 ;------------------------------------------------------------
                                   2055 ;Allocation info for local variables in function 'uip_udpchksum'
                                   2056 ;------------------------------------------------------------
                                   2057 ;	../../../../core/net/uip6.c:400: uip_udpchksum(void)
                                   2058 ;	-----------------------------------------
                                   2059 ;	 function uip_udpchksum
                                   2060 ;	-----------------------------------------
      000420                       2061 _uip_udpchksum:
                                   2062 ;	../../../../core/net/uip6.c:402: return upper_layer_chksum(UIP_PROTO_UDP);
      000420 75 82 11         [24] 2063 	mov	dpl,#0x11
      000423 78r08            [12] 2064 	mov	r0,#_upper_layer_chksum
      000425 79s03            [12] 2065 	mov	r1,#(_upper_layer_chksum >> 8)
      000427 7As00            [12] 2066 	mov	r2,#(_upper_layer_chksum >> 16)
      000429 12r00r00         [24] 2067 	lcall	__sdcc_banked_call
      00042C AE 82            [24] 2068 	mov	r6,dpl
      00042E AF 83            [24] 2069 	mov  r7,dph
      000430 02r00r00         [24] 2070 	ljmp	__sdcc_banked_ret
                                   2071 ;------------------------------------------------------------
                                   2072 ;Allocation info for local variables in function 'uip_init'
                                   2073 ;------------------------------------------------------------
                                   2074 ;	../../../../core/net/uip6.c:408: uip_init(void)
                                   2075 ;	-----------------------------------------
                                   2076 ;	 function uip_init
                                   2077 ;	-----------------------------------------
      000433                       2078 _uip_init:
                                   2079 ;	../../../../core/net/uip6.c:411: uip_ds6_init();
      000433 78r00            [12] 2080 	mov	r0,#_uip_ds6_init
      000435 79s00            [12] 2081 	mov	r1,#(_uip_ds6_init >> 8)
      000437 7As00            [12] 2082 	mov	r2,#(_uip_ds6_init >> 16)
      000439 12r00r00         [24] 2083 	lcall	__sdcc_banked_call
                                   2084 ;	../../../../core/net/uip6.c:414: for(c = 0; c < UIP_LISTENPORTS; ++c) {
      00043C 90r01r09         [24] 2085 	mov	dptr,#_c
      00043F E4               [12] 2086 	clr	a
      000440 F0               [24] 2087 	movx	@dptr,a
      000441                       2088 00104$:
                                   2089 ;	../../../../core/net/uip6.c:415: uip_listenports[c] = 0;
      000441 90r01r09         [24] 2090 	mov	dptr,#_c
      000444 E0               [24] 2091 	movx	a,@dptr
      000445 75 F0 02         [24] 2092 	mov	b,#0x02
      000448 A4               [48] 2093 	mul	ab
      000449 24rD8            [12] 2094 	add	a,#_uip_listenports
      00044B F5 82            [12] 2095 	mov	dpl,a
      00044D 74s02            [12] 2096 	mov	a,#(_uip_listenports >> 8)
      00044F 35 F0            [12] 2097 	addc	a,b
      000451 F5 83            [12] 2098 	mov	dph,a
      000453 E4               [12] 2099 	clr	a
      000454 F0               [24] 2100 	movx	@dptr,a
      000455 E4               [12] 2101 	clr	a
      000456 A3               [24] 2102 	inc	dptr
      000457 F0               [24] 2103 	movx	@dptr,a
                                   2104 ;	../../../../core/net/uip6.c:414: for(c = 0; c < UIP_LISTENPORTS; ++c) {
      000458 90r01r09         [24] 2105 	mov	dptr,#_c
      00045B E0               [24] 2106 	movx	a,@dptr
      00045C 24 01            [12] 2107 	add	a,#0x01
      00045E F0               [24] 2108 	movx	@dptr,a
      00045F 90r01r09         [24] 2109 	mov	dptr,#_c
      000462 E0               [24] 2110 	movx	a,@dptr
      000463 FF               [12] 2111 	mov	r7,a
      000464 BF 14 00         [24] 2112 	cjne	r7,#0x14,00127$
      000467                       2113 00127$:
      000467 40 D8            [24] 2114 	jc	00104$
                                   2115 ;	../../../../core/net/uip6.c:417: for(c = 0; c < UIP_CONNS; ++c) {
      000469 90r01r09         [24] 2116 	mov	dptr,#_c
      00046C E4               [12] 2117 	clr	a
      00046D F0               [24] 2118 	movx	@dptr,a
      00046E                       2119 00106$:
                                   2120 ;	../../../../core/net/uip6.c:418: uip_conns[c].tcpstateflags = UIP_CLOSED;
      00046E 90r01r09         [24] 2121 	mov	dptr,#_c
      000471 E0               [24] 2122 	movx	a,@dptr
      000472 75 F0 2E         [24] 2123 	mov	b,#0x2E
      000475 A4               [48] 2124 	mul	ab
      000476 24r0C            [12] 2125 	add	a,#_uip_conns
      000478 FE               [12] 2126 	mov	r6,a
      000479 74s01            [12] 2127 	mov	a,#(_uip_conns >> 8)
      00047B 35 F0            [12] 2128 	addc	a,b
      00047D FF               [12] 2129 	mov	r7,a
      00047E 74 25            [12] 2130 	mov	a,#0x25
      000480 2E               [12] 2131 	add	a,r6
      000481 F5 82            [12] 2132 	mov	dpl,a
      000483 E4               [12] 2133 	clr	a
      000484 3F               [12] 2134 	addc	a,r7
      000485 F5 83            [12] 2135 	mov	dph,a
      000487 E4               [12] 2136 	clr	a
      000488 F0               [24] 2137 	movx	@dptr,a
                                   2138 ;	../../../../core/net/uip6.c:417: for(c = 0; c < UIP_CONNS; ++c) {
      000489 90r01r09         [24] 2139 	mov	dptr,#_c
      00048C E0               [24] 2140 	movx	a,@dptr
      00048D 24 01            [12] 2141 	add	a,#0x01
      00048F F0               [24] 2142 	movx	@dptr,a
      000490 90r01r09         [24] 2143 	mov	dptr,#_c
      000493 E0               [24] 2144 	movx	a,@dptr
      000494 FF               [12] 2145 	mov	r7,a
      000495 BF 0A 00         [24] 2146 	cjne	r7,#0x0A,00129$
      000498                       2147 00129$:
      000498 40 D4            [24] 2148 	jc	00106$
                                   2149 ;	../../../../core/net/uip6.c:423: lastport = 1024;
      00049A 90r01r0A         [24] 2150 	mov	dptr,#_lastport
      00049D E4               [12] 2151 	clr	a
      00049E F0               [24] 2152 	movx	@dptr,a
      00049F 74 04            [12] 2153 	mov	a,#0x04
      0004A1 A3               [24] 2154 	inc	dptr
      0004A2 F0               [24] 2155 	movx	@dptr,a
                                   2156 ;	../../../../core/net/uip6.c:427: for(c = 0; c < UIP_UDP_CONNS; ++c) {
      0004A3 90r01r09         [24] 2157 	mov	dptr,#_c
      0004A6 E4               [12] 2158 	clr	a
      0004A7 F0               [24] 2159 	movx	@dptr,a
      0004A8                       2160 00108$:
                                   2161 ;	../../../../core/net/uip6.c:428: uip_udp_conns[c].lport = 0;
      0004A8 90r01r09         [24] 2162 	mov	dptr,#_c
      0004AB E0               [24] 2163 	movx	a,@dptr
      0004AC 75 F0 1B         [24] 2164 	mov	b,#0x1B
      0004AF A4               [48] 2165 	mul	ab
      0004B0 24r0E            [12] 2166 	add	a,#_uip_udp_conns
      0004B2 FE               [12] 2167 	mov	r6,a
      0004B3 74s03            [12] 2168 	mov	a,#(_uip_udp_conns >> 8)
      0004B5 35 F0            [12] 2169 	addc	a,b
      0004B7 FF               [12] 2170 	mov	r7,a
      0004B8 74 10            [12] 2171 	mov	a,#0x10
      0004BA 2E               [12] 2172 	add	a,r6
      0004BB F5 82            [12] 2173 	mov	dpl,a
      0004BD E4               [12] 2174 	clr	a
      0004BE 3F               [12] 2175 	addc	a,r7
      0004BF F5 83            [12] 2176 	mov	dph,a
      0004C1 E4               [12] 2177 	clr	a
      0004C2 F0               [24] 2178 	movx	@dptr,a
      0004C3 E4               [12] 2179 	clr	a
      0004C4 A3               [24] 2180 	inc	dptr
      0004C5 F0               [24] 2181 	movx	@dptr,a
                                   2182 ;	../../../../core/net/uip6.c:427: for(c = 0; c < UIP_UDP_CONNS; ++c) {
      0004C6 90r01r09         [24] 2183 	mov	dptr,#_c
      0004C9 E0               [24] 2184 	movx	a,@dptr
      0004CA 24 01            [12] 2185 	add	a,#0x01
      0004CC F0               [24] 2186 	movx	@dptr,a
      0004CD 90r01r09         [24] 2187 	mov	dptr,#_c
      0004D0 E0               [24] 2188 	movx	a,@dptr
      0004D1 FF               [12] 2189 	mov	r7,a
      0004D2 BF 0A 00         [24] 2190 	cjne	r7,#0x0A,00131$
      0004D5                       2191 00131$:
      0004D5 40 D1            [24] 2192 	jc	00108$
      0004D7 02r00r00         [24] 2193 	ljmp	__sdcc_banked_ret
                                   2194 ;------------------------------------------------------------
                                   2195 ;Allocation info for local variables in function 'uip_connect'
                                   2196 ;------------------------------------------------------------
                                   2197 ;rport                     Allocated to stack - sp -16
                                   2198 ;ripaddr                   Allocated to stack - sp -11
                                   2199 ;conn                      Allocated to stack - sp -5
                                   2200 ;cconn                     Allocated to stack - sp -2
                                   2201 ;sloc0                     Allocated to stack - sp -2
                                   2202 ;sloc1                     Allocated to stack - sp -8
                                   2203 ;------------------------------------------------------------
                                   2204 ;	../../../../core/net/uip6.c:435: uip_connect(uip_ipaddr_t *ripaddr, uint16_t rport)
                                   2205 ;	-----------------------------------------
                                   2206 ;	 function uip_connect
                                   2207 ;	-----------------------------------------
      0004DA                       2208 _uip_connect:
      0004DA C0 82            [24] 2209 	push	dpl
      0004DC C0 83            [24] 2210 	push	dph
      0004DE C0 F0            [24] 2211 	push	b
      0004E0 E5 81            [12] 2212 	mov	a,sp
      0004E2 24 09            [12] 2213 	add	a,#0x09
      0004E4 F5 81            [12] 2214 	mov	sp,a
                                   2215 ;	../../../../core/net/uip6.c:440: again:
      0004E6                       2216 00101$:
                                   2217 ;	../../../../core/net/uip6.c:441: ++lastport;
      0004E6 90r01r0A         [24] 2218 	mov	dptr,#_lastport
      0004E9 E0               [24] 2219 	movx	a,@dptr
      0004EA 24 01            [12] 2220 	add	a,#0x01
      0004EC F0               [24] 2221 	movx	@dptr,a
      0004ED A3               [24] 2222 	inc	dptr
      0004EE E0               [24] 2223 	movx	a,@dptr
      0004EF 34 00            [12] 2224 	addc	a,#0x00
      0004F1 F0               [24] 2225 	movx	@dptr,a
                                   2226 ;	../../../../core/net/uip6.c:443: if(lastport >= 32000) {
      0004F2 90r01r0A         [24] 2227 	mov	dptr,#_lastport
      0004F5 E0               [24] 2228 	movx	a,@dptr
      0004F6 FB               [12] 2229 	mov	r3,a
      0004F7 A3               [24] 2230 	inc	dptr
      0004F8 E0               [24] 2231 	movx	a,@dptr
      0004F9 FC               [12] 2232 	mov	r4,a
      0004FA C3               [12] 2233 	clr	c
      0004FB 94 7D            [12] 2234 	subb	a,#0x7D
      0004FD 40 09            [24] 2235 	jc	00103$
                                   2236 ;	../../../../core/net/uip6.c:444: lastport = 4096;
      0004FF 90r01r0A         [24] 2237 	mov	dptr,#_lastport
      000502 E4               [12] 2238 	clr	a
      000503 F0               [24] 2239 	movx	@dptr,a
      000504 74 10            [12] 2240 	mov	a,#0x10
      000506 A3               [24] 2241 	inc	dptr
      000507 F0               [24] 2242 	movx	@dptr,a
      000508                       2243 00103$:
                                   2244 ;	../../../../core/net/uip6.c:449: for(c = 0; c < UIP_CONNS; ++c) {
      000508 90r01r09         [24] 2245 	mov	dptr,#_c
      00050B E4               [12] 2246 	clr	a
      00050C F0               [24] 2247 	movx	@dptr,a
      00050D                       2248 00118$:
                                   2249 ;	../../../../core/net/uip6.c:450: conn = &uip_conns[c];
      00050D 90r01r09         [24] 2250 	mov	dptr,#_c
      000510 E0               [24] 2251 	movx	a,@dptr
      000511 75 F0 2E         [24] 2252 	mov	b,#0x2E
      000514 A4               [48] 2253 	mul	ab
      000515 24r0C            [12] 2254 	add	a,#_uip_conns
      000517 FB               [12] 2255 	mov	r3,a
      000518 74s01            [12] 2256 	mov	a,#(_uip_conns >> 8)
      00051A 35 F0            [12] 2257 	addc	a,b
      00051C FC               [12] 2258 	mov	r4,a
      00051D E5 81            [12] 2259 	mov	a,sp
      00051F 24 FB            [12] 2260 	add	a,#0xfb
      000521 F8               [12] 2261 	mov	r0,a
      000522 A6 03            [24] 2262 	mov	@r0,ar3
      000524 08               [12] 2263 	inc	r0
      000525 A6 04            [24] 2264 	mov	@r0,ar4
      000527 08               [12] 2265 	inc	r0
      000528 76 00            [12] 2266 	mov	@r0,#0x00
                                   2267 ;	../../../../core/net/uip6.c:451: if(conn->tcpstateflags != UIP_CLOSED &&
      00052A E5 81            [12] 2268 	mov	a,sp
      00052C 24 FB            [12] 2269 	add	a,#0xfb
      00052E F8               [12] 2270 	mov	r0,a
      00052F 74 25            [12] 2271 	mov	a,#0x25
      000531 26               [12] 2272 	add	a,@r0
      000532 FD               [12] 2273 	mov	r5,a
      000533 E4               [12] 2274 	clr	a
      000534 08               [12] 2275 	inc	r0
      000535 36               [12] 2276 	addc	a,@r0
      000536 FE               [12] 2277 	mov	r6,a
      000537 08               [12] 2278 	inc	r0
      000538 86 07            [24] 2279 	mov	ar7,@r0
      00053A 8D 82            [24] 2280 	mov	dpl,r5
      00053C 8E 83            [24] 2281 	mov	dph,r6
      00053E 8F F0            [24] 2282 	mov	b,r7
      000540 12r00r00         [24] 2283 	lcall	__gptrget
      000543 60 4B            [24] 2284 	jz	00119$
                                   2285 ;	../../../../core/net/uip6.c:452: conn->lport == uip_htons(lastport)) {
      000545 E5 81            [12] 2286 	mov	a,sp
      000547 24 FB            [12] 2287 	add	a,#0xfb
      000549 F8               [12] 2288 	mov	r0,a
      00054A 74 10            [12] 2289 	mov	a,#0x10
      00054C 26               [12] 2290 	add	a,@r0
      00054D FD               [12] 2291 	mov	r5,a
      00054E E4               [12] 2292 	clr	a
      00054F 08               [12] 2293 	inc	r0
      000550 36               [12] 2294 	addc	a,@r0
      000551 FE               [12] 2295 	mov	r6,a
      000552 08               [12] 2296 	inc	r0
      000553 86 07            [24] 2297 	mov	ar7,@r0
      000555 8D 82            [24] 2298 	mov	dpl,r5
      000557 8E 83            [24] 2299 	mov	dph,r6
      000559 8F F0            [24] 2300 	mov	b,r7
      00055B 12r00r00         [24] 2301 	lcall	__gptrget
      00055E FD               [12] 2302 	mov	r5,a
      00055F A3               [24] 2303 	inc	dptr
      000560 12r00r00         [24] 2304 	lcall	__gptrget
      000563 FC               [12] 2305 	mov	r4,a
      000564 90r01r0A         [24] 2306 	mov	dptr,#_lastport
      000567 E0               [24] 2307 	movx	a,@dptr
      000568 FE               [12] 2308 	mov	r6,a
      000569 A3               [24] 2309 	inc	dptr
      00056A E0               [24] 2310 	movx	a,@dptr
      00056B FF               [12] 2311 	mov	r7,a
      00056C 8E 82            [24] 2312 	mov	dpl,r6
      00056E 8F 83            [24] 2313 	mov	dph,r7
      000570 C0 05            [24] 2314 	push	ar5
      000572 C0 04            [24] 2315 	push	ar4
      000574 78rA5            [12] 2316 	mov	r0,#_uip_htons
      000576 79s3B            [12] 2317 	mov	r1,#(_uip_htons >> 8)
      000578 7As00            [12] 2318 	mov	r2,#(_uip_htons >> 16)
      00057A 12r00r00         [24] 2319 	lcall	__sdcc_banked_call
      00057D AE 82            [24] 2320 	mov	r6,dpl
      00057F AF 83            [24] 2321 	mov	r7,dph
      000581 D0 04            [24] 2322 	pop	ar4
      000583 D0 05            [24] 2323 	pop	ar5
      000585 ED               [12] 2324 	mov	a,r5
      000586 B5 06 07         [24] 2325 	cjne	a,ar6,00156$
      000589 EC               [12] 2326 	mov	a,r4
      00058A B5 07 03         [24] 2327 	cjne	a,ar7,00156$
      00058D 02r04rE6         [24] 2328 	ljmp	00101$
      000590                       2329 00156$:
                                   2330 ;	../../../../core/net/uip6.c:453: goto again;
      000590                       2331 00119$:
                                   2332 ;	../../../../core/net/uip6.c:449: for(c = 0; c < UIP_CONNS; ++c) {
      000590 90r01r09         [24] 2333 	mov	dptr,#_c
      000593 E0               [24] 2334 	movx	a,@dptr
      000594 24 01            [12] 2335 	add	a,#0x01
      000596 F0               [24] 2336 	movx	@dptr,a
      000597 90r01r09         [24] 2337 	mov	dptr,#_c
      00059A E0               [24] 2338 	movx	a,@dptr
      00059B FF               [12] 2339 	mov	r7,a
      00059C BF 0A 00         [24] 2340 	cjne	r7,#0x0A,00157$
      00059F                       2341 00157$:
      00059F 50 03            [24] 2342 	jnc	00158$
      0005A1 02r05r0D         [24] 2343 	ljmp	00118$
      0005A4                       2344 00158$:
                                   2345 ;	../../../../core/net/uip6.c:457: conn = 0;
      0005A4 E5 81            [12] 2346 	mov	a,sp
      0005A6 24 FB            [12] 2347 	add	a,#0xfb
      0005A8 F8               [12] 2348 	mov	r0,a
      0005A9 E4               [12] 2349 	clr	a
      0005AA F6               [12] 2350 	mov	@r0,a
      0005AB 08               [12] 2351 	inc	r0
      0005AC F6               [12] 2352 	mov	@r0,a
      0005AD 08               [12] 2353 	inc	r0
      0005AE 76 00            [12] 2354 	mov	@r0,#0x00
                                   2355 ;	../../../../core/net/uip6.c:458: for(c = 0; c < UIP_CONNS; ++c) {
      0005B0 90r01r09         [24] 2356 	mov	dptr,#_c
      0005B3 E4               [12] 2357 	clr	a
      0005B4 F0               [24] 2358 	movx	@dptr,a
      0005B5                       2359 00120$:
                                   2360 ;	../../../../core/net/uip6.c:459: cconn = &uip_conns[c];
      0005B5 90r01r09         [24] 2361 	mov	dptr,#_c
      0005B8 E0               [24] 2362 	movx	a,@dptr
      0005B9 75 F0 2E         [24] 2363 	mov	b,#0x2E
      0005BC A4               [48] 2364 	mul	ab
      0005BD 24r0C            [12] 2365 	add	a,#_uip_conns
      0005BF FE               [12] 2366 	mov	r6,a
      0005C0 74s01            [12] 2367 	mov	a,#(_uip_conns >> 8)
      0005C2 35 F0            [12] 2368 	addc	a,b
      0005C4 FF               [12] 2369 	mov	r7,a
      0005C5 A8 81            [24] 2370 	mov	r0,sp
      0005C7 18               [12] 2371 	dec	r0
      0005C8 18               [12] 2372 	dec	r0
      0005C9 A6 06            [24] 2373 	mov	@r0,ar6
      0005CB 08               [12] 2374 	inc	r0
      0005CC A6 07            [24] 2375 	mov	@r0,ar7
      0005CE 08               [12] 2376 	inc	r0
      0005CF 76 00            [12] 2377 	mov	@r0,#0x00
                                   2378 ;	../../../../core/net/uip6.c:460: if(cconn->tcpstateflags == UIP_CLOSED) {
      0005D1 A8 81            [24] 2379 	mov	r0,sp
      0005D3 18               [12] 2380 	dec	r0
      0005D4 18               [12] 2381 	dec	r0
      0005D5 74 25            [12] 2382 	mov	a,#0x25
      0005D7 26               [12] 2383 	add	a,@r0
      0005D8 FD               [12] 2384 	mov	r5,a
      0005D9 E4               [12] 2385 	clr	a
      0005DA 08               [12] 2386 	inc	r0
      0005DB 36               [12] 2387 	addc	a,@r0
      0005DC FE               [12] 2388 	mov	r6,a
      0005DD 08               [12] 2389 	inc	r0
      0005DE 86 07            [24] 2390 	mov	ar7,@r0
      0005E0 8D 82            [24] 2391 	mov	dpl,r5
      0005E2 8E 83            [24] 2392 	mov	dph,r6
      0005E4 8F F0            [24] 2393 	mov	b,r7
      0005E6 12r00r00         [24] 2394 	lcall	__gptrget
      0005E9 FF               [12] 2395 	mov	r7,a
      0005EA 70 15            [24] 2396 	jnz	00109$
                                   2397 ;	../../../../core/net/uip6.c:461: conn = cconn;
      0005EC A8 81            [24] 2398 	mov	r0,sp
      0005EE 18               [12] 2399 	dec	r0
      0005EF 18               [12] 2400 	dec	r0
      0005F0 E5 81            [12] 2401 	mov	a,sp
      0005F2 24 FB            [12] 2402 	add	a,#0xfb
      0005F4 F9               [12] 2403 	mov	r1,a
      0005F5 E6               [12] 2404 	mov	a,@r0
      0005F6 F7               [12] 2405 	mov	@r1,a
      0005F7 08               [12] 2406 	inc	r0
      0005F8 09               [12] 2407 	inc	r1
      0005F9 E6               [12] 2408 	mov	a,@r0
      0005FA F7               [12] 2409 	mov	@r1,a
      0005FB 08               [12] 2410 	inc	r0
      0005FC 09               [12] 2411 	inc	r1
      0005FD E6               [12] 2412 	mov	a,@r0
      0005FE F7               [12] 2413 	mov	@r1,a
                                   2414 ;	../../../../core/net/uip6.c:462: break;
      0005FF 80 6B            [24] 2415 	sjmp	00115$
      000601                       2416 00109$:
                                   2417 ;	../../../../core/net/uip6.c:464: if(cconn->tcpstateflags == UIP_TIME_WAIT) {
      000601 BF 07 54         [24] 2418 	cjne	r7,#0x07,00121$
                                   2419 ;	../../../../core/net/uip6.c:465: if(conn == 0 ||
      000604 E5 81            [12] 2420 	mov	a,sp
      000606 24 FB            [12] 2421 	add	a,#0xfb
      000608 F8               [12] 2422 	mov	r0,a
      000609 E6               [12] 2423 	mov	a,@r0
      00060A 08               [12] 2424 	inc	r0
      00060B 46               [12] 2425 	orl	a,@r0
      00060C 60 37            [24] 2426 	jz	00110$
                                   2427 ;	../../../../core/net/uip6.c:466: cconn->timer > conn->timer) {
      00060E A8 81            [24] 2428 	mov	r0,sp
      000610 18               [12] 2429 	dec	r0
      000611 18               [12] 2430 	dec	r0
      000612 74 26            [12] 2431 	mov	a,#0x26
      000614 26               [12] 2432 	add	a,@r0
      000615 FD               [12] 2433 	mov	r5,a
      000616 E4               [12] 2434 	clr	a
      000617 08               [12] 2435 	inc	r0
      000618 36               [12] 2436 	addc	a,@r0
      000619 FE               [12] 2437 	mov	r6,a
      00061A 08               [12] 2438 	inc	r0
      00061B 86 07            [24] 2439 	mov	ar7,@r0
      00061D 8D 82            [24] 2440 	mov	dpl,r5
      00061F 8E 83            [24] 2441 	mov	dph,r6
      000621 8F F0            [24] 2442 	mov	b,r7
      000623 12r00r00         [24] 2443 	lcall	__gptrget
      000626 FD               [12] 2444 	mov	r5,a
      000627 E5 81            [12] 2445 	mov	a,sp
      000629 24 FB            [12] 2446 	add	a,#0xfb
      00062B F8               [12] 2447 	mov	r0,a
      00062C 74 26            [12] 2448 	mov	a,#0x26
      00062E 26               [12] 2449 	add	a,@r0
      00062F FC               [12] 2450 	mov	r4,a
      000630 E4               [12] 2451 	clr	a
      000631 08               [12] 2452 	inc	r0
      000632 36               [12] 2453 	addc	a,@r0
      000633 FE               [12] 2454 	mov	r6,a
      000634 08               [12] 2455 	inc	r0
      000635 86 07            [24] 2456 	mov	ar7,@r0
      000637 8C 82            [24] 2457 	mov	dpl,r4
      000639 8E 83            [24] 2458 	mov	dph,r6
      00063B 8F F0            [24] 2459 	mov	b,r7
      00063D 12r00r00         [24] 2460 	lcall	__gptrget
      000640 FC               [12] 2461 	mov	r4,a
      000641 C3               [12] 2462 	clr	c
      000642 9D               [12] 2463 	subb	a,r5
      000643 50 13            [24] 2464 	jnc	00121$
      000645                       2465 00110$:
                                   2466 ;	../../../../core/net/uip6.c:467: conn = cconn;
      000645 A8 81            [24] 2467 	mov	r0,sp
      000647 18               [12] 2468 	dec	r0
      000648 18               [12] 2469 	dec	r0
      000649 E5 81            [12] 2470 	mov	a,sp
      00064B 24 FB            [12] 2471 	add	a,#0xfb
      00064D F9               [12] 2472 	mov	r1,a
      00064E E6               [12] 2473 	mov	a,@r0
      00064F F7               [12] 2474 	mov	@r1,a
      000650 08               [12] 2475 	inc	r0
      000651 09               [12] 2476 	inc	r1
      000652 E6               [12] 2477 	mov	a,@r0
      000653 F7               [12] 2478 	mov	@r1,a
      000654 08               [12] 2479 	inc	r0
      000655 09               [12] 2480 	inc	r1
      000656 E6               [12] 2481 	mov	a,@r0
      000657 F7               [12] 2482 	mov	@r1,a
      000658                       2483 00121$:
                                   2484 ;	../../../../core/net/uip6.c:458: for(c = 0; c < UIP_CONNS; ++c) {
      000658 90r01r09         [24] 2485 	mov	dptr,#_c
      00065B E0               [24] 2486 	movx	a,@dptr
      00065C 24 01            [12] 2487 	add	a,#0x01
      00065E F0               [24] 2488 	movx	@dptr,a
      00065F 90r01r09         [24] 2489 	mov	dptr,#_c
      000662 E0               [24] 2490 	movx	a,@dptr
      000663 FC               [12] 2491 	mov	r4,a
      000664 BC 0A 00         [24] 2492 	cjne	r4,#0x0A,00164$
      000667                       2493 00164$:
      000667 50 03            [24] 2494 	jnc	00165$
      000669 02r05rB5         [24] 2495 	ljmp	00120$
      00066C                       2496 00165$:
      00066C                       2497 00115$:
                                   2498 ;	../../../../core/net/uip6.c:472: if(conn == 0) {
      00066C E5 81            [12] 2499 	mov	a,sp
      00066E 24 FB            [12] 2500 	add	a,#0xfb
      000670 F8               [12] 2501 	mov	r0,a
      000671 E6               [12] 2502 	mov	a,@r0
      000672 08               [12] 2503 	inc	r0
      000673 46               [12] 2504 	orl	a,@r0
                                   2505 ;	../../../../core/net/uip6.c:473: return 0;
      000674 70 08            [24] 2506 	jnz	00117$
      000676 90 00 00         [24] 2507 	mov	dptr,#0x0000
      000679 F5 F0            [12] 2508 	mov	b,a
      00067B 02r09r1C         [24] 2509 	ljmp	00122$
      00067E                       2510 00117$:
                                   2511 ;	../../../../core/net/uip6.c:476: conn->tcpstateflags = UIP_SYN_SENT;
      00067E E5 81            [12] 2512 	mov	a,sp
      000680 24 FB            [12] 2513 	add	a,#0xfb
      000682 F8               [12] 2514 	mov	r0,a
      000683 74 25            [12] 2515 	mov	a,#0x25
      000685 26               [12] 2516 	add	a,@r0
      000686 FA               [12] 2517 	mov	r2,a
      000687 E4               [12] 2518 	clr	a
      000688 08               [12] 2519 	inc	r0
      000689 36               [12] 2520 	addc	a,@r0
      00068A FB               [12] 2521 	mov	r3,a
      00068B 08               [12] 2522 	inc	r0
      00068C 86 04            [24] 2523 	mov	ar4,@r0
      00068E 8A 82            [24] 2524 	mov	dpl,r2
      000690 8B 83            [24] 2525 	mov	dph,r3
      000692 8C F0            [24] 2526 	mov	b,r4
      000694 74 02            [12] 2527 	mov	a,#0x02
      000696 12r00r00         [24] 2528 	lcall	__gptrput
                                   2529 ;	../../../../core/net/uip6.c:478: conn->snd_nxt[0] = iss[0];
      000699 E5 81            [12] 2530 	mov	a,sp
      00069B 24 FB            [12] 2531 	add	a,#0xfb
      00069D F8               [12] 2532 	mov	r0,a
      00069E 74 18            [12] 2533 	mov	a,#0x18
      0006A0 26               [12] 2534 	add	a,@r0
      0006A1 FA               [12] 2535 	mov	r2,a
      0006A2 E4               [12] 2536 	clr	a
      0006A3 08               [12] 2537 	inc	r0
      0006A4 36               [12] 2538 	addc	a,@r0
      0006A5 FB               [12] 2539 	mov	r3,a
      0006A6 08               [12] 2540 	inc	r0
      0006A7 86 04            [24] 2541 	mov	ar4,@r0
      0006A9 90r03r00         [24] 2542 	mov	dptr,#_iss
      0006AC E0               [24] 2543 	movx	a,@dptr
      0006AD 8A 82            [24] 2544 	mov	dpl,r2
      0006AF 8B 83            [24] 2545 	mov	dph,r3
      0006B1 8C F0            [24] 2546 	mov	b,r4
      0006B3 12r00r00         [24] 2547 	lcall	__gptrput
                                   2548 ;	../../../../core/net/uip6.c:479: conn->snd_nxt[1] = iss[1];
      0006B6 E5 81            [12] 2549 	mov	a,sp
      0006B8 24 FB            [12] 2550 	add	a,#0xfb
      0006BA F8               [12] 2551 	mov	r0,a
      0006BB 74 18            [12] 2552 	mov	a,#0x18
      0006BD 26               [12] 2553 	add	a,@r0
      0006BE FD               [12] 2554 	mov	r5,a
      0006BF E4               [12] 2555 	clr	a
      0006C0 08               [12] 2556 	inc	r0
      0006C1 36               [12] 2557 	addc	a,@r0
      0006C2 FE               [12] 2558 	mov	r6,a
      0006C3 08               [12] 2559 	inc	r0
      0006C4 86 07            [24] 2560 	mov	ar7,@r0
      0006C6 E5 81            [12] 2561 	mov	a,sp
      0006C8 24 F8            [12] 2562 	add	a,#0xf8
      0006CA F8               [12] 2563 	mov	r0,a
      0006CB 74 01            [12] 2564 	mov	a,#0x01
      0006CD 2D               [12] 2565 	add	a,r5
      0006CE F6               [12] 2566 	mov	@r0,a
      0006CF E4               [12] 2567 	clr	a
      0006D0 3E               [12] 2568 	addc	a,r6
      0006D1 08               [12] 2569 	inc	r0
      0006D2 F6               [12] 2570 	mov	@r0,a
      0006D3 08               [12] 2571 	inc	r0
      0006D4 A6 07            [24] 2572 	mov	@r0,ar7
      0006D6 90r03r01         [24] 2573 	mov	dptr,#(_iss + 0x0001)
      0006D9 E0               [24] 2574 	movx	a,@dptr
      0006DA FC               [12] 2575 	mov	r4,a
      0006DB E5 81            [12] 2576 	mov	a,sp
      0006DD 24 F8            [12] 2577 	add	a,#0xf8
      0006DF F8               [12] 2578 	mov	r0,a
      0006E0 86 82            [24] 2579 	mov	dpl,@r0
      0006E2 08               [12] 2580 	inc	r0
      0006E3 86 83            [24] 2581 	mov	dph,@r0
      0006E5 08               [12] 2582 	inc	r0
      0006E6 86 F0            [24] 2583 	mov	b,@r0
      0006E8 EC               [12] 2584 	mov	a,r4
      0006E9 12r00r00         [24] 2585 	lcall	__gptrput
                                   2586 ;	../../../../core/net/uip6.c:480: conn->snd_nxt[2] = iss[2];
      0006EC E5 81            [12] 2587 	mov	a,sp
      0006EE 24 F8            [12] 2588 	add	a,#0xf8
      0006F0 F8               [12] 2589 	mov	r0,a
      0006F1 74 02            [12] 2590 	mov	a,#0x02
      0006F3 2D               [12] 2591 	add	a,r5
      0006F4 F6               [12] 2592 	mov	@r0,a
      0006F5 E4               [12] 2593 	clr	a
      0006F6 3E               [12] 2594 	addc	a,r6
      0006F7 08               [12] 2595 	inc	r0
      0006F8 F6               [12] 2596 	mov	@r0,a
      0006F9 08               [12] 2597 	inc	r0
      0006FA A6 07            [24] 2598 	mov	@r0,ar7
      0006FC 90r03r02         [24] 2599 	mov	dptr,#(_iss + 0x0002)
      0006FF E0               [24] 2600 	movx	a,@dptr
      000700 FC               [12] 2601 	mov	r4,a
      000701 E5 81            [12] 2602 	mov	a,sp
      000703 24 F8            [12] 2603 	add	a,#0xf8
      000705 F8               [12] 2604 	mov	r0,a
      000706 86 82            [24] 2605 	mov	dpl,@r0
      000708 08               [12] 2606 	inc	r0
      000709 86 83            [24] 2607 	mov	dph,@r0
      00070B 08               [12] 2608 	inc	r0
      00070C 86 F0            [24] 2609 	mov	b,@r0
      00070E EC               [12] 2610 	mov	a,r4
      00070F 12r00r00         [24] 2611 	lcall	__gptrput
                                   2612 ;	../../../../core/net/uip6.c:481: conn->snd_nxt[3] = iss[3];
      000712 74 03            [12] 2613 	mov	a,#0x03
      000714 2D               [12] 2614 	add	a,r5
      000715 FD               [12] 2615 	mov	r5,a
      000716 E4               [12] 2616 	clr	a
      000717 3E               [12] 2617 	addc	a,r6
      000718 FE               [12] 2618 	mov	r6,a
      000719 90r03r03         [24] 2619 	mov	dptr,#(_iss + 0x0003)
      00071C E0               [24] 2620 	movx	a,@dptr
      00071D 8D 82            [24] 2621 	mov	dpl,r5
      00071F 8E 83            [24] 2622 	mov	dph,r6
      000721 8F F0            [24] 2623 	mov	b,r7
      000723 12r00r00         [24] 2624 	lcall	__gptrput
                                   2625 ;	../../../../core/net/uip6.c:483: conn->rcv_nxt[0] = 0;
      000726 E5 81            [12] 2626 	mov	a,sp
      000728 24 FB            [12] 2627 	add	a,#0xfb
      00072A F8               [12] 2628 	mov	r0,a
      00072B 74 14            [12] 2629 	mov	a,#0x14
      00072D 26               [12] 2630 	add	a,@r0
      00072E FD               [12] 2631 	mov	r5,a
      00072F E4               [12] 2632 	clr	a
      000730 08               [12] 2633 	inc	r0
      000731 36               [12] 2634 	addc	a,@r0
      000732 FE               [12] 2635 	mov	r6,a
      000733 08               [12] 2636 	inc	r0
      000734 86 07            [24] 2637 	mov	ar7,@r0
      000736 8D 82            [24] 2638 	mov	dpl,r5
      000738 8E 83            [24] 2639 	mov	dph,r6
      00073A 8F F0            [24] 2640 	mov	b,r7
      00073C E4               [12] 2641 	clr	a
      00073D 12r00r00         [24] 2642 	lcall	__gptrput
                                   2643 ;	../../../../core/net/uip6.c:484: conn->rcv_nxt[1] = 0;
      000740 E5 81            [12] 2644 	mov	a,sp
      000742 24 FB            [12] 2645 	add	a,#0xfb
      000744 F8               [12] 2646 	mov	r0,a
      000745 74 14            [12] 2647 	mov	a,#0x14
      000747 26               [12] 2648 	add	a,@r0
      000748 FD               [12] 2649 	mov	r5,a
      000749 E4               [12] 2650 	clr	a
      00074A 08               [12] 2651 	inc	r0
      00074B 36               [12] 2652 	addc	a,@r0
      00074C FE               [12] 2653 	mov	r6,a
      00074D 08               [12] 2654 	inc	r0
      00074E 86 07            [24] 2655 	mov	ar7,@r0
      000750 74 01            [12] 2656 	mov	a,#0x01
      000752 2D               [12] 2657 	add	a,r5
      000753 FA               [12] 2658 	mov	r2,a
      000754 E4               [12] 2659 	clr	a
      000755 3E               [12] 2660 	addc	a,r6
      000756 FB               [12] 2661 	mov	r3,a
      000757 8F 04            [24] 2662 	mov	ar4,r7
      000759 8A 82            [24] 2663 	mov	dpl,r2
      00075B 8B 83            [24] 2664 	mov	dph,r3
      00075D 8C F0            [24] 2665 	mov	b,r4
      00075F E4               [12] 2666 	clr	a
      000760 12r00r00         [24] 2667 	lcall	__gptrput
                                   2668 ;	../../../../core/net/uip6.c:485: conn->rcv_nxt[2] = 0;
      000763 74 02            [12] 2669 	mov	a,#0x02
      000765 2D               [12] 2670 	add	a,r5
      000766 FA               [12] 2671 	mov	r2,a
      000767 E4               [12] 2672 	clr	a
      000768 3E               [12] 2673 	addc	a,r6
      000769 FB               [12] 2674 	mov	r3,a
      00076A 8F 04            [24] 2675 	mov	ar4,r7
      00076C 8A 82            [24] 2676 	mov	dpl,r2
      00076E 8B 83            [24] 2677 	mov	dph,r3
      000770 8C F0            [24] 2678 	mov	b,r4
      000772 E4               [12] 2679 	clr	a
      000773 12r00r00         [24] 2680 	lcall	__gptrput
                                   2681 ;	../../../../core/net/uip6.c:486: conn->rcv_nxt[3] = 0;
      000776 74 03            [12] 2682 	mov	a,#0x03
      000778 2D               [12] 2683 	add	a,r5
      000779 FD               [12] 2684 	mov	r5,a
      00077A E4               [12] 2685 	clr	a
      00077B 3E               [12] 2686 	addc	a,r6
      00077C FE               [12] 2687 	mov	r6,a
      00077D 8D 82            [24] 2688 	mov	dpl,r5
      00077F 8E 83            [24] 2689 	mov	dph,r6
      000781 8F F0            [24] 2690 	mov	b,r7
      000783 E4               [12] 2691 	clr	a
      000784 12r00r00         [24] 2692 	lcall	__gptrput
                                   2693 ;	../../../../core/net/uip6.c:488: conn->initialmss = conn->mss = UIP_TCP_MSS;
      000787 E5 81            [12] 2694 	mov	a,sp
      000789 24 FB            [12] 2695 	add	a,#0xfb
      00078B F8               [12] 2696 	mov	r0,a
      00078C 74 20            [12] 2697 	mov	a,#0x20
      00078E 26               [12] 2698 	add	a,@r0
      00078F FD               [12] 2699 	mov	r5,a
      000790 E4               [12] 2700 	clr	a
      000791 08               [12] 2701 	inc	r0
      000792 36               [12] 2702 	addc	a,@r0
      000793 FE               [12] 2703 	mov	r6,a
      000794 08               [12] 2704 	inc	r0
      000795 86 07            [24] 2705 	mov	ar7,@r0
      000797 E5 81            [12] 2706 	mov	a,sp
      000799 24 FB            [12] 2707 	add	a,#0xfb
      00079B F8               [12] 2708 	mov	r0,a
      00079C 74 1E            [12] 2709 	mov	a,#0x1E
      00079E 26               [12] 2710 	add	a,@r0
      00079F FA               [12] 2711 	mov	r2,a
      0007A0 E4               [12] 2712 	clr	a
      0007A1 08               [12] 2713 	inc	r0
      0007A2 36               [12] 2714 	addc	a,@r0
      0007A3 FB               [12] 2715 	mov	r3,a
      0007A4 08               [12] 2716 	inc	r0
      0007A5 86 04            [24] 2717 	mov	ar4,@r0
      0007A7 8A 82            [24] 2718 	mov	dpl,r2
      0007A9 8B 83            [24] 2719 	mov	dph,r3
      0007AB 8C F0            [24] 2720 	mov	b,r4
      0007AD 74 B4            [12] 2721 	mov	a,#0xB4
      0007AF 12r00r00         [24] 2722 	lcall	__gptrput
      0007B2 A3               [24] 2723 	inc	dptr
      0007B3 E4               [12] 2724 	clr	a
      0007B4 12r00r00         [24] 2725 	lcall	__gptrput
      0007B7 8D 82            [24] 2726 	mov	dpl,r5
      0007B9 8E 83            [24] 2727 	mov	dph,r6
      0007BB 8F F0            [24] 2728 	mov	b,r7
      0007BD 74 B4            [12] 2729 	mov	a,#0xB4
      0007BF 12r00r00         [24] 2730 	lcall	__gptrput
      0007C2 A3               [24] 2731 	inc	dptr
      0007C3 E4               [12] 2732 	clr	a
      0007C4 12r00r00         [24] 2733 	lcall	__gptrput
                                   2734 ;	../../../../core/net/uip6.c:490: conn->len = 1;   /* TCP length of the SYN is one. */
      0007C7 E5 81            [12] 2735 	mov	a,sp
      0007C9 24 FB            [12] 2736 	add	a,#0xfb
      0007CB F8               [12] 2737 	mov	r0,a
      0007CC 74 1C            [12] 2738 	mov	a,#0x1C
      0007CE 26               [12] 2739 	add	a,@r0
      0007CF FD               [12] 2740 	mov	r5,a
      0007D0 E4               [12] 2741 	clr	a
      0007D1 08               [12] 2742 	inc	r0
      0007D2 36               [12] 2743 	addc	a,@r0
      0007D3 FE               [12] 2744 	mov	r6,a
      0007D4 08               [12] 2745 	inc	r0
      0007D5 86 07            [24] 2746 	mov	ar7,@r0
      0007D7 8D 82            [24] 2747 	mov	dpl,r5
      0007D9 8E 83            [24] 2748 	mov	dph,r6
      0007DB 8F F0            [24] 2749 	mov	b,r7
      0007DD 74 01            [12] 2750 	mov	a,#0x01
      0007DF 12r00r00         [24] 2751 	lcall	__gptrput
      0007E2 A3               [24] 2752 	inc	dptr
      0007E3 E4               [12] 2753 	clr	a
      0007E4 12r00r00         [24] 2754 	lcall	__gptrput
                                   2755 ;	../../../../core/net/uip6.c:491: conn->nrtx = 0;
      0007E7 E5 81            [12] 2756 	mov	a,sp
      0007E9 24 FB            [12] 2757 	add	a,#0xfb
      0007EB F8               [12] 2758 	mov	r0,a
      0007EC 74 27            [12] 2759 	mov	a,#0x27
      0007EE 26               [12] 2760 	add	a,@r0
      0007EF FD               [12] 2761 	mov	r5,a
      0007F0 E4               [12] 2762 	clr	a
      0007F1 08               [12] 2763 	inc	r0
      0007F2 36               [12] 2764 	addc	a,@r0
      0007F3 FE               [12] 2765 	mov	r6,a
      0007F4 08               [12] 2766 	inc	r0
      0007F5 86 07            [24] 2767 	mov	ar7,@r0
      0007F7 8D 82            [24] 2768 	mov	dpl,r5
      0007F9 8E 83            [24] 2769 	mov	dph,r6
      0007FB 8F F0            [24] 2770 	mov	b,r7
      0007FD E4               [12] 2771 	clr	a
      0007FE 12r00r00         [24] 2772 	lcall	__gptrput
                                   2773 ;	../../../../core/net/uip6.c:492: conn->timer = 1; /* Send the SYN next time around. */
      000801 E5 81            [12] 2774 	mov	a,sp
      000803 24 FB            [12] 2775 	add	a,#0xfb
      000805 F8               [12] 2776 	mov	r0,a
      000806 74 26            [12] 2777 	mov	a,#0x26
      000808 26               [12] 2778 	add	a,@r0
      000809 FD               [12] 2779 	mov	r5,a
      00080A E4               [12] 2780 	clr	a
      00080B 08               [12] 2781 	inc	r0
      00080C 36               [12] 2782 	addc	a,@r0
      00080D FE               [12] 2783 	mov	r6,a
      00080E 08               [12] 2784 	inc	r0
      00080F 86 07            [24] 2785 	mov	ar7,@r0
      000811 8D 82            [24] 2786 	mov	dpl,r5
      000813 8E 83            [24] 2787 	mov	dph,r6
      000815 8F F0            [24] 2788 	mov	b,r7
      000817 74 01            [12] 2789 	mov	a,#0x01
      000819 12r00r00         [24] 2790 	lcall	__gptrput
                                   2791 ;	../../../../core/net/uip6.c:493: conn->rto = UIP_RTO;
      00081C E5 81            [12] 2792 	mov	a,sp
      00081E 24 FB            [12] 2793 	add	a,#0xfb
      000820 F8               [12] 2794 	mov	r0,a
      000821 74 24            [12] 2795 	mov	a,#0x24
      000823 26               [12] 2796 	add	a,@r0
      000824 FD               [12] 2797 	mov	r5,a
      000825 E4               [12] 2798 	clr	a
      000826 08               [12] 2799 	inc	r0
      000827 36               [12] 2800 	addc	a,@r0
      000828 FE               [12] 2801 	mov	r6,a
      000829 08               [12] 2802 	inc	r0
      00082A 86 07            [24] 2803 	mov	ar7,@r0
      00082C 8D 82            [24] 2804 	mov	dpl,r5
      00082E 8E 83            [24] 2805 	mov	dph,r6
      000830 8F F0            [24] 2806 	mov	b,r7
      000832 74 03            [12] 2807 	mov	a,#0x03
      000834 12r00r00         [24] 2808 	lcall	__gptrput
                                   2809 ;	../../../../core/net/uip6.c:494: conn->sa = 0;
      000837 E5 81            [12] 2810 	mov	a,sp
      000839 24 FB            [12] 2811 	add	a,#0xfb
      00083B F8               [12] 2812 	mov	r0,a
      00083C 74 22            [12] 2813 	mov	a,#0x22
      00083E 26               [12] 2814 	add	a,@r0
      00083F FD               [12] 2815 	mov	r5,a
      000840 E4               [12] 2816 	clr	a
      000841 08               [12] 2817 	inc	r0
      000842 36               [12] 2818 	addc	a,@r0
      000843 FE               [12] 2819 	mov	r6,a
      000844 08               [12] 2820 	inc	r0
      000845 86 07            [24] 2821 	mov	ar7,@r0
      000847 8D 82            [24] 2822 	mov	dpl,r5
      000849 8E 83            [24] 2823 	mov	dph,r6
      00084B 8F F0            [24] 2824 	mov	b,r7
      00084D E4               [12] 2825 	clr	a
      00084E 12r00r00         [24] 2826 	lcall	__gptrput
                                   2827 ;	../../../../core/net/uip6.c:495: conn->sv = 16;   /* Initial value of the RTT variance. */
      000851 E5 81            [12] 2828 	mov	a,sp
      000853 24 FB            [12] 2829 	add	a,#0xfb
      000855 F8               [12] 2830 	mov	r0,a
      000856 74 23            [12] 2831 	mov	a,#0x23
      000858 26               [12] 2832 	add	a,@r0
      000859 FD               [12] 2833 	mov	r5,a
      00085A E4               [12] 2834 	clr	a
      00085B 08               [12] 2835 	inc	r0
      00085C 36               [12] 2836 	addc	a,@r0
      00085D FE               [12] 2837 	mov	r6,a
      00085E 08               [12] 2838 	inc	r0
      00085F 86 07            [24] 2839 	mov	ar7,@r0
      000861 8D 82            [24] 2840 	mov	dpl,r5
      000863 8E 83            [24] 2841 	mov	dph,r6
      000865 8F F0            [24] 2842 	mov	b,r7
      000867 74 10            [12] 2843 	mov	a,#0x10
      000869 12r00r00         [24] 2844 	lcall	__gptrput
                                   2845 ;	../../../../core/net/uip6.c:496: conn->lport = uip_htons(lastport);
      00086C E5 81            [12] 2846 	mov	a,sp
      00086E 24 FB            [12] 2847 	add	a,#0xfb
      000870 F8               [12] 2848 	mov	r0,a
      000871 74 10            [12] 2849 	mov	a,#0x10
      000873 26               [12] 2850 	add	a,@r0
      000874 FD               [12] 2851 	mov	r5,a
      000875 E4               [12] 2852 	clr	a
      000876 08               [12] 2853 	inc	r0
      000877 36               [12] 2854 	addc	a,@r0
      000878 FE               [12] 2855 	mov	r6,a
      000879 08               [12] 2856 	inc	r0
      00087A 86 07            [24] 2857 	mov	ar7,@r0
      00087C 90r01r0A         [24] 2858 	mov	dptr,#_lastport
      00087F E0               [24] 2859 	movx	a,@dptr
      000880 FB               [12] 2860 	mov	r3,a
      000881 A3               [24] 2861 	inc	dptr
      000882 E0               [24] 2862 	movx	a,@dptr
      000883 FC               [12] 2863 	mov	r4,a
      000884 8B 82            [24] 2864 	mov	dpl,r3
      000886 8C 83            [24] 2865 	mov	dph,r4
      000888 C0 07            [24] 2866 	push	ar7
      00088A C0 06            [24] 2867 	push	ar6
      00088C C0 05            [24] 2868 	push	ar5
      00088E 78rA5            [12] 2869 	mov	r0,#_uip_htons
      000890 79s3B            [12] 2870 	mov	r1,#(_uip_htons >> 8)
      000892 7As00            [12] 2871 	mov	r2,#(_uip_htons >> 16)
      000894 12r00r00         [24] 2872 	lcall	__sdcc_banked_call
      000897 AB 82            [24] 2873 	mov	r3,dpl
      000899 AC 83            [24] 2874 	mov	r4,dph
      00089B D0 05            [24] 2875 	pop	ar5
      00089D D0 06            [24] 2876 	pop	ar6
      00089F D0 07            [24] 2877 	pop	ar7
      0008A1 8D 82            [24] 2878 	mov	dpl,r5
      0008A3 8E 83            [24] 2879 	mov	dph,r6
      0008A5 8F F0            [24] 2880 	mov	b,r7
      0008A7 EB               [12] 2881 	mov	a,r3
      0008A8 12r00r00         [24] 2882 	lcall	__gptrput
      0008AB A3               [24] 2883 	inc	dptr
      0008AC EC               [12] 2884 	mov	a,r4
      0008AD 12r00r00         [24] 2885 	lcall	__gptrput
                                   2886 ;	../../../../core/net/uip6.c:497: conn->rport = rport;
      0008B0 E5 81            [12] 2887 	mov	a,sp
      0008B2 24 FB            [12] 2888 	add	a,#0xfb
      0008B4 F8               [12] 2889 	mov	r0,a
      0008B5 74 12            [12] 2890 	mov	a,#0x12
      0008B7 26               [12] 2891 	add	a,@r0
      0008B8 FD               [12] 2892 	mov	r5,a
      0008B9 E4               [12] 2893 	clr	a
      0008BA 08               [12] 2894 	inc	r0
      0008BB 36               [12] 2895 	addc	a,@r0
      0008BC FE               [12] 2896 	mov	r6,a
      0008BD 08               [12] 2897 	inc	r0
      0008BE 86 07            [24] 2898 	mov	ar7,@r0
      0008C0 8D 82            [24] 2899 	mov	dpl,r5
      0008C2 8E 83            [24] 2900 	mov	dph,r6
      0008C4 8F F0            [24] 2901 	mov	b,r7
      0008C6 E5 81            [12] 2902 	mov	a,sp
      0008C8 24 F0            [12] 2903 	add	a,#0xf0
      0008CA F8               [12] 2904 	mov	r0,a
      0008CB E6               [12] 2905 	mov	a,@r0
      0008CC 12r00r00         [24] 2906 	lcall	__gptrput
      0008CF A3               [24] 2907 	inc	dptr
      0008D0 08               [12] 2908 	inc	r0
      0008D1 E6               [12] 2909 	mov	a,@r0
      0008D2 12r00r00         [24] 2910 	lcall	__gptrput
                                   2911 ;	../../../../core/net/uip6.c:498: uip_ipaddr_copy(&conn->ripaddr, ripaddr);
      0008D5 E5 81            [12] 2912 	mov	a,sp
      0008D7 24 F5            [12] 2913 	add	a,#0xf5
      0008D9 F8               [12] 2914 	mov	r0,a
      0008DA 86 05            [24] 2915 	mov	ar5,@r0
      0008DC 08               [12] 2916 	inc	r0
      0008DD 86 06            [24] 2917 	mov	ar6,@r0
      0008DF 08               [12] 2918 	inc	r0
      0008E0 86 07            [24] 2919 	mov	ar7,@r0
      0008E2 E5 81            [12] 2920 	mov	a,sp
      0008E4 24 FB            [12] 2921 	add	a,#0xfb
      0008E6 F8               [12] 2922 	mov	r0,a
      0008E7 86 02            [24] 2923 	mov	ar2,@r0
      0008E9 08               [12] 2924 	inc	r0
      0008EA 86 03            [24] 2925 	mov	ar3,@r0
      0008EC 08               [12] 2926 	inc	r0
      0008ED 86 04            [24] 2927 	mov	ar4,@r0
      0008EF 74 10            [12] 2928 	mov	a,#0x10
      0008F1 C0 E0            [24] 2929 	push	acc
      0008F3 E4               [12] 2930 	clr	a
      0008F4 C0 E0            [24] 2931 	push	acc
      0008F6 C0 05            [24] 2932 	push	ar5
      0008F8 C0 06            [24] 2933 	push	ar6
      0008FA C0 07            [24] 2934 	push	ar7
      0008FC 8A 82            [24] 2935 	mov	dpl,r2
      0008FE 8B 83            [24] 2936 	mov	dph,r3
      000900 8C F0            [24] 2937 	mov	b,r4
      000902 78r00            [12] 2938 	mov	r0,#_memcpy
      000904 79s00            [12] 2939 	mov	r1,#(_memcpy >> 8)
      000906 7As00            [12] 2940 	mov	r2,#(_memcpy >> 16)
      000908 12r00r00         [24] 2941 	lcall	__sdcc_banked_call
      00090B E5 81            [12] 2942 	mov	a,sp
      00090D 24 FB            [12] 2943 	add	a,#0xfb
                                   2944 ;	../../../../core/net/uip6.c:500: return conn;
      00090F F5 81            [12] 2945 	mov	sp,a
      000911 24 FB            [12] 2946 	add	a,#0xfb
      000913 F8               [12] 2947 	mov	r0,a
      000914 86 82            [24] 2948 	mov	dpl,@r0
      000916 08               [12] 2949 	inc	r0
      000917 86 83            [24] 2950 	mov	dph,@r0
      000919 08               [12] 2951 	inc	r0
      00091A 86 F0            [24] 2952 	mov	b,@r0
      00091C                       2953 00122$:
      00091C C8               [12] 2954 	xch	a,r0
      00091D E5 81            [12] 2955 	mov	a,sp
      00091F 24 F4            [12] 2956 	add	a,#0xF4
      000921 F5 81            [12] 2957 	mov	sp,a
      000923 C8               [12] 2958 	xch	a,r0
      000924 02r00r00         [24] 2959 	ljmp	__sdcc_banked_ret
                                   2960 ;------------------------------------------------------------
                                   2961 ;Allocation info for local variables in function 'remove_ext_hdr'
                                   2962 ;------------------------------------------------------------
                                   2963 ;	../../../../core/net/uip6.c:505: remove_ext_hdr(void)
                                   2964 ;	-----------------------------------------
                                   2965 ;	 function remove_ext_hdr
                                   2966 ;	-----------------------------------------
      000927                       2967 _remove_ext_hdr:
                                   2968 ;	../../../../core/net/uip6.c:508: if(uip_ext_len > 0) {
      000927 90r00r01         [24] 2969 	mov	dptr,#_uip_ext_len
      00092A E0               [24] 2970 	movx	a,@dptr
      00092B FF               [12] 2971 	mov	r7,a
      00092C 70 03            [24] 2972 	jnz	00113$
      00092E 02r09rED         [24] 2973 	ljmp	00105$
      000931                       2974 00113$:
                                   2975 ;	../../../../core/net/uip6.c:511: if(uip_len < UIP_IPH_LEN + uip_ext_len) {
      000931 8F 05            [24] 2976 	mov	ar5,r7
      000933 7E 00            [12] 2977 	mov	r6,#0x00
      000935 74 28            [12] 2978 	mov	a,#0x28
      000937 2D               [12] 2979 	add	a,r5
      000938 FB               [12] 2980 	mov	r3,a
      000939 E4               [12] 2981 	clr	a
      00093A 3E               [12] 2982 	addc	a,r6
      00093B FC               [12] 2983 	mov	r4,a
      00093C 90r01r01         [24] 2984 	mov	dptr,#_uip_len
      00093F E0               [24] 2985 	movx	a,@dptr
      000940 F9               [12] 2986 	mov	r1,a
      000941 A3               [24] 2987 	inc	dptr
      000942 E0               [24] 2988 	movx	a,@dptr
      000943 FA               [12] 2989 	mov	r2,a
      000944 C3               [12] 2990 	clr	c
      000945 E9               [12] 2991 	mov	a,r1
      000946 9B               [12] 2992 	subb	a,r3
      000947 EA               [12] 2993 	mov	a,r2
      000948 9C               [12] 2994 	subb	a,r4
      000949 50 0F            [24] 2995 	jnc	00102$
                                   2996 ;	../../../../core/net/uip6.c:513: uip_ext_len = 0;
      00094B 90r00r01         [24] 2997 	mov	dptr,#_uip_ext_len
                                   2998 ;	../../../../core/net/uip6.c:514: uip_len = 0;
      00094E E4               [12] 2999 	clr	a
      00094F F0               [24] 3000 	movx	@dptr,a
      000950 90r01r01         [24] 3001 	mov	dptr,#_uip_len
      000953 F0               [24] 3002 	movx	@dptr,a
      000954 E4               [12] 3003 	clr	a
      000955 A3               [24] 3004 	inc	dptr
      000956 F0               [24] 3005 	movx	@dptr,a
                                   3006 ;	../../../../core/net/uip6.c:515: return;
      000957 02r09rED         [24] 3007 	ljmp	00105$
      00095A                       3008 00102$:
                                   3009 ;	../../../../core/net/uip6.c:518: uip_len - UIP_IPH_LEN - uip_ext_len);
      00095A E9               [12] 3010 	mov	a,r1
      00095B 24 D8            [12] 3011 	add	a,#0xD8
      00095D F9               [12] 3012 	mov	r1,a
      00095E EA               [12] 3013 	mov	a,r2
      00095F 34 FF            [12] 3014 	addc	a,#0xFF
      000961 FA               [12] 3015 	mov	r2,a
      000962 E9               [12] 3016 	mov	a,r1
      000963 C3               [12] 3017 	clr	c
      000964 9D               [12] 3018 	subb	a,r5
      000965 F9               [12] 3019 	mov	r1,a
      000966 EA               [12] 3020 	mov	a,r2
      000967 9E               [12] 3021 	subb	a,r6
      000968 FA               [12] 3022 	mov	r2,a
                                   3023 ;	../../../../core/net/uip6.c:517: memmove(((uint8_t *)UIP_TCP_BUF), (uint8_t *)UIP_TCP_BUF + uip_ext_len,
      000969 EF               [12] 3024 	mov	a,r7
      00096A 24r33            [12] 3025 	add	a,#(_uip_aligned_buf + 0x0028)
      00096C FF               [12] 3026 	mov	r7,a
      00096D E4               [12] 3027 	clr	a
      00096E 34s00            [12] 3028 	addc	a,#((_uip_aligned_buf + 0x0028) >> 8)
      000970 FE               [12] 3029 	mov	r6,a
      000971 7D 00            [12] 3030 	mov	r5,#0x00
      000973 C0 01            [24] 3031 	push	ar1
      000975 C0 02            [24] 3032 	push	ar2
      000977 C0 07            [24] 3033 	push	ar7
      000979 C0 06            [24] 3034 	push	ar6
      00097B C0 05            [24] 3035 	push	ar5
      00097D 90r00r33         [24] 3036 	mov	dptr,#(_uip_aligned_buf + 0x0028)
      000980 75 F0 00         [24] 3037 	mov	b,#0x00
      000983 78r00            [12] 3038 	mov	r0,#_memmove
      000985 79s00            [12] 3039 	mov	r1,#(_memmove >> 8)
      000987 7As00            [12] 3040 	mov	r2,#(_memmove >> 16)
      000989 12r00r00         [24] 3041 	lcall	__sdcc_banked_call
      00098C E5 81            [12] 3042 	mov	a,sp
      00098E 24 FB            [12] 3043 	add	a,#0xfb
      000990 F5 81            [12] 3044 	mov	sp,a
                                   3045 ;	../../../../core/net/uip6.c:520: uip_len -= uip_ext_len;
      000992 90r00r01         [24] 3046 	mov	dptr,#_uip_ext_len
      000995 E0               [24] 3047 	movx	a,@dptr
      000996 FF               [12] 3048 	mov	r7,a
      000997 7E 00            [12] 3049 	mov	r6,#0x00
      000999 90r01r01         [24] 3050 	mov	dptr,#_uip_len
      00099C E0               [24] 3051 	movx	a,@dptr
      00099D FC               [12] 3052 	mov	r4,a
      00099E A3               [24] 3053 	inc	dptr
      00099F E0               [24] 3054 	movx	a,@dptr
      0009A0 FD               [12] 3055 	mov	r5,a
      0009A1 90r01r01         [24] 3056 	mov	dptr,#_uip_len
      0009A4 EC               [12] 3057 	mov	a,r4
      0009A5 C3               [12] 3058 	clr	c
      0009A6 9F               [12] 3059 	subb	a,r7
      0009A7 F0               [24] 3060 	movx	@dptr,a
      0009A8 ED               [12] 3061 	mov	a,r5
      0009A9 9E               [12] 3062 	subb	a,r6
      0009AA A3               [24] 3063 	inc	dptr
      0009AB F0               [24] 3064 	movx	@dptr,a
                                   3065 ;	../../../../core/net/uip6.c:523: UIP_IP_BUF->len[0] = (uip_len - UIP_IPH_LEN) >> 8;
      0009AC 7Er0B            [12] 3066 	mov	r6,#_uip_aligned_buf
      0009AE 7Fs00            [12] 3067 	mov	r7,#(_uip_aligned_buf >> 8)
      0009B0 74 04            [12] 3068 	mov	a,#0x04
      0009B2 2E               [12] 3069 	add	a,r6
      0009B3 FE               [12] 3070 	mov	r6,a
      0009B4 E4               [12] 3071 	clr	a
      0009B5 3F               [12] 3072 	addc	a,r7
      0009B6 FF               [12] 3073 	mov	r7,a
      0009B7 90r01r01         [24] 3074 	mov	dptr,#_uip_len
      0009BA E0               [24] 3075 	movx	a,@dptr
      0009BB FC               [12] 3076 	mov	r4,a
      0009BC A3               [24] 3077 	inc	dptr
      0009BD E0               [24] 3078 	movx	a,@dptr
      0009BE FD               [12] 3079 	mov	r5,a
      0009BF EC               [12] 3080 	mov	a,r4
      0009C0 24 D8            [12] 3081 	add	a,#0xD8
      0009C2 ED               [12] 3082 	mov	a,r5
      0009C3 34 FF            [12] 3083 	addc	a,#0xFF
      0009C5 FC               [12] 3084 	mov	r4,a
      0009C6 8E 82            [24] 3085 	mov	dpl,r6
      0009C8 8F 83            [24] 3086 	mov	dph,r7
      0009CA EC               [12] 3087 	mov	a,r4
      0009CB F0               [24] 3088 	movx	@dptr,a
                                   3089 ;	../../../../core/net/uip6.c:524: UIP_IP_BUF->len[1] = (uip_len - UIP_IPH_LEN) & 0xff;
      0009CC 7Er0B            [12] 3090 	mov	r6,#_uip_aligned_buf
      0009CE 7Fs00            [12] 3091 	mov	r7,#(_uip_aligned_buf >> 8)
      0009D0 74 05            [12] 3092 	mov	a,#0x05
      0009D2 2E               [12] 3093 	add	a,r6
      0009D3 FE               [12] 3094 	mov	r6,a
      0009D4 E4               [12] 3095 	clr	a
      0009D5 3F               [12] 3096 	addc	a,r7
      0009D6 FF               [12] 3097 	mov	r7,a
      0009D7 90r01r01         [24] 3098 	mov	dptr,#_uip_len
      0009DA E0               [24] 3099 	movx	a,@dptr
      0009DB FC               [12] 3100 	mov	r4,a
      0009DC A3               [24] 3101 	inc	dptr
      0009DD E0               [24] 3102 	movx	a,@dptr
      0009DE FD               [12] 3103 	mov	r5,a
      0009DF EC               [12] 3104 	mov	a,r4
      0009E0 24 D8            [12] 3105 	add	a,#0xD8
      0009E2 FC               [12] 3106 	mov	r4,a
      0009E3 8E 82            [24] 3107 	mov	dpl,r6
      0009E5 8F 83            [24] 3108 	mov	dph,r7
      0009E7 F0               [24] 3109 	movx	@dptr,a
                                   3110 ;	../../../../core/net/uip6.c:525: uip_ext_len = 0;
      0009E8 90r00r01         [24] 3111 	mov	dptr,#_uip_ext_len
      0009EB E4               [12] 3112 	clr	a
      0009EC F0               [24] 3113 	movx	@dptr,a
      0009ED                       3114 00105$:
      0009ED 02r00r00         [24] 3115 	ljmp	__sdcc_banked_ret
                                   3116 ;------------------------------------------------------------
                                   3117 ;Allocation info for local variables in function 'uip_udp_new'
                                   3118 ;------------------------------------------------------------
                                   3119 ;rport                     Allocated to stack - sp -13
                                   3120 ;ripaddr                   Allocated to stack - sp -8
                                   3121 ;conn                      Allocated to stack - sp -2
                                   3122 ;sloc0                     Allocated to stack - sp -5
                                   3123 ;------------------------------------------------------------
                                   3124 ;	../../../../core/net/uip6.c:531: uip_udp_new(const uip_ipaddr_t *ripaddr, uint16_t rport)
                                   3125 ;	-----------------------------------------
                                   3126 ;	 function uip_udp_new
                                   3127 ;	-----------------------------------------
      0009F0                       3128 _uip_udp_new:
      0009F0 C0 82            [24] 3129 	push	dpl
      0009F2 C0 83            [24] 3130 	push	dph
      0009F4 C0 F0            [24] 3131 	push	b
      0009F6 E5 81            [12] 3132 	mov	a,sp
      0009F8 24 06            [12] 3133 	add	a,#0x06
      0009FA F5 81            [12] 3134 	mov	sp,a
                                   3135 ;	../../../../core/net/uip6.c:536: again:
      0009FC                       3136 00101$:
                                   3137 ;	../../../../core/net/uip6.c:537: ++lastport;
      0009FC 90r01r0A         [24] 3138 	mov	dptr,#_lastport
      0009FF E0               [24] 3139 	movx	a,@dptr
      000A00 24 01            [12] 3140 	add	a,#0x01
      000A02 F0               [24] 3141 	movx	@dptr,a
      000A03 A3               [24] 3142 	inc	dptr
      000A04 E0               [24] 3143 	movx	a,@dptr
      000A05 34 00            [12] 3144 	addc	a,#0x00
      000A07 F0               [24] 3145 	movx	@dptr,a
                                   3146 ;	../../../../core/net/uip6.c:539: if(lastport >= 32000) {
      000A08 90r01r0A         [24] 3147 	mov	dptr,#_lastport
      000A0B E0               [24] 3148 	movx	a,@dptr
      000A0C FB               [12] 3149 	mov	r3,a
      000A0D A3               [24] 3150 	inc	dptr
      000A0E E0               [24] 3151 	movx	a,@dptr
      000A0F FC               [12] 3152 	mov	r4,a
      000A10 C3               [12] 3153 	clr	c
      000A11 94 7D            [12] 3154 	subb	a,#0x7D
      000A13 40 09            [24] 3155 	jc	00103$
                                   3156 ;	../../../../core/net/uip6.c:540: lastport = 4096;
      000A15 90r01r0A         [24] 3157 	mov	dptr,#_lastport
      000A18 E4               [12] 3158 	clr	a
      000A19 F0               [24] 3159 	movx	@dptr,a
      000A1A 74 10            [12] 3160 	mov	a,#0x10
      000A1C A3               [24] 3161 	inc	dptr
      000A1D F0               [24] 3162 	movx	@dptr,a
      000A1E                       3163 00103$:
                                   3164 ;	../../../../core/net/uip6.c:543: for(c = 0; c < UIP_UDP_CONNS; ++c) {
      000A1E 90r01r09         [24] 3165 	mov	dptr,#_c
      000A21 E4               [12] 3166 	clr	a
      000A22 F0               [24] 3167 	movx	@dptr,a
      000A23                       3168 00115$:
                                   3169 ;	../../../../core/net/uip6.c:544: if(uip_udp_conns[c].lport == uip_htons(lastport)) {
      000A23 90r01r09         [24] 3170 	mov	dptr,#_c
      000A26 E0               [24] 3171 	movx	a,@dptr
      000A27 75 F0 1B         [24] 3172 	mov	b,#0x1B
      000A2A A4               [48] 3173 	mul	ab
      000A2B 24r0E            [12] 3174 	add	a,#_uip_udp_conns
      000A2D FB               [12] 3175 	mov	r3,a
      000A2E 74s03            [12] 3176 	mov	a,#(_uip_udp_conns >> 8)
      000A30 35 F0            [12] 3177 	addc	a,b
      000A32 FC               [12] 3178 	mov	r4,a
      000A33 74 10            [12] 3179 	mov	a,#0x10
      000A35 2B               [12] 3180 	add	a,r3
      000A36 F5 82            [12] 3181 	mov	dpl,a
      000A38 E4               [12] 3182 	clr	a
      000A39 3C               [12] 3183 	addc	a,r4
      000A3A F5 83            [12] 3184 	mov	dph,a
      000A3C E0               [24] 3185 	movx	a,@dptr
      000A3D FB               [12] 3186 	mov	r3,a
      000A3E A3               [24] 3187 	inc	dptr
      000A3F E0               [24] 3188 	movx	a,@dptr
      000A40 FC               [12] 3189 	mov	r4,a
      000A41 90r01r0A         [24] 3190 	mov	dptr,#_lastport
      000A44 E0               [24] 3191 	movx	a,@dptr
      000A45 FA               [12] 3192 	mov	r2,a
      000A46 A3               [24] 3193 	inc	dptr
      000A47 E0               [24] 3194 	movx	a,@dptr
      000A48 FF               [12] 3195 	mov	r7,a
      000A49 8A 82            [24] 3196 	mov	dpl,r2
      000A4B 8F 83            [24] 3197 	mov	dph,r7
      000A4D C0 04            [24] 3198 	push	ar4
      000A4F C0 03            [24] 3199 	push	ar3
      000A51 78rA5            [12] 3200 	mov	r0,#_uip_htons
      000A53 79s3B            [12] 3201 	mov	r1,#(_uip_htons >> 8)
      000A55 7As00            [12] 3202 	mov	r2,#(_uip_htons >> 16)
      000A57 12r00r00         [24] 3203 	lcall	__sdcc_banked_call
      000A5A AE 82            [24] 3204 	mov	r6,dpl
      000A5C AF 83            [24] 3205 	mov	r7,dph
      000A5E D0 03            [24] 3206 	pop	ar3
      000A60 D0 04            [24] 3207 	pop	ar4
      000A62 EB               [12] 3208 	mov	a,r3
      000A63 B5 06 06         [24] 3209 	cjne	a,ar6,00149$
      000A66 EC               [12] 3210 	mov	a,r4
      000A67 B5 07 02         [24] 3211 	cjne	a,ar7,00149$
      000A6A 80 90            [24] 3212 	sjmp	00101$
      000A6C                       3213 00149$:
                                   3214 ;	../../../../core/net/uip6.c:543: for(c = 0; c < UIP_UDP_CONNS; ++c) {
      000A6C 90r01r09         [24] 3215 	mov	dptr,#_c
      000A6F E0               [24] 3216 	movx	a,@dptr
      000A70 24 01            [12] 3217 	add	a,#0x01
      000A72 F0               [24] 3218 	movx	@dptr,a
      000A73 90r01r09         [24] 3219 	mov	dptr,#_c
      000A76 E0               [24] 3220 	movx	a,@dptr
      000A77 FC               [12] 3221 	mov	r4,a
      000A78 BC 0A 00         [24] 3222 	cjne	r4,#0x0A,00150$
      000A7B                       3223 00150$:
      000A7B 40 A6            [24] 3224 	jc	00115$
                                   3225 ;	../../../../core/net/uip6.c:549: conn = 0;
      000A7D A8 81            [24] 3226 	mov	r0,sp
      000A7F 18               [12] 3227 	dec	r0
      000A80 18               [12] 3228 	dec	r0
      000A81 E4               [12] 3229 	clr	a
      000A82 F6               [12] 3230 	mov	@r0,a
      000A83 08               [12] 3231 	inc	r0
      000A84 F6               [12] 3232 	mov	@r0,a
      000A85 08               [12] 3233 	inc	r0
      000A86 76 00            [12] 3234 	mov	@r0,#0x00
                                   3235 ;	../../../../core/net/uip6.c:550: for(c = 0; c < UIP_UDP_CONNS; ++c) {
      000A88 90r01r09         [24] 3236 	mov	dptr,#_c
      000A8B E4               [12] 3237 	clr	a
      000A8C F0               [24] 3238 	movx	@dptr,a
      000A8D                       3239 00117$:
                                   3240 ;	../../../../core/net/uip6.c:551: if(uip_udp_conns[c].lport == 0) {
      000A8D 90r01r09         [24] 3241 	mov	dptr,#_c
      000A90 E0               [24] 3242 	movx	a,@dptr
      000A91 FF               [12] 3243 	mov	r7,a
      000A92 75 F0 1B         [24] 3244 	mov	b,#0x1B
      000A95 A4               [48] 3245 	mul	ab
      000A96 24r0E            [12] 3246 	add	a,#_uip_udp_conns
      000A98 FD               [12] 3247 	mov	r5,a
      000A99 74s03            [12] 3248 	mov	a,#(_uip_udp_conns >> 8)
      000A9B 35 F0            [12] 3249 	addc	a,b
      000A9D FE               [12] 3250 	mov	r6,a
      000A9E 74 10            [12] 3251 	mov	a,#0x10
      000AA0 2D               [12] 3252 	add	a,r5
      000AA1 F5 82            [12] 3253 	mov	dpl,a
      000AA3 E4               [12] 3254 	clr	a
      000AA4 3E               [12] 3255 	addc	a,r6
      000AA5 F5 83            [12] 3256 	mov	dph,a
      000AA7 E0               [24] 3257 	movx	a,@dptr
      000AA8 FB               [12] 3258 	mov	r3,a
      000AA9 A3               [24] 3259 	inc	dptr
      000AAA E0               [24] 3260 	movx	a,@dptr
      000AAB FC               [12] 3261 	mov	r4,a
      000AAC 4B               [12] 3262 	orl	a,r3
      000AAD 70 0E            [24] 3263 	jnz	00118$
                                   3264 ;	../../../../core/net/uip6.c:552: conn = &uip_udp_conns[c];
      000AAF A8 81            [24] 3265 	mov	r0,sp
      000AB1 18               [12] 3266 	dec	r0
      000AB2 18               [12] 3267 	dec	r0
      000AB3 A6 05            [24] 3268 	mov	@r0,ar5
      000AB5 08               [12] 3269 	inc	r0
      000AB6 A6 06            [24] 3270 	mov	@r0,ar6
      000AB8 08               [12] 3271 	inc	r0
      000AB9 76 00            [12] 3272 	mov	@r0,#0x00
                                   3273 ;	../../../../core/net/uip6.c:553: break;
      000ABB 80 10            [24] 3274 	sjmp	00109$
      000ABD                       3275 00118$:
                                   3276 ;	../../../../core/net/uip6.c:550: for(c = 0; c < UIP_UDP_CONNS; ++c) {
      000ABD 90r01r09         [24] 3277 	mov	dptr,#_c
      000AC0 EF               [12] 3278 	mov	a,r7
      000AC1 04               [12] 3279 	inc	a
      000AC2 F0               [24] 3280 	movx	@dptr,a
      000AC3 90r01r09         [24] 3281 	mov	dptr,#_c
      000AC6 E0               [24] 3282 	movx	a,@dptr
      000AC7 FF               [12] 3283 	mov	r7,a
      000AC8 BF 0A 00         [24] 3284 	cjne	r7,#0x0A,00153$
      000ACB                       3285 00153$:
      000ACB 40 C0            [24] 3286 	jc	00117$
      000ACD                       3287 00109$:
                                   3288 ;	../../../../core/net/uip6.c:557: if(conn == 0) {
      000ACD A8 81            [24] 3289 	mov	r0,sp
      000ACF 18               [12] 3290 	dec	r0
      000AD0 18               [12] 3291 	dec	r0
      000AD1 E6               [12] 3292 	mov	a,@r0
      000AD2 08               [12] 3293 	inc	r0
      000AD3 46               [12] 3294 	orl	a,@r0
                                   3295 ;	../../../../core/net/uip6.c:558: return 0;
      000AD4 70 08            [24] 3296 	jnz	00111$
      000AD6 90 00 00         [24] 3297 	mov	dptr,#0x0000
      000AD9 F5 F0            [12] 3298 	mov	b,a
      000ADB 02r0BrDF         [24] 3299 	ljmp	00119$
      000ADE                       3300 00111$:
                                   3301 ;	../../../../core/net/uip6.c:561: conn->lport = UIP_HTONS(lastport);
      000ADE A8 81            [24] 3302 	mov	r0,sp
      000AE0 18               [12] 3303 	dec	r0
      000AE1 18               [12] 3304 	dec	r0
      000AE2 E5 81            [12] 3305 	mov	a,sp
      000AE4 24 FB            [12] 3306 	add	a,#0xfb
      000AE6 F9               [12] 3307 	mov	r1,a
      000AE7 74 10            [12] 3308 	mov	a,#0x10
      000AE9 26               [12] 3309 	add	a,@r0
      000AEA F7               [12] 3310 	mov	@r1,a
      000AEB E4               [12] 3311 	clr	a
      000AEC 08               [12] 3312 	inc	r0
      000AED 36               [12] 3313 	addc	a,@r0
      000AEE 09               [12] 3314 	inc	r1
      000AEF F7               [12] 3315 	mov	@r1,a
      000AF0 08               [12] 3316 	inc	r0
      000AF1 09               [12] 3317 	inc	r1
      000AF2 E6               [12] 3318 	mov	a,@r0
      000AF3 F7               [12] 3319 	mov	@r1,a
      000AF4 90r01r0A         [24] 3320 	mov	dptr,#_lastport
      000AF7 E0               [24] 3321 	movx	a,@dptr
      000AF8 FB               [12] 3322 	mov	r3,a
      000AF9 A3               [24] 3323 	inc	dptr
      000AFA E0               [24] 3324 	movx	a,@dptr
      000AFB FC               [12] 3325 	mov	r4,a
      000AFC 8B 07            [24] 3326 	mov	ar7,r3
      000AFE 7A 00            [12] 3327 	mov	r2,#0x00
      000B00 8C 03            [24] 3328 	mov	ar3,r4
      000B02 7C 00            [12] 3329 	mov	r4,#0x00
      000B04 EB               [12] 3330 	mov	a,r3
      000B05 42 02            [12] 3331 	orl	ar2,a
      000B07 EC               [12] 3332 	mov	a,r4
      000B08 42 07            [12] 3333 	orl	ar7,a
      000B0A E5 81            [12] 3334 	mov	a,sp
      000B0C 24 FB            [12] 3335 	add	a,#0xfb
      000B0E F8               [12] 3336 	mov	r0,a
      000B0F 86 82            [24] 3337 	mov	dpl,@r0
      000B11 08               [12] 3338 	inc	r0
      000B12 86 83            [24] 3339 	mov	dph,@r0
      000B14 08               [12] 3340 	inc	r0
      000B15 86 F0            [24] 3341 	mov	b,@r0
      000B17 EA               [12] 3342 	mov	a,r2
      000B18 12r00r00         [24] 3343 	lcall	__gptrput
      000B1B A3               [24] 3344 	inc	dptr
      000B1C EF               [12] 3345 	mov	a,r7
      000B1D 12r00r00         [24] 3346 	lcall	__gptrput
                                   3347 ;	../../../../core/net/uip6.c:562: conn->rport = rport;
      000B20 A8 81            [24] 3348 	mov	r0,sp
      000B22 18               [12] 3349 	dec	r0
      000B23 18               [12] 3350 	dec	r0
      000B24 74 12            [12] 3351 	mov	a,#0x12
      000B26 26               [12] 3352 	add	a,@r0
      000B27 FD               [12] 3353 	mov	r5,a
      000B28 E4               [12] 3354 	clr	a
      000B29 08               [12] 3355 	inc	r0
      000B2A 36               [12] 3356 	addc	a,@r0
      000B2B FE               [12] 3357 	mov	r6,a
      000B2C 08               [12] 3358 	inc	r0
      000B2D 86 07            [24] 3359 	mov	ar7,@r0
      000B2F 8D 82            [24] 3360 	mov	dpl,r5
      000B31 8E 83            [24] 3361 	mov	dph,r6
      000B33 8F F0            [24] 3362 	mov	b,r7
      000B35 E5 81            [12] 3363 	mov	a,sp
      000B37 24 F3            [12] 3364 	add	a,#0xf3
      000B39 F8               [12] 3365 	mov	r0,a
      000B3A E6               [12] 3366 	mov	a,@r0
      000B3B 12r00r00         [24] 3367 	lcall	__gptrput
      000B3E A3               [24] 3368 	inc	dptr
      000B3F 08               [12] 3369 	inc	r0
      000B40 E6               [12] 3370 	mov	a,@r0
      000B41 12r00r00         [24] 3371 	lcall	__gptrput
                                   3372 ;	../../../../core/net/uip6.c:563: if(ripaddr == NULL) {
      000B44 E5 81            [12] 3373 	mov	a,sp
      000B46 24 F8            [12] 3374 	add	a,#0xf8
      000B48 F8               [12] 3375 	mov	r0,a
      000B49 E6               [12] 3376 	mov	a,@r0
      000B4A 08               [12] 3377 	inc	r0
      000B4B 46               [12] 3378 	orl	a,@r0
      000B4C 70 2D            [24] 3379 	jnz	00113$
                                   3380 ;	../../../../core/net/uip6.c:564: memset(&conn->ripaddr, 0, sizeof(uip_ipaddr_t));
      000B4E A8 81            [24] 3381 	mov	r0,sp
      000B50 18               [12] 3382 	dec	r0
      000B51 18               [12] 3383 	dec	r0
      000B52 86 05            [24] 3384 	mov	ar5,@r0
      000B54 08               [12] 3385 	inc	r0
      000B55 86 06            [24] 3386 	mov	ar6,@r0
      000B57 08               [12] 3387 	inc	r0
      000B58 86 07            [24] 3388 	mov	ar7,@r0
      000B5A 74 10            [12] 3389 	mov	a,#0x10
      000B5C C0 E0            [24] 3390 	push	acc
      000B5E E4               [12] 3391 	clr	a
      000B5F C0 E0            [24] 3392 	push	acc
      000B61 E4               [12] 3393 	clr	a
      000B62 C0 E0            [24] 3394 	push	acc
      000B64 8D 82            [24] 3395 	mov	dpl,r5
      000B66 8E 83            [24] 3396 	mov	dph,r6
      000B68 8F F0            [24] 3397 	mov	b,r7
      000B6A 78r00            [12] 3398 	mov	r0,#_memset
      000B6C 79s00            [12] 3399 	mov	r1,#(_memset >> 8)
      000B6E 7As00            [12] 3400 	mov	r2,#(_memset >> 16)
      000B70 12r00r00         [24] 3401 	lcall	__sdcc_banked_call
      000B73 15 81            [12] 3402 	dec	sp
      000B75 15 81            [12] 3403 	dec	sp
      000B77 15 81            [12] 3404 	dec	sp
      000B79 80 3B            [24] 3405 	sjmp	00114$
      000B7B                       3406 00113$:
                                   3407 ;	../../../../core/net/uip6.c:566: uip_ipaddr_copy(&conn->ripaddr, ripaddr);
      000B7B E5 81            [12] 3408 	mov	a,sp
      000B7D 24 F8            [12] 3409 	add	a,#0xf8
      000B7F F8               [12] 3410 	mov	r0,a
      000B80 86 05            [24] 3411 	mov	ar5,@r0
      000B82 08               [12] 3412 	inc	r0
      000B83 86 06            [24] 3413 	mov	ar6,@r0
      000B85 08               [12] 3414 	inc	r0
      000B86 86 07            [24] 3415 	mov	ar7,@r0
      000B88 A8 81            [24] 3416 	mov	r0,sp
      000B8A 18               [12] 3417 	dec	r0
      000B8B 18               [12] 3418 	dec	r0
      000B8C 86 02            [24] 3419 	mov	ar2,@r0
      000B8E 08               [12] 3420 	inc	r0
      000B8F 86 03            [24] 3421 	mov	ar3,@r0
      000B91 08               [12] 3422 	inc	r0
      000B92 86 04            [24] 3423 	mov	ar4,@r0
      000B94 74 10            [12] 3424 	mov	a,#0x10
      000B96 C0 E0            [24] 3425 	push	acc
      000B98 E4               [12] 3426 	clr	a
      000B99 C0 E0            [24] 3427 	push	acc
      000B9B C0 05            [24] 3428 	push	ar5
      000B9D C0 06            [24] 3429 	push	ar6
      000B9F C0 07            [24] 3430 	push	ar7
      000BA1 8A 82            [24] 3431 	mov	dpl,r2
      000BA3 8B 83            [24] 3432 	mov	dph,r3
      000BA5 8C F0            [24] 3433 	mov	b,r4
      000BA7 78r00            [12] 3434 	mov	r0,#_memcpy
      000BA9 79s00            [12] 3435 	mov	r1,#(_memcpy >> 8)
      000BAB 7As00            [12] 3436 	mov	r2,#(_memcpy >> 16)
      000BAD 12r00r00         [24] 3437 	lcall	__sdcc_banked_call
      000BB0 E5 81            [12] 3438 	mov	a,sp
      000BB2 24 FB            [12] 3439 	add	a,#0xfb
      000BB4 F5 81            [12] 3440 	mov	sp,a
      000BB6                       3441 00114$:
                                   3442 ;	../../../../core/net/uip6.c:568: conn->ttl = uip_ds6_if.cur_hop_limit;
      000BB6 A8 81            [24] 3443 	mov	r0,sp
      000BB8 18               [12] 3444 	dec	r0
      000BB9 18               [12] 3445 	dec	r0
      000BBA 74 14            [12] 3446 	mov	a,#0x14
      000BBC 26               [12] 3447 	add	a,@r0
      000BBD FD               [12] 3448 	mov	r5,a
      000BBE E4               [12] 3449 	clr	a
      000BBF 08               [12] 3450 	inc	r0
      000BC0 36               [12] 3451 	addc	a,@r0
      000BC1 FE               [12] 3452 	mov	r6,a
      000BC2 08               [12] 3453 	inc	r0
      000BC3 86 07            [24] 3454 	mov	ar7,@r0
      000BC5 90r00r04         [24] 3455 	mov	dptr,#(_uip_ds6_if + 0x0004)
      000BC8 E0               [24] 3456 	movx	a,@dptr
      000BC9 FC               [12] 3457 	mov	r4,a
      000BCA 8D 82            [24] 3458 	mov	dpl,r5
      000BCC 8E 83            [24] 3459 	mov	dph,r6
      000BCE 8F F0            [24] 3460 	mov	b,r7
      000BD0 12r00r00         [24] 3461 	lcall	__gptrput
                                   3462 ;	../../../../core/net/uip6.c:570: return conn;
      000BD3 A8 81            [24] 3463 	mov	r0,sp
      000BD5 18               [12] 3464 	dec	r0
      000BD6 18               [12] 3465 	dec	r0
      000BD7 86 82            [24] 3466 	mov	dpl,@r0
      000BD9 08               [12] 3467 	inc	r0
      000BDA 86 83            [24] 3468 	mov	dph,@r0
      000BDC 08               [12] 3469 	inc	r0
      000BDD 86 F0            [24] 3470 	mov	b,@r0
      000BDF                       3471 00119$:
      000BDF C8               [12] 3472 	xch	a,r0
      000BE0 E5 81            [12] 3473 	mov	a,sp
      000BE2 24 F7            [12] 3474 	add	a,#0xF7
      000BE4 F5 81            [12] 3475 	mov	sp,a
      000BE6 C8               [12] 3476 	xch	a,r0
      000BE7 02r00r00         [24] 3477 	ljmp	__sdcc_banked_ret
                                   3478 ;------------------------------------------------------------
                                   3479 ;Allocation info for local variables in function 'uip_unlisten'
                                   3480 ;------------------------------------------------------------
                                   3481 ;port                      Allocated to registers r6 r7 
                                   3482 ;------------------------------------------------------------
                                   3483 ;	../../../../core/net/uip6.c:576: uip_unlisten(uint16_t port)
                                   3484 ;	-----------------------------------------
                                   3485 ;	 function uip_unlisten
                                   3486 ;	-----------------------------------------
      000BEA                       3487 _uip_unlisten:
      000BEA AE 82            [24] 3488 	mov	r6,dpl
      000BEC AF 83            [24] 3489 	mov	r7,dph
                                   3490 ;	../../../../core/net/uip6.c:578: for(c = 0; c < UIP_LISTENPORTS; ++c) {
      000BEE 90r01r09         [24] 3491 	mov	dptr,#_c
      000BF1 E4               [12] 3492 	clr	a
      000BF2 F0               [24] 3493 	movx	@dptr,a
      000BF3                       3494 00104$:
                                   3495 ;	../../../../core/net/uip6.c:579: if(uip_listenports[c] == port) {
      000BF3 90r01r09         [24] 3496 	mov	dptr,#_c
      000BF6 E0               [24] 3497 	movx	a,@dptr
      000BF7 FD               [12] 3498 	mov	r5,a
      000BF8 75 F0 02         [24] 3499 	mov	b,#0x02
      000BFB A4               [48] 3500 	mul	ab
      000BFC 24rD8            [12] 3501 	add	a,#_uip_listenports
      000BFE FB               [12] 3502 	mov	r3,a
      000BFF 74s02            [12] 3503 	mov	a,#(_uip_listenports >> 8)
      000C01 35 F0            [12] 3504 	addc	a,b
      000C03 FC               [12] 3505 	mov	r4,a
      000C04 8B 82            [24] 3506 	mov	dpl,r3
      000C06 8C 83            [24] 3507 	mov	dph,r4
      000C08 E0               [24] 3508 	movx	a,@dptr
      000C09 F9               [12] 3509 	mov	r1,a
      000C0A A3               [24] 3510 	inc	dptr
      000C0B E0               [24] 3511 	movx	a,@dptr
      000C0C FA               [12] 3512 	mov	r2,a
      000C0D E9               [12] 3513 	mov	a,r1
      000C0E B5 06 0F         [24] 3514 	cjne	a,ar6,00105$
      000C11 EA               [12] 3515 	mov	a,r2
      000C12 B5 07 0B         [24] 3516 	cjne	a,ar7,00105$
                                   3517 ;	../../../../core/net/uip6.c:580: uip_listenports[c] = 0;
      000C15 8B 82            [24] 3518 	mov	dpl,r3
      000C17 8C 83            [24] 3519 	mov	dph,r4
      000C19 E4               [12] 3520 	clr	a
      000C1A F0               [24] 3521 	movx	@dptr,a
      000C1B E4               [12] 3522 	clr	a
      000C1C A3               [24] 3523 	inc	dptr
      000C1D F0               [24] 3524 	movx	@dptr,a
                                   3525 ;	../../../../core/net/uip6.c:581: return;
      000C1E 80 10            [24] 3526 	sjmp	00106$
      000C20                       3527 00105$:
                                   3528 ;	../../../../core/net/uip6.c:578: for(c = 0; c < UIP_LISTENPORTS; ++c) {
      000C20 90r01r09         [24] 3529 	mov	dptr,#_c
      000C23 ED               [12] 3530 	mov	a,r5
      000C24 04               [12] 3531 	inc	a
      000C25 F0               [24] 3532 	movx	@dptr,a
      000C26 90r01r09         [24] 3533 	mov	dptr,#_c
      000C29 E0               [24] 3534 	movx	a,@dptr
      000C2A FD               [12] 3535 	mov	r5,a
      000C2B BD 14 00         [24] 3536 	cjne	r5,#0x14,00116$
      000C2E                       3537 00116$:
      000C2E 40 C3            [24] 3538 	jc	00104$
      000C30                       3539 00106$:
      000C30 02r00r00         [24] 3540 	ljmp	__sdcc_banked_ret
                                   3541 ;------------------------------------------------------------
                                   3542 ;Allocation info for local variables in function 'uip_listen'
                                   3543 ;------------------------------------------------------------
                                   3544 ;port                      Allocated to registers r6 r7 
                                   3545 ;------------------------------------------------------------
                                   3546 ;	../../../../core/net/uip6.c:587: uip_listen(uint16_t port)
                                   3547 ;	-----------------------------------------
                                   3548 ;	 function uip_listen
                                   3549 ;	-----------------------------------------
      000C33                       3550 _uip_listen:
      000C33 AE 82            [24] 3551 	mov	r6,dpl
      000C35 AF 83            [24] 3552 	mov	r7,dph
                                   3553 ;	../../../../core/net/uip6.c:589: for(c = 0; c < UIP_LISTENPORTS; ++c) {
      000C37 90r01r09         [24] 3554 	mov	dptr,#_c
      000C3A E4               [12] 3555 	clr	a
      000C3B F0               [24] 3556 	movx	@dptr,a
      000C3C                       3557 00104$:
                                   3558 ;	../../../../core/net/uip6.c:590: if(uip_listenports[c] == 0) {
      000C3C 90r01r09         [24] 3559 	mov	dptr,#_c
      000C3F E0               [24] 3560 	movx	a,@dptr
      000C40 FD               [12] 3561 	mov	r5,a
      000C41 75 F0 02         [24] 3562 	mov	b,#0x02
      000C44 A4               [48] 3563 	mul	ab
      000C45 24rD8            [12] 3564 	add	a,#_uip_listenports
      000C47 FB               [12] 3565 	mov	r3,a
      000C48 74s02            [12] 3566 	mov	a,#(_uip_listenports >> 8)
      000C4A 35 F0            [12] 3567 	addc	a,b
      000C4C FC               [12] 3568 	mov	r4,a
      000C4D 8B 82            [24] 3569 	mov	dpl,r3
      000C4F 8C 83            [24] 3570 	mov	dph,r4
      000C51 E0               [24] 3571 	movx	a,@dptr
      000C52 F9               [12] 3572 	mov	r1,a
      000C53 A3               [24] 3573 	inc	dptr
      000C54 E0               [24] 3574 	movx	a,@dptr
      000C55 FA               [12] 3575 	mov	r2,a
      000C56 49               [12] 3576 	orl	a,r1
      000C57 70 0B            [24] 3577 	jnz	00105$
                                   3578 ;	../../../../core/net/uip6.c:591: uip_listenports[c] = port;
      000C59 8B 82            [24] 3579 	mov	dpl,r3
      000C5B 8C 83            [24] 3580 	mov	dph,r4
      000C5D EE               [12] 3581 	mov	a,r6
      000C5E F0               [24] 3582 	movx	@dptr,a
      000C5F EF               [12] 3583 	mov	a,r7
      000C60 A3               [24] 3584 	inc	dptr
      000C61 F0               [24] 3585 	movx	@dptr,a
                                   3586 ;	../../../../core/net/uip6.c:592: return;
      000C62 80 10            [24] 3587 	sjmp	00106$
      000C64                       3588 00105$:
                                   3589 ;	../../../../core/net/uip6.c:589: for(c = 0; c < UIP_LISTENPORTS; ++c) {
      000C64 90r01r09         [24] 3590 	mov	dptr,#_c
      000C67 ED               [12] 3591 	mov	a,r5
      000C68 04               [12] 3592 	inc	a
      000C69 F0               [24] 3593 	movx	@dptr,a
      000C6A 90r01r09         [24] 3594 	mov	dptr,#_c
      000C6D E0               [24] 3595 	movx	a,@dptr
      000C6E FD               [12] 3596 	mov	r5,a
      000C6F BD 14 00         [24] 3597 	cjne	r5,#0x14,00115$
      000C72                       3598 00115$:
      000C72 40 C8            [24] 3599 	jc	00104$
      000C74                       3600 00106$:
      000C74 02r00r00         [24] 3601 	ljmp	__sdcc_banked_ret
                                   3602 ;------------------------------------------------------------
                                   3603 ;Allocation info for local variables in function 'uip_add_rcv_nxt'
                                   3604 ;------------------------------------------------------------
                                   3605 ;n                         Allocated to registers r6 r7 
                                   3606 ;------------------------------------------------------------
                                   3607 ;	../../../../core/net/uip6.c:816: uip_add_rcv_nxt(uint16_t n)
                                   3608 ;	-----------------------------------------
                                   3609 ;	 function uip_add_rcv_nxt
                                   3610 ;	-----------------------------------------
      000C77                       3611 _uip_add_rcv_nxt:
      000C77 AE 82            [24] 3612 	mov	r6,dpl
      000C79 AF 83            [24] 3613 	mov	r7,dph
                                   3614 ;	../../../../core/net/uip6.c:818: uip_add32(uip_conn->rcv_nxt, n);
      000C7B 90r01r06         [24] 3615 	mov	dptr,#_uip_conn
      000C7E E0               [24] 3616 	movx	a,@dptr
      000C7F FB               [12] 3617 	mov	r3,a
      000C80 A3               [24] 3618 	inc	dptr
      000C81 E0               [24] 3619 	movx	a,@dptr
      000C82 FC               [12] 3620 	mov	r4,a
      000C83 A3               [24] 3621 	inc	dptr
      000C84 E0               [24] 3622 	movx	a,@dptr
      000C85 FD               [12] 3623 	mov	r5,a
      000C86 74 14            [12] 3624 	mov	a,#0x14
      000C88 2B               [12] 3625 	add	a,r3
      000C89 FB               [12] 3626 	mov	r3,a
      000C8A E4               [12] 3627 	clr	a
      000C8B 3C               [12] 3628 	addc	a,r4
      000C8C FC               [12] 3629 	mov	r4,a
      000C8D C0 06            [24] 3630 	push	ar6
      000C8F C0 07            [24] 3631 	push	ar7
      000C91 8B 82            [24] 3632 	mov	dpl,r3
      000C93 8C 83            [24] 3633 	mov	dph,r4
      000C95 8D F0            [24] 3634 	mov	b,r5
      000C97 78r00            [12] 3635 	mov	r0,#_uip_add32
      000C99 79s00            [12] 3636 	mov	r1,#(_uip_add32 >> 8)
      000C9B 7As00            [12] 3637 	mov	r2,#(_uip_add32 >> 16)
      000C9D 12r00r00         [24] 3638 	lcall	__sdcc_banked_call
      000CA0 15 81            [12] 3639 	dec	sp
      000CA2 15 81            [12] 3640 	dec	sp
                                   3641 ;	../../../../core/net/uip6.c:819: uip_conn->rcv_nxt[0] = uip_acc32[0];
      000CA4 90r01r06         [24] 3642 	mov	dptr,#_uip_conn
      000CA7 E0               [24] 3643 	movx	a,@dptr
      000CA8 FD               [12] 3644 	mov	r5,a
      000CA9 A3               [24] 3645 	inc	dptr
      000CAA E0               [24] 3646 	movx	a,@dptr
      000CAB FE               [12] 3647 	mov	r6,a
      000CAC A3               [24] 3648 	inc	dptr
      000CAD E0               [24] 3649 	movx	a,@dptr
      000CAE FF               [12] 3650 	mov	r7,a
      000CAF 74 14            [12] 3651 	mov	a,#0x14
      000CB1 2D               [12] 3652 	add	a,r5
      000CB2 FD               [12] 3653 	mov	r5,a
      000CB3 E4               [12] 3654 	clr	a
      000CB4 3E               [12] 3655 	addc	a,r6
      000CB5 FE               [12] 3656 	mov	r6,a
      000CB6 90r03r04         [24] 3657 	mov	dptr,#_uip_acc32
      000CB9 E0               [24] 3658 	movx	a,@dptr
      000CBA 8D 82            [24] 3659 	mov	dpl,r5
      000CBC 8E 83            [24] 3660 	mov	dph,r6
      000CBE 8F F0            [24] 3661 	mov	b,r7
      000CC0 12r00r00         [24] 3662 	lcall	__gptrput
                                   3663 ;	../../../../core/net/uip6.c:820: uip_conn->rcv_nxt[1] = uip_acc32[1];
      000CC3 90r01r06         [24] 3664 	mov	dptr,#_uip_conn
      000CC6 E0               [24] 3665 	movx	a,@dptr
      000CC7 FD               [12] 3666 	mov	r5,a
      000CC8 A3               [24] 3667 	inc	dptr
      000CC9 E0               [24] 3668 	movx	a,@dptr
      000CCA FE               [12] 3669 	mov	r6,a
      000CCB A3               [24] 3670 	inc	dptr
      000CCC E0               [24] 3671 	movx	a,@dptr
      000CCD FF               [12] 3672 	mov	r7,a
      000CCE 74 15            [12] 3673 	mov	a,#0x15
      000CD0 2D               [12] 3674 	add	a,r5
      000CD1 FD               [12] 3675 	mov	r5,a
      000CD2 E4               [12] 3676 	clr	a
      000CD3 3E               [12] 3677 	addc	a,r6
      000CD4 FE               [12] 3678 	mov	r6,a
      000CD5 90r03r05         [24] 3679 	mov	dptr,#(_uip_acc32 + 0x0001)
      000CD8 E0               [24] 3680 	movx	a,@dptr
      000CD9 8D 82            [24] 3681 	mov	dpl,r5
      000CDB 8E 83            [24] 3682 	mov	dph,r6
      000CDD 8F F0            [24] 3683 	mov	b,r7
      000CDF 12r00r00         [24] 3684 	lcall	__gptrput
                                   3685 ;	../../../../core/net/uip6.c:821: uip_conn->rcv_nxt[2] = uip_acc32[2];
      000CE2 90r01r06         [24] 3686 	mov	dptr,#_uip_conn
      000CE5 E0               [24] 3687 	movx	a,@dptr
      000CE6 FD               [12] 3688 	mov	r5,a
      000CE7 A3               [24] 3689 	inc	dptr
      000CE8 E0               [24] 3690 	movx	a,@dptr
      000CE9 FE               [12] 3691 	mov	r6,a
      000CEA A3               [24] 3692 	inc	dptr
      000CEB E0               [24] 3693 	movx	a,@dptr
      000CEC FF               [12] 3694 	mov	r7,a
      000CED 74 16            [12] 3695 	mov	a,#0x16
      000CEF 2D               [12] 3696 	add	a,r5
      000CF0 FD               [12] 3697 	mov	r5,a
      000CF1 E4               [12] 3698 	clr	a
      000CF2 3E               [12] 3699 	addc	a,r6
      000CF3 FE               [12] 3700 	mov	r6,a
      000CF4 90r03r06         [24] 3701 	mov	dptr,#(_uip_acc32 + 0x0002)
      000CF7 E0               [24] 3702 	movx	a,@dptr
      000CF8 8D 82            [24] 3703 	mov	dpl,r5
      000CFA 8E 83            [24] 3704 	mov	dph,r6
      000CFC 8F F0            [24] 3705 	mov	b,r7
      000CFE 12r00r00         [24] 3706 	lcall	__gptrput
                                   3707 ;	../../../../core/net/uip6.c:822: uip_conn->rcv_nxt[3] = uip_acc32[3];
      000D01 90r01r06         [24] 3708 	mov	dptr,#_uip_conn
      000D04 E0               [24] 3709 	movx	a,@dptr
      000D05 FD               [12] 3710 	mov	r5,a
      000D06 A3               [24] 3711 	inc	dptr
      000D07 E0               [24] 3712 	movx	a,@dptr
      000D08 FE               [12] 3713 	mov	r6,a
      000D09 A3               [24] 3714 	inc	dptr
      000D0A E0               [24] 3715 	movx	a,@dptr
      000D0B FF               [12] 3716 	mov	r7,a
      000D0C 74 17            [12] 3717 	mov	a,#0x17
      000D0E 2D               [12] 3718 	add	a,r5
      000D0F FD               [12] 3719 	mov	r5,a
      000D10 E4               [12] 3720 	clr	a
      000D11 3E               [12] 3721 	addc	a,r6
      000D12 FE               [12] 3722 	mov	r6,a
      000D13 90r03r07         [24] 3723 	mov	dptr,#(_uip_acc32 + 0x0003)
      000D16 E0               [24] 3724 	movx	a,@dptr
      000D17 FC               [12] 3725 	mov	r4,a
      000D18 8D 82            [24] 3726 	mov	dpl,r5
      000D1A 8E 83            [24] 3727 	mov	dph,r6
      000D1C 8F F0            [24] 3728 	mov	b,r7
      000D1E 12r00r00         [24] 3729 	lcall	__gptrput
      000D21 02r00r00         [24] 3730 	ljmp	__sdcc_banked_ret
                                   3731 ;------------------------------------------------------------
                                   3732 ;Allocation info for local variables in function 'ext_hdr_options_process'
                                   3733 ;------------------------------------------------------------
                                   3734 ;sloc0                     Allocated to stack - sp -3
                                   3735 ;sloc1                     Allocated to stack - sp +1
                                   3736 ;------------------------------------------------------------
                                   3737 ;	../../../../core/net/uip6.c:831: ext_hdr_options_process(void)
                                   3738 ;	-----------------------------------------
                                   3739 ;	 function ext_hdr_options_process
                                   3740 ;	-----------------------------------------
      000D24                       3741 _ext_hdr_options_process:
      000D24 E5 81            [12] 3742 	mov	a,sp
      000D26 24 04            [12] 3743 	add	a,#0x04
      000D28 F5 81            [12] 3744 	mov	sp,a
                                   3745 ;	../../../../core/net/uip6.c:838: uip_ext_opt_offset = 2;
      000D2A 90r00r02         [24] 3746 	mov	dptr,#_uip_ext_opt_offset
      000D2D 74 02            [12] 3747 	mov	a,#0x02
      000D2F F0               [24] 3748 	movx	@dptr,a
                                   3749 ;	../../../../core/net/uip6.c:839: while(uip_ext_opt_offset < ((UIP_EXT_BUF->len << 3) + 8)) {
      000D30                       3750 00115$:
      000D30 90r00r01         [24] 3751 	mov	dptr,#_uip_ext_len
      000D33 E0               [24] 3752 	movx	a,@dptr
      000D34 FF               [12] 3753 	mov	r7,a
      000D35 24 28            [12] 3754 	add	a,#0x28
      000D37 24r0B            [12] 3755 	add	a,#_uip_aligned_buf
      000D39 FD               [12] 3756 	mov	r5,a
      000D3A E4               [12] 3757 	clr	a
      000D3B 34s00            [12] 3758 	addc	a,#(_uip_aligned_buf >> 8)
      000D3D FE               [12] 3759 	mov	r6,a
      000D3E 8D 82            [24] 3760 	mov	dpl,r5
      000D40 8E 83            [24] 3761 	mov	dph,r6
      000D42 A3               [24] 3762 	inc	dptr
      000D43 E0               [24] 3763 	movx	a,@dptr
      000D44 FE               [12] 3764 	mov	r6,a
      000D45 E4               [12] 3765 	clr	a
      000D46 03               [12] 3766 	rr	a
      000D47 54 F8            [12] 3767 	anl	a,#0xF8
      000D49 CE               [12] 3768 	xch	a,r6
      000D4A C4               [12] 3769 	swap	a
      000D4B 03               [12] 3770 	rr	a
      000D4C CE               [12] 3771 	xch	a,r6
      000D4D 6E               [12] 3772 	xrl	a,r6
      000D4E CE               [12] 3773 	xch	a,r6
      000D4F 54 F8            [12] 3774 	anl	a,#0xF8
      000D51 CE               [12] 3775 	xch	a,r6
      000D52 6E               [12] 3776 	xrl	a,r6
      000D53 FD               [12] 3777 	mov	r5,a
      000D54 74 08            [12] 3778 	mov	a,#0x08
      000D56 2E               [12] 3779 	add	a,r6
      000D57 FE               [12] 3780 	mov	r6,a
      000D58 E4               [12] 3781 	clr	a
      000D59 3D               [12] 3782 	addc	a,r5
      000D5A FD               [12] 3783 	mov	r5,a
      000D5B 90r00r02         [24] 3784 	mov	dptr,#_uip_ext_opt_offset
      000D5E E0               [24] 3785 	movx	a,@dptr
      000D5F FC               [12] 3786 	mov	r4,a
      000D60 FA               [12] 3787 	mov	r2,a
      000D61 7B 00            [12] 3788 	mov	r3,#0x00
      000D63 C3               [12] 3789 	clr	c
      000D64 EA               [12] 3790 	mov	a,r2
      000D65 9E               [12] 3791 	subb	a,r6
      000D66 EB               [12] 3792 	mov	a,r3
      000D67 64 80            [12] 3793 	xrl	a,#0x80
      000D69 8D F0            [24] 3794 	mov	b,r5
      000D6B 63 F0 80         [24] 3795 	xrl	b,#0x80
      000D6E 95 F0            [12] 3796 	subb	a,b
      000D70 40 03            [24] 3797 	jc	00153$
      000D72 02r0ErBC         [24] 3798 	ljmp	00117$
      000D75                       3799 00153$:
                                   3800 ;	../../../../core/net/uip6.c:840: switch(UIP_EXT_HDR_OPT_BUF->type) {
      000D75 74 28            [12] 3801 	mov	a,#0x28
      000D77 2F               [12] 3802 	add	a,r7
      000D78 2C               [12] 3803 	add	a,r4
      000D79 24r0B            [12] 3804 	add	a,#_uip_aligned_buf
      000D7B F5 82            [12] 3805 	mov	dpl,a
      000D7D E4               [12] 3806 	clr	a
      000D7E 34s00            [12] 3807 	addc	a,#(_uip_aligned_buf >> 8)
      000D80 F5 83            [12] 3808 	mov	dph,a
      000D82 E0               [24] 3809 	movx	a,@dptr
      000D83 FE               [12] 3810 	mov	r6,a
      000D84 60 0A            [24] 3811 	jz	00101$
      000D86 BE 01 02         [24] 3812 	cjne	r6,#0x01,00155$
      000D89 80 0D            [24] 3813 	sjmp	00102$
      000D8B                       3814 00155$:
                                   3815 ;	../../../../core/net/uip6.c:846: case UIP_EXT_HDR_OPT_PAD1:
      000D8B BE 63 6A         [24] 3816 	cjne	r6,#0x63,00106$
      000D8E 80 24            [24] 3817 	sjmp	00103$
      000D90                       3818 00101$:
                                   3819 ;	../../../../core/net/uip6.c:848: uip_ext_opt_offset += 1;
      000D90 90r00r02         [24] 3820 	mov	dptr,#_uip_ext_opt_offset
      000D93 EC               [12] 3821 	mov	a,r4
      000D94 04               [12] 3822 	inc	a
      000D95 F0               [24] 3823 	movx	@dptr,a
                                   3824 ;	../../../../core/net/uip6.c:849: break;
                                   3825 ;	../../../../core/net/uip6.c:850: case UIP_EXT_HDR_OPT_PADN:
      000D96 80 98            [24] 3826 	sjmp	00115$
      000D98                       3827 00102$:
                                   3828 ;	../../../../core/net/uip6.c:852: uip_ext_opt_offset += UIP_EXT_HDR_OPT_PADN_BUF->opt_len + 2;
      000D98 74 28            [12] 3829 	mov	a,#0x28
      000D9A 2F               [12] 3830 	add	a,r7
      000D9B 2C               [12] 3831 	add	a,r4
      000D9C 24r0B            [12] 3832 	add	a,#_uip_aligned_buf
      000D9E FD               [12] 3833 	mov	r5,a
      000D9F E4               [12] 3834 	clr	a
      000DA0 34s00            [12] 3835 	addc	a,#(_uip_aligned_buf >> 8)
      000DA2 FE               [12] 3836 	mov	r6,a
      000DA3 8D 82            [24] 3837 	mov	dpl,r5
      000DA5 8E 83            [24] 3838 	mov	dph,r6
      000DA7 A3               [24] 3839 	inc	dptr
      000DA8 E0               [24] 3840 	movx	a,@dptr
      000DA9 FE               [12] 3841 	mov	r6,a
      000DAA 24 02            [12] 3842 	add	a,#0x02
      000DAC 90r00r02         [24] 3843 	mov	dptr,#_uip_ext_opt_offset
      000DAF 2C               [12] 3844 	add	a,r4
      000DB0 F0               [24] 3845 	movx	@dptr,a
                                   3846 ;	../../../../core/net/uip6.c:853: break;
      000DB1 02r0Dr30         [24] 3847 	ljmp	00115$
                                   3848 ;	../../../../core/net/uip6.c:855: case UIP_EXT_HDR_OPT_RPL:
      000DB4                       3849 00103$:
                                   3850 ;	../../../../core/net/uip6.c:857: if(rpl_verify_header(uip_ext_opt_offset)) {
      000DB4 8A 82            [24] 3851 	mov	dpl,r2
      000DB6 8B 83            [24] 3852 	mov	dph,r3
      000DB8 78r00            [12] 3853 	mov	r0,#_rpl_verify_header
      000DBA 79s00            [12] 3854 	mov	r1,#(_rpl_verify_header >> 8)
      000DBC 7As00            [12] 3855 	mov	r2,#(_rpl_verify_header >> 16)
      000DBE 12r00r00         [24] 3856 	lcall	__sdcc_banked_call
      000DC1 E5 82            [12] 3857 	mov	a,dpl
      000DC3 85 83 F0         [24] 3858 	mov	b,dph
      000DC6 45 F0            [12] 3859 	orl	a,b
      000DC8 60 06            [24] 3860 	jz	00105$
                                   3861 ;	../../../../core/net/uip6.c:859: return 1;
      000DCA 75 82 01         [24] 3862 	mov	dpl,#0x01
      000DCD 02r0ErBF         [24] 3863 	ljmp	00118$
      000DD0                       3864 00105$:
                                   3865 ;	../../../../core/net/uip6.c:861: uip_ext_opt_offset += (UIP_EXT_HDR_OPT_RPL_BUF->opt_len) + 2;
      000DD0 90r00r01         [24] 3866 	mov	dptr,#_uip_ext_len
      000DD3 E0               [24] 3867 	movx	a,@dptr
      000DD4 24 28            [12] 3868 	add	a,#0x28
      000DD6 FE               [12] 3869 	mov	r6,a
      000DD7 90r00r02         [24] 3870 	mov	dptr,#_uip_ext_opt_offset
      000DDA E0               [24] 3871 	movx	a,@dptr
      000DDB FD               [12] 3872 	mov	r5,a
      000DDC 2E               [12] 3873 	add	a,r6
      000DDD 24r0B            [12] 3874 	add	a,#_uip_aligned_buf
      000DDF FB               [12] 3875 	mov	r3,a
      000DE0 E4               [12] 3876 	clr	a
      000DE1 34s00            [12] 3877 	addc	a,#(_uip_aligned_buf >> 8)
      000DE3 FE               [12] 3878 	mov	r6,a
      000DE4 8B 82            [24] 3879 	mov	dpl,r3
      000DE6 8E 83            [24] 3880 	mov	dph,r6
      000DE8 A3               [24] 3881 	inc	dptr
      000DE9 E0               [24] 3882 	movx	a,@dptr
      000DEA FE               [12] 3883 	mov	r6,a
      000DEB 24 02            [12] 3884 	add	a,#0x02
      000DED 90r00r02         [24] 3885 	mov	dptr,#_uip_ext_opt_offset
      000DF0 2D               [12] 3886 	add	a,r5
      000DF1 F0               [24] 3887 	movx	@dptr,a
                                   3888 ;	../../../../core/net/uip6.c:862: return 0;
      000DF2 75 82 00         [24] 3889 	mov	dpl,#0x00
      000DF5 02r0ErBF         [24] 3890 	ljmp	00118$
                                   3891 ;	../../../../core/net/uip6.c:864: default:
      000DF8                       3892 00106$:
                                   3893 ;	../../../../core/net/uip6.c:879: switch(UIP_EXT_HDR_OPT_BUF->type & 0xC0) {
      000DF8 74 28            [12] 3894 	mov	a,#0x28
      000DFA 2F               [12] 3895 	add	a,r7
      000DFB 2C               [12] 3896 	add	a,r4
      000DFC 24r0B            [12] 3897 	add	a,#_uip_aligned_buf
      000DFE F5 82            [12] 3898 	mov	dpl,a
      000E00 E4               [12] 3899 	clr	a
      000E01 34s00            [12] 3900 	addc	a,#(_uip_aligned_buf >> 8)
      000E03 F5 83            [12] 3901 	mov	dph,a
      000E05 E0               [24] 3902 	movx	a,@dptr
      000E06 FE               [12] 3903 	mov	r6,a
      000E07 53 06 C0         [24] 3904 	anl	ar6,#0xC0
      000E0A BE 00 03         [24] 3905 	cjne	r6,#0x00,00158$
      000E0D 02r0Er9A         [24] 3906 	ljmp	00113$
      000E10                       3907 00158$:
      000E10 BE 40 02         [24] 3908 	cjne	r6,#0x40,00159$
      000E13 80 0C            [24] 3909 	sjmp	00108$
      000E15                       3910 00159$:
      000E15 BE 80 02         [24] 3911 	cjne	r6,#0x80,00160$
      000E18 80 25            [24] 3912 	sjmp	00112$
      000E1A                       3913 00160$:
      000E1A BE C0 02         [24] 3914 	cjne	r6,#0xC0,00161$
      000E1D 80 08            [24] 3915 	sjmp	00109$
      000E1F                       3916 00161$:
                                   3917 ;	../../../../core/net/uip6.c:882: case 0x40:
      000E1F 80 79            [24] 3918 	sjmp	00113$
      000E21                       3919 00108$:
                                   3920 ;	../../../../core/net/uip6.c:883: return 1;
      000E21 75 82 01         [24] 3921 	mov	dpl,#0x01
      000E24 02r0ErBF         [24] 3922 	ljmp	00118$
                                   3923 ;	../../../../core/net/uip6.c:884: case 0xC0:
      000E27                       3924 00109$:
                                   3925 ;	../../../../core/net/uip6.c:885: if(uip_is_addr_mcast(&UIP_IP_BUF->destipaddr)) {
      000E27 7Dr0B            [12] 3926 	mov	r5,#_uip_aligned_buf
      000E29 7Es00            [12] 3927 	mov	r6,#(_uip_aligned_buf >> 8)
      000E2B 74 18            [12] 3928 	mov	a,#0x18
      000E2D 2D               [12] 3929 	add	a,r5
      000E2E F5 82            [12] 3930 	mov	dpl,a
      000E30 E4               [12] 3931 	clr	a
      000E31 3E               [12] 3932 	addc	a,r6
      000E32 F5 83            [12] 3933 	mov	dph,a
      000E34 E0               [24] 3934 	movx	a,@dptr
      000E35 FE               [12] 3935 	mov	r6,a
      000E36 BE FF 06         [24] 3936 	cjne	r6,#0xFF,00112$
                                   3937 ;	../../../../core/net/uip6.c:886: return 1;
      000E39 75 82 01         [24] 3938 	mov	dpl,#0x01
      000E3C 02r0ErBF         [24] 3939 	ljmp	00118$
                                   3940 ;	../../../../core/net/uip6.c:888: case 0x80:
      000E3F                       3941 00112$:
                                   3942 ;	../../../../core/net/uip6.c:890: (uint32_t)UIP_IPH_LEN + uip_ext_len + uip_ext_opt_offset);
      000E3F 8F 03            [24] 3943 	mov	ar3,r7
      000E41 E4               [12] 3944 	clr	a
      000E42 FC               [12] 3945 	mov	r4,a
      000E43 FD               [12] 3946 	mov	r5,a
      000E44 FE               [12] 3947 	mov	r6,a
      000E45 E5 81            [12] 3948 	mov	a,sp
      000E47 24 FD            [12] 3949 	add	a,#0xfd
      000E49 F8               [12] 3950 	mov	r0,a
      000E4A 74 28            [12] 3951 	mov	a,#0x28
      000E4C 2B               [12] 3952 	add	a,r3
      000E4D F6               [12] 3953 	mov	@r0,a
      000E4E E4               [12] 3954 	clr	a
      000E4F 3C               [12] 3955 	addc	a,r4
      000E50 08               [12] 3956 	inc	r0
      000E51 F6               [12] 3957 	mov	@r0,a
      000E52 E4               [12] 3958 	clr	a
      000E53 3D               [12] 3959 	addc	a,r5
      000E54 08               [12] 3960 	inc	r0
      000E55 F6               [12] 3961 	mov	@r0,a
      000E56 E4               [12] 3962 	clr	a
      000E57 3E               [12] 3963 	addc	a,r6
      000E58 08               [12] 3964 	inc	r0
      000E59 F6               [12] 3965 	mov	@r0,a
      000E5A 90r00r02         [24] 3966 	mov	dptr,#_uip_ext_opt_offset
      000E5D E0               [24] 3967 	movx	a,@dptr
      000E5E FA               [12] 3968 	mov	r2,a
      000E5F E4               [12] 3969 	clr	a
      000E60 FF               [12] 3970 	mov	r7,a
      000E61 FE               [12] 3971 	mov	r6,a
      000E62 FD               [12] 3972 	mov	r5,a
      000E63 E5 81            [12] 3973 	mov	a,sp
      000E65 24 FD            [12] 3974 	add	a,#0xfd
      000E67 F8               [12] 3975 	mov	r0,a
      000E68 EA               [12] 3976 	mov	a,r2
      000E69 26               [12] 3977 	add	a,@r0
      000E6A FA               [12] 3978 	mov	r2,a
      000E6B EF               [12] 3979 	mov	a,r7
      000E6C 08               [12] 3980 	inc	r0
      000E6D 36               [12] 3981 	addc	a,@r0
      000E6E FB               [12] 3982 	mov	r3,a
      000E6F EE               [12] 3983 	mov	a,r6
      000E70 08               [12] 3984 	inc	r0
      000E71 36               [12] 3985 	addc	a,@r0
      000E72 FC               [12] 3986 	mov	r4,a
      000E73 ED               [12] 3987 	mov	a,r5
      000E74 08               [12] 3988 	inc	r0
      000E75 36               [12] 3989 	addc	a,@r0
      000E76 FD               [12] 3990 	mov	r5,a
                                   3991 ;	../../../../core/net/uip6.c:889: uip_icmp6_error_output(ICMP6_PARAM_PROB, ICMP6_PARAMPROB_OPTION,
      000E77 C0 02            [24] 3992 	push	ar2
      000E79 C0 03            [24] 3993 	push	ar3
      000E7B C0 04            [24] 3994 	push	ar4
      000E7D C0 05            [24] 3995 	push	ar5
      000E7F 74 02            [12] 3996 	mov	a,#0x02
      000E81 C0 E0            [24] 3997 	push	acc
      000E83 75 82 04         [24] 3998 	mov	dpl,#0x04
      000E86 78r00            [12] 3999 	mov	r0,#_uip_icmp6_error_output
      000E88 79s00            [12] 4000 	mov	r1,#(_uip_icmp6_error_output >> 8)
      000E8A 7As00            [12] 4001 	mov	r2,#(_uip_icmp6_error_output >> 16)
      000E8C 12r00r00         [24] 4002 	lcall	__sdcc_banked_call
      000E8F E5 81            [12] 4003 	mov	a,sp
      000E91 24 FB            [12] 4004 	add	a,#0xfb
      000E93 F5 81            [12] 4005 	mov	sp,a
                                   4006 ;	../../../../core/net/uip6.c:891: return 2;
      000E95 75 82 02         [24] 4007 	mov	dpl,#0x02
                                   4008 ;	../../../../core/net/uip6.c:892: }
      000E98 80 25            [24] 4009 	sjmp	00118$
      000E9A                       4010 00113$:
                                   4011 ;	../../../../core/net/uip6.c:894: uip_ext_opt_offset += UIP_EXT_HDR_OPT_BUF->len + 2;
      000E9A 74 28            [12] 4012 	mov	a,#0x28
      000E9C 2F               [12] 4013 	add	a,r7
      000E9D FF               [12] 4014 	mov	r7,a
      000E9E 90r00r02         [24] 4015 	mov	dptr,#_uip_ext_opt_offset
      000EA1 E0               [24] 4016 	movx	a,@dptr
      000EA2 FD               [12] 4017 	mov	r5,a
      000EA3 2F               [12] 4018 	add	a,r7
      000EA4 24r0B            [12] 4019 	add	a,#_uip_aligned_buf
      000EA6 FC               [12] 4020 	mov	r4,a
      000EA7 E4               [12] 4021 	clr	a
      000EA8 34s00            [12] 4022 	addc	a,#(_uip_aligned_buf >> 8)
      000EAA FF               [12] 4023 	mov	r7,a
      000EAB 8C 82            [24] 4024 	mov	dpl,r4
      000EAD 8F 83            [24] 4025 	mov	dph,r7
      000EAF A3               [24] 4026 	inc	dptr
      000EB0 E0               [24] 4027 	movx	a,@dptr
      000EB1 FF               [12] 4028 	mov	r7,a
      000EB2 24 02            [12] 4029 	add	a,#0x02
      000EB4 90r00r02         [24] 4030 	mov	dptr,#_uip_ext_opt_offset
      000EB7 2D               [12] 4031 	add	a,r5
      000EB8 F0               [24] 4032 	movx	@dptr,a
                                   4033 ;	../../../../core/net/uip6.c:896: }
      000EB9 02r0Dr30         [24] 4034 	ljmp	00115$
      000EBC                       4035 00117$:
                                   4036 ;	../../../../core/net/uip6.c:898: return 0;
      000EBC 75 82 00         [24] 4037 	mov	dpl,#0x00
      000EBF                       4038 00118$:
      000EBF E5 81            [12] 4039 	mov	a,sp
      000EC1 24 FC            [12] 4040 	add	a,#0xFC
      000EC3 F5 81            [12] 4041 	mov	sp,a
      000EC5 02r00r00         [24] 4042 	ljmp	__sdcc_banked_ret
                                   4043 ;------------------------------------------------------------
                                   4044 ;Allocation info for local variables in function 'uip_process'
                                   4045 ;------------------------------------------------------------
                                   4046 ;flag                      Allocated to registers r7 
                                   4047 ;uip_connr                 Allocated to stack - sp -2
                                   4048 ;m                         Allocated to registers r2 
                                   4049 ;sloc0                     Allocated to stack - sp -10
                                   4050 ;sloc1                     Allocated to stack - sp -2
                                   4051 ;sloc2                     Allocated to stack - sp -7
                                   4052 ;sloc3                     Allocated to stack - sp -4
                                   4053 ;------------------------------------------------------------
                                   4054 ;	../../../../core/net/uip6.c:904: uip_process(uint8_t flag)
                                   4055 ;	-----------------------------------------
                                   4056 ;	 function uip_process
                                   4057 ;	-----------------------------------------
      000EC8                       4058 _uip_process:
      000EC8 E5 81            [12] 4059 	mov	a,sp
      000ECA 24 0B            [12] 4060 	add	a,#0x0B
      000ECC F5 81            [12] 4061 	mov	sp,a
      000ECE AF 82            [24] 4062 	mov	r7,dpl
                                   4063 ;	../../../../core/net/uip6.c:907: register struct uip_conn *uip_connr = uip_conn;
      000ED0 90r01r06         [24] 4064 	mov	dptr,#_uip_conn
      000ED3 E0               [24] 4065 	movx	a,@dptr
      000ED4 FC               [12] 4066 	mov	r4,a
      000ED5 A3               [24] 4067 	inc	dptr
      000ED6 E0               [24] 4068 	movx	a,@dptr
      000ED7 FD               [12] 4069 	mov	r5,a
      000ED8 A3               [24] 4070 	inc	dptr
      000ED9 E0               [24] 4071 	movx	a,@dptr
      000EDA FE               [12] 4072 	mov	r6,a
      000EDB A8 81            [24] 4073 	mov	r0,sp
      000EDD 18               [12] 4074 	dec	r0
      000EDE 18               [12] 4075 	dec	r0
      000EDF A6 04            [24] 4076 	mov	@r0,ar4
      000EE1 08               [12] 4077 	inc	r0
      000EE2 A6 05            [24] 4078 	mov	@r0,ar5
      000EE4 08               [12] 4079 	inc	r0
      000EE5 A6 06            [24] 4080 	mov	@r0,ar6
                                   4081 ;	../../../../core/net/uip6.c:910: if(flag == UIP_UDP_SEND_CONN) {
      000EE7 BF 04 03         [24] 4082 	cjne	r7,#0x04,01122$
      000EEA 02r1Dr3C         [24] 4083 	ljmp	00291$
      000EED                       4084 01122$:
                                   4085 ;	../../../../core/net/uip6.c:914: uip_sappdata = uip_appdata = &uip_buf[UIP_IPTCPH_LEN + UIP_LLH_LEN];
      000EED 90r00rFB         [24] 4086 	mov	dptr,#_uip_appdata
      000EF0 74r47            [12] 4087 	mov	a,#(_uip_aligned_buf + 0x003c)
      000EF2 F0               [24] 4088 	movx	@dptr,a
      000EF3 74s00            [12] 4089 	mov	a,#((_uip_aligned_buf + 0x003c) >> 8)
      000EF5 A3               [24] 4090 	inc	dptr
      000EF6 F0               [24] 4091 	movx	@dptr,a
      000EF7 E4               [12] 4092 	clr	a
      000EF8 A3               [24] 4093 	inc	dptr
      000EF9 F0               [24] 4094 	movx	@dptr,a
      000EFA 90r00rFE         [24] 4095 	mov	dptr,#_uip_sappdata
      000EFD 74r47            [12] 4096 	mov	a,#(_uip_aligned_buf + 0x003c)
      000EFF F0               [24] 4097 	movx	@dptr,a
      000F00 74s00            [12] 4098 	mov	a,#((_uip_aligned_buf + 0x003c) >> 8)
      000F02 A3               [24] 4099 	inc	dptr
      000F03 F0               [24] 4100 	movx	@dptr,a
      000F04 E4               [12] 4101 	clr	a
      000F05 A3               [24] 4102 	inc	dptr
      000F06 F0               [24] 4103 	movx	@dptr,a
                                   4104 ;	../../../../core/net/uip6.c:918: if(flag == UIP_POLL_REQUEST) {
      000F07 BF 03 70         [24] 4105 	cjne	r7,#0x03,00145$
                                   4106 ;	../../../../core/net/uip6.c:920: if((uip_connr->tcpstateflags & UIP_TS_MASK) == UIP_ESTABLISHED &&
      000F0A A8 81            [24] 4107 	mov	r0,sp
      000F0C 18               [12] 4108 	dec	r0
      000F0D 18               [12] 4109 	dec	r0
      000F0E 74 25            [12] 4110 	mov	a,#0x25
      000F10 26               [12] 4111 	add	a,@r0
      000F11 FA               [12] 4112 	mov	r2,a
      000F12 E4               [12] 4113 	clr	a
      000F13 08               [12] 4114 	inc	r0
      000F14 36               [12] 4115 	addc	a,@r0
      000F15 FB               [12] 4116 	mov	r3,a
      000F16 08               [12] 4117 	inc	r0
      000F17 86 06            [24] 4118 	mov	ar6,@r0
      000F19 8A 82            [24] 4119 	mov	dpl,r2
      000F1B 8B 83            [24] 4120 	mov	dph,r3
      000F1D 8E F0            [24] 4121 	mov	b,r6
      000F1F 12r00r00         [24] 4122 	lcall	__gptrget
      000F22 FE               [12] 4123 	mov	r6,a
      000F23 74 0F            [12] 4124 	mov	a,#0x0F
      000F25 5E               [12] 4125 	anl	a,r6
      000F26 FD               [12] 4126 	mov	r5,a
      000F27 BD 03 33         [24] 4127 	cjne	r5,#0x03,00106$
                                   4128 ;	../../../../core/net/uip6.c:921: !uip_outstanding(uip_connr)) {
      000F2A A8 81            [24] 4129 	mov	r0,sp
      000F2C 18               [12] 4130 	dec	r0
      000F2D 18               [12] 4131 	dec	r0
      000F2E 74 1C            [12] 4132 	mov	a,#0x1C
      000F30 26               [12] 4133 	add	a,@r0
      000F31 FB               [12] 4134 	mov	r3,a
      000F32 E4               [12] 4135 	clr	a
      000F33 08               [12] 4136 	inc	r0
      000F34 36               [12] 4137 	addc	a,@r0
      000F35 FC               [12] 4138 	mov	r4,a
      000F36 08               [12] 4139 	inc	r0
      000F37 86 05            [24] 4140 	mov	ar5,@r0
      000F39 8B 82            [24] 4141 	mov	dpl,r3
      000F3B 8C 83            [24] 4142 	mov	dph,r4
      000F3D 8D F0            [24] 4143 	mov	b,r5
      000F3F 12r00r00         [24] 4144 	lcall	__gptrget
      000F42 FB               [12] 4145 	mov	r3,a
      000F43 A3               [24] 4146 	inc	dptr
      000F44 12r00r00         [24] 4147 	lcall	__gptrget
      000F47 FC               [12] 4148 	mov	r4,a
      000F48 4B               [12] 4149 	orl	a,r3
      000F49 70 12            [24] 4150 	jnz	00106$
                                   4151 ;	../../../../core/net/uip6.c:922: uip_flags = UIP_POLL;
      000F4B 90r01r05         [24] 4152 	mov	dptr,#_uip_flags
      000F4E 74 08            [12] 4153 	mov	a,#0x08
      000F50 F0               [24] 4154 	movx	@dptr,a
                                   4155 ;	../../../../core/net/uip6.c:923: UIP_APPCALL();
      000F51 78r00            [12] 4156 	mov	r0,#_tcpip_uipcall
      000F53 79s00            [12] 4157 	mov	r1,#(_tcpip_uipcall >> 8)
      000F55 7As00            [12] 4158 	mov	r2,#(_tcpip_uipcall >> 16)
      000F57 12r00r00         [24] 4159 	lcall	__sdcc_banked_call
                                   4160 ;	../../../../core/net/uip6.c:924: goto appsend;
      000F5A 02r34r1B         [24] 4161 	ljmp	00422$
      000F5D                       4162 00106$:
                                   4163 ;	../../../../core/net/uip6.c:926: } else if((uip_connr->tcpstateflags & UIP_TS_MASK) == UIP_SYN_SENT) {
      000F5D 53 06 0F         [24] 4164 	anl	ar6,#0x0F
      000F60 BE 02 02         [24] 4165 	cjne	r6,#0x02,01128$
      000F63 80 03            [24] 4166 	sjmp	01129$
      000F65                       4167 01128$:
      000F65 02r3Br87         [24] 4168 	ljmp	00482$
      000F68                       4169 01129$:
                                   4170 ;	../../../../core/net/uip6.c:928: UIP_TCP_BUF->flags = 0;
      000F68 7Dr33            [12] 4171 	mov	r5,#(_uip_aligned_buf + 0x0028)
      000F6A 7Es00            [12] 4172 	mov	r6,#((_uip_aligned_buf + 0x0028) >> 8)
      000F6C 74 0D            [12] 4173 	mov	a,#0x0D
      000F6E 2D               [12] 4174 	add	a,r5
      000F6F F5 82            [12] 4175 	mov	dpl,a
      000F71 E4               [12] 4176 	clr	a
      000F72 3E               [12] 4177 	addc	a,r6
      000F73 F5 83            [12] 4178 	mov	dph,a
      000F75 E4               [12] 4179 	clr	a
      000F76 F0               [24] 4180 	movx	@dptr,a
                                   4181 ;	../../../../core/net/uip6.c:929: goto tcp_send_syn;
      000F77 02r28r85         [24] 4182 	ljmp	00349$
                                   4183 ;	../../../../core/net/uip6.c:932: goto drop;
      000F7A                       4184 00145$:
                                   4185 ;	../../../../core/net/uip6.c:935: } else if(flag == UIP_TIMER) {
      000F7A BF 02 02         [24] 4186 	cjne	r7,#0x02,01130$
      000F7D 80 03            [24] 4187 	sjmp	01131$
      000F7F                       4188 01130$:
      000F7F 02r11rD2         [24] 4189 	ljmp	00146$
      000F82                       4190 01131$:
                                   4191 ;	../../../../core/net/uip6.c:938: uip_len = 0;
      000F82 90r01r01         [24] 4192 	mov	dptr,#_uip_len
      000F85 E4               [12] 4193 	clr	a
      000F86 F0               [24] 4194 	movx	@dptr,a
      000F87 E4               [12] 4195 	clr	a
      000F88 A3               [24] 4196 	inc	dptr
      000F89 F0               [24] 4197 	movx	@dptr,a
                                   4198 ;	../../../../core/net/uip6.c:939: uip_slen = 0;
      000F8A 90r01r03         [24] 4199 	mov	dptr,#_uip_slen
      000F8D E4               [12] 4200 	clr	a
      000F8E F0               [24] 4201 	movx	@dptr,a
      000F8F E4               [12] 4202 	clr	a
      000F90 A3               [24] 4203 	inc	dptr
      000F91 F0               [24] 4204 	movx	@dptr,a
                                   4205 ;	../../../../core/net/uip6.c:942: if(++iss[3] == 0) {
      000F92 90r03r03         [24] 4206 	mov	dptr,#(_iss + 0x0003)
      000F95 E0               [24] 4207 	movx	a,@dptr
      000F96 FE               [12] 4208 	mov	r6,a
      000F97 0E               [12] 4209 	inc	r6
      000F98 90r03r03         [24] 4210 	mov	dptr,#(_iss + 0x0003)
      000F9B EE               [12] 4211 	mov	a,r6
      000F9C F0               [24] 4212 	movx	@dptr,a
      000F9D EE               [12] 4213 	mov	a,r6
      000F9E 70 27            [24] 4214 	jnz	00114$
                                   4215 ;	../../../../core/net/uip6.c:943: if(++iss[2] == 0) {
      000FA0 90r03r02         [24] 4216 	mov	dptr,#(_iss + 0x0002)
      000FA3 E0               [24] 4217 	movx	a,@dptr
      000FA4 FE               [12] 4218 	mov	r6,a
      000FA5 0E               [12] 4219 	inc	r6
      000FA6 90r03r02         [24] 4220 	mov	dptr,#(_iss + 0x0002)
      000FA9 EE               [12] 4221 	mov	a,r6
      000FAA F0               [24] 4222 	movx	@dptr,a
      000FAB EE               [12] 4223 	mov	a,r6
      000FAC 70 19            [24] 4224 	jnz	00114$
                                   4225 ;	../../../../core/net/uip6.c:944: if(++iss[1] == 0) {
      000FAE 90r03r01         [24] 4226 	mov	dptr,#(_iss + 0x0001)
      000FB1 E0               [24] 4227 	movx	a,@dptr
      000FB2 FE               [12] 4228 	mov	r6,a
      000FB3 0E               [12] 4229 	inc	r6
      000FB4 90r03r01         [24] 4230 	mov	dptr,#(_iss + 0x0001)
      000FB7 EE               [12] 4231 	mov	a,r6
      000FB8 F0               [24] 4232 	movx	@dptr,a
      000FB9 EE               [12] 4233 	mov	a,r6
      000FBA 70 0B            [24] 4234 	jnz	00114$
                                   4235 ;	../../../../core/net/uip6.c:945: ++iss[0];
      000FBC 90r03r00         [24] 4236 	mov	dptr,#_iss
      000FBF E0               [24] 4237 	movx	a,@dptr
      000FC0 FE               [12] 4238 	mov	r6,a
      000FC1 0E               [12] 4239 	inc	r6
      000FC2 90r03r00         [24] 4240 	mov	dptr,#_iss
      000FC5 EE               [12] 4241 	mov	a,r6
      000FC6 F0               [24] 4242 	movx	@dptr,a
      000FC7                       4243 00114$:
                                   4244 ;	../../../../core/net/uip6.c:956: if(uip_connr->tcpstateflags == UIP_TIME_WAIT ||
      000FC7 A8 81            [24] 4245 	mov	r0,sp
      000FC9 18               [12] 4246 	dec	r0
      000FCA 18               [12] 4247 	dec	r0
      000FCB E5 81            [12] 4248 	mov	a,sp
      000FCD 24 F6            [12] 4249 	add	a,#0xf6
      000FCF F9               [12] 4250 	mov	r1,a
      000FD0 74 25            [12] 4251 	mov	a,#0x25
      000FD2 26               [12] 4252 	add	a,@r0
      000FD3 F7               [12] 4253 	mov	@r1,a
      000FD4 E4               [12] 4254 	clr	a
      000FD5 08               [12] 4255 	inc	r0
      000FD6 36               [12] 4256 	addc	a,@r0
      000FD7 09               [12] 4257 	inc	r1
      000FD8 F7               [12] 4258 	mov	@r1,a
      000FD9 08               [12] 4259 	inc	r0
      000FDA 09               [12] 4260 	inc	r1
      000FDB E6               [12] 4261 	mov	a,@r0
      000FDC F7               [12] 4262 	mov	@r1,a
      000FDD E5 81            [12] 4263 	mov	a,sp
      000FDF 24 F6            [12] 4264 	add	a,#0xf6
      000FE1 F8               [12] 4265 	mov	r0,a
      000FE2 86 82            [24] 4266 	mov	dpl,@r0
      000FE4 08               [12] 4267 	inc	r0
      000FE5 86 83            [24] 4268 	mov	dph,@r0
      000FE7 08               [12] 4269 	inc	r0
      000FE8 86 F0            [24] 4270 	mov	b,@r0
      000FEA 12r00r00         [24] 4271 	lcall	__gptrget
      000FED FB               [12] 4272 	mov	r3,a
      000FEE BB 07 02         [24] 4273 	cjne	r3,#0x07,01135$
      000FF1 80 03            [24] 4274 	sjmp	00138$
      000FF3                       4275 01135$:
                                   4276 ;	../../../../core/net/uip6.c:957: uip_connr->tcpstateflags == UIP_FIN_WAIT_2) {
      000FF3 BB 05 40         [24] 4277 	cjne	r3,#0x05,00139$
      000FF6                       4278 00138$:
                                   4279 ;	../../../../core/net/uip6.c:958: ++(uip_connr->timer);
      000FF6 A8 81            [24] 4280 	mov	r0,sp
      000FF8 18               [12] 4281 	dec	r0
      000FF9 18               [12] 4282 	dec	r0
      000FFA 74 26            [12] 4283 	mov	a,#0x26
      000FFC 26               [12] 4284 	add	a,@r0
      000FFD FA               [12] 4285 	mov	r2,a
      000FFE E4               [12] 4286 	clr	a
      000FFF 08               [12] 4287 	inc	r0
      001000 36               [12] 4288 	addc	a,@r0
      001001 FD               [12] 4289 	mov	r5,a
      001002 08               [12] 4290 	inc	r0
      001003 86 06            [24] 4291 	mov	ar6,@r0
      001005 8A 82            [24] 4292 	mov	dpl,r2
      001007 8D 83            [24] 4293 	mov	dph,r5
      001009 8E F0            [24] 4294 	mov	b,r6
      00100B 12r00r00         [24] 4295 	lcall	__gptrget
      00100E FC               [12] 4296 	mov	r4,a
      00100F 0C               [12] 4297 	inc	r4
      001010 8A 82            [24] 4298 	mov	dpl,r2
      001012 8D 83            [24] 4299 	mov	dph,r5
      001014 8E F0            [24] 4300 	mov	b,r6
      001016 EC               [12] 4301 	mov	a,r4
      001017 12r00r00         [24] 4302 	lcall	__gptrput
                                   4303 ;	../../../../core/net/uip6.c:959: if(uip_connr->timer == UIP_TIME_WAIT_TIMEOUT) {
      00101A BC 78 02         [24] 4304 	cjne	r4,#0x78,01138$
      00101D 80 03            [24] 4305 	sjmp	01139$
      00101F                       4306 01138$:
      00101F 02r3Br87         [24] 4307 	ljmp	00482$
      001022                       4308 01139$:
                                   4309 ;	../../../../core/net/uip6.c:960: uip_connr->tcpstateflags = UIP_CLOSED;
      001022 E5 81            [12] 4310 	mov	a,sp
      001024 24 F6            [12] 4311 	add	a,#0xf6
      001026 F8               [12] 4312 	mov	r0,a
      001027 86 82            [24] 4313 	mov	dpl,@r0
      001029 08               [12] 4314 	inc	r0
      00102A 86 83            [24] 4315 	mov	dph,@r0
      00102C 08               [12] 4316 	inc	r0
      00102D 86 F0            [24] 4317 	mov	b,@r0
      00102F E4               [12] 4318 	clr	a
      001030 12r00r00         [24] 4319 	lcall	__gptrput
      001033 02r3Br87         [24] 4320 	ljmp	00482$
      001036                       4321 00139$:
                                   4322 ;	../../../../core/net/uip6.c:962: } else if(uip_connr->tcpstateflags != UIP_CLOSED) {
      001036 EB               [12] 4323 	mov	a,r3
      001037 70 03            [24] 4324 	jnz	01140$
      001039 02r3Br87         [24] 4325 	ljmp	00482$
      00103C                       4326 01140$:
                                   4327 ;	../../../../core/net/uip6.c:968: if(uip_outstanding(uip_connr)) {
      00103C C0 03            [24] 4328 	push	ar3
      00103E E5 81            [12] 4329 	mov	a,sp
      001040 24 FD            [12] 4330 	add	a,#0xfd
      001042 F8               [12] 4331 	mov	r0,a
      001043 74 1C            [12] 4332 	mov	a,#0x1C
      001045 26               [12] 4333 	add	a,@r0
      001046 FA               [12] 4334 	mov	r2,a
      001047 E4               [12] 4335 	clr	a
      001048 08               [12] 4336 	inc	r0
      001049 36               [12] 4337 	addc	a,@r0
      00104A FB               [12] 4338 	mov	r3,a
      00104B 08               [12] 4339 	inc	r0
      00104C 86 06            [24] 4340 	mov	ar6,@r0
      00104E 8A 82            [24] 4341 	mov	dpl,r2
      001050 8B 83            [24] 4342 	mov	dph,r3
      001052 8E F0            [24] 4343 	mov	b,r6
      001054 12r00r00         [24] 4344 	lcall	__gptrget
      001057 FA               [12] 4345 	mov	r2,a
      001058 A3               [24] 4346 	inc	dptr
      001059 12r00r00         [24] 4347 	lcall	__gptrget
      00105C 4A               [12] 4348 	orl	a,r2
      00105D D0 03            [24] 4349 	pop	ar3
      00105F 70 03            [24] 4350 	jnz	01141$
      001061 02r11rB5         [24] 4351 	ljmp	00134$
      001064                       4352 01141$:
                                   4353 ;	../../../../core/net/uip6.c:969: if(uip_connr->timer-- == 0) {
      001064 A8 81            [24] 4354 	mov	r0,sp
      001066 18               [12] 4355 	dec	r0
      001067 18               [12] 4356 	dec	r0
      001068 74 26            [12] 4357 	mov	a,#0x26
      00106A 26               [12] 4358 	add	a,@r0
      00106B FC               [12] 4359 	mov	r4,a
      00106C E4               [12] 4360 	clr	a
      00106D 08               [12] 4361 	inc	r0
      00106E 36               [12] 4362 	addc	a,@r0
      00106F FD               [12] 4363 	mov	r5,a
      001070 08               [12] 4364 	inc	r0
      001071 86 06            [24] 4365 	mov	ar6,@r0
      001073 8C 82            [24] 4366 	mov	dpl,r4
      001075 8D 83            [24] 4367 	mov	dph,r5
      001077 8E F0            [24] 4368 	mov	b,r6
      001079 12r00r00         [24] 4369 	lcall	__gptrget
      00107C FF               [12] 4370 	mov	r7,a
      00107D 14               [12] 4371 	dec	a
      00107E FA               [12] 4372 	mov	r2,a
      00107F 8C 82            [24] 4373 	mov	dpl,r4
      001081 8D 83            [24] 4374 	mov	dph,r5
      001083 8E F0            [24] 4375 	mov	b,r6
      001085 12r00r00         [24] 4376 	lcall	__gptrput
      001088 EF               [12] 4377 	mov	a,r7
      001089 60 03            [24] 4378 	jz	01142$
      00108B 02r3Br87         [24] 4379 	ljmp	00482$
      00108E                       4380 01142$:
                                   4381 ;	../../../../core/net/uip6.c:970: if(uip_connr->nrtx == UIP_MAXRTX ||
      00108E A8 81            [24] 4382 	mov	r0,sp
      001090 18               [12] 4383 	dec	r0
      001091 18               [12] 4384 	dec	r0
      001092 E5 81            [12] 4385 	mov	a,sp
      001094 24 F9            [12] 4386 	add	a,#0xf9
      001096 F9               [12] 4387 	mov	r1,a
      001097 74 27            [12] 4388 	mov	a,#0x27
      001099 26               [12] 4389 	add	a,@r0
      00109A F7               [12] 4390 	mov	@r1,a
      00109B E4               [12] 4391 	clr	a
      00109C 08               [12] 4392 	inc	r0
      00109D 36               [12] 4393 	addc	a,@r0
      00109E 09               [12] 4394 	inc	r1
      00109F F7               [12] 4395 	mov	@r1,a
      0010A0 08               [12] 4396 	inc	r0
      0010A1 09               [12] 4397 	inc	r1
      0010A2 E6               [12] 4398 	mov	a,@r0
      0010A3 F7               [12] 4399 	mov	@r1,a
      0010A4 E5 81            [12] 4400 	mov	a,sp
      0010A6 24 F9            [12] 4401 	add	a,#0xf9
      0010A8 F8               [12] 4402 	mov	r0,a
      0010A9 86 82            [24] 4403 	mov	dpl,@r0
      0010AB 08               [12] 4404 	inc	r0
      0010AC 86 83            [24] 4405 	mov	dph,@r0
      0010AE 08               [12] 4406 	inc	r0
      0010AF 86 F0            [24] 4407 	mov	b,@r0
      0010B1 12r00r00         [24] 4408 	lcall	__gptrget
      0010B4 FA               [12] 4409 	mov	r2,a
      0010B5 BA 08 02         [24] 4410 	cjne	r2,#0x08,01143$
      0010B8 80 1C            [24] 4411 	sjmp	00117$
      0010BA                       4412 01143$:
                                   4413 ;	../../../../core/net/uip6.c:971: ((uip_connr->tcpstateflags == UIP_SYN_SENT ||
      0010BA E5 81            [12] 4414 	mov	a,sp
      0010BC 24 F6            [12] 4415 	add	a,#0xf6
      0010BE F8               [12] 4416 	mov	r0,a
      0010BF 86 82            [24] 4417 	mov	dpl,@r0
      0010C1 08               [12] 4418 	inc	r0
      0010C2 86 83            [24] 4419 	mov	dph,@r0
      0010C4 08               [12] 4420 	inc	r0
      0010C5 86 F0            [24] 4421 	mov	b,@r0
      0010C7 12r00r00         [24] 4422 	lcall	__gptrget
      0010CA FF               [12] 4423 	mov	r7,a
      0010CB BF 02 02         [24] 4424 	cjne	r7,#0x02,01144$
      0010CE 80 03            [24] 4425 	sjmp	00120$
      0010D0                       4426 01144$:
                                   4427 ;	../../../../core/net/uip6.c:972: uip_connr->tcpstateflags == UIP_SYN_RCVD) &&
      0010D0 BF 01 36         [24] 4428 	cjne	r7,#0x01,00118$
      0010D3                       4429 00120$:
                                   4430 ;	../../../../core/net/uip6.c:973: uip_connr->nrtx == UIP_MAXSYNRTX)) {
      0010D3 BA 05 33         [24] 4431 	cjne	r2,#0x05,00118$
      0010D6                       4432 00117$:
                                   4433 ;	../../../../core/net/uip6.c:974: uip_connr->tcpstateflags = UIP_CLOSED;
      0010D6 E5 81            [12] 4434 	mov	a,sp
      0010D8 24 F6            [12] 4435 	add	a,#0xf6
      0010DA F8               [12] 4436 	mov	r0,a
      0010DB 86 82            [24] 4437 	mov	dpl,@r0
      0010DD 08               [12] 4438 	inc	r0
      0010DE 86 83            [24] 4439 	mov	dph,@r0
      0010E0 08               [12] 4440 	inc	r0
      0010E1 86 F0            [24] 4441 	mov	b,@r0
      0010E3 E4               [12] 4442 	clr	a
      0010E4 12r00r00         [24] 4443 	lcall	__gptrput
                                   4444 ;	../../../../core/net/uip6.c:981: uip_flags = UIP_TIMEDOUT;
      0010E7 90r01r05         [24] 4445 	mov	dptr,#_uip_flags
      0010EA 74 80            [12] 4446 	mov	a,#0x80
      0010EC F0               [24] 4447 	movx	@dptr,a
                                   4448 ;	../../../../core/net/uip6.c:982: UIP_APPCALL();
      0010ED 78r00            [12] 4449 	mov	r0,#_tcpip_uipcall
      0010EF 79s00            [12] 4450 	mov	r1,#(_tcpip_uipcall >> 8)
      0010F1 7As00            [12] 4451 	mov	r2,#(_tcpip_uipcall >> 16)
      0010F3 12r00r00         [24] 4452 	lcall	__sdcc_banked_call
                                   4453 ;	../../../../core/net/uip6.c:985: UIP_TCP_BUF->flags = TCP_RST | TCP_ACK;
      0010F6 7Fr33            [12] 4454 	mov	r7,#(_uip_aligned_buf + 0x0028)
      0010F8 7Es00            [12] 4455 	mov	r6,#((_uip_aligned_buf + 0x0028) >> 8)
      0010FA 74 0D            [12] 4456 	mov	a,#0x0D
      0010FC 2F               [12] 4457 	add	a,r7
      0010FD F5 82            [12] 4458 	mov	dpl,a
      0010FF E4               [12] 4459 	clr	a
      001100 3E               [12] 4460 	addc	a,r6
      001101 F5 83            [12] 4461 	mov	dph,a
      001103 74 14            [12] 4462 	mov	a,#0x14
      001105 F0               [24] 4463 	movx	@dptr,a
                                   4464 ;	../../../../core/net/uip6.c:986: goto tcp_send_nodata;
      001106 02r38r10         [24] 4465 	ljmp	00473$
      001109                       4466 00118$:
                                   4467 ;	../../../../core/net/uip6.c:990: uip_connr->timer = UIP_RTO << (uip_connr->nrtx > 4?
      001109 EA               [12] 4468 	mov	a,r2
      00110A 24 FB            [12] 4469 	add	a,#0xff - 0x04
      00110C 50 04            [24] 4470 	jnc	00501$
                                   4471 ;	../../../../core/net/uip6.c:991: 4:
      00110E 7F 04            [12] 4472 	mov	r7,#0x04
      001110 80 02            [24] 4473 	sjmp	00502$
      001112                       4474 00501$:
                                   4475 ;	../../../../core/net/uip6.c:992: uip_connr->nrtx);
      001112 8A 07            [24] 4476 	mov	ar7,r2
      001114                       4477 00502$:
      001114 8F F0            [24] 4478 	mov	b,r7
      001116 05 F0            [12] 4479 	inc	b
      001118 74 03            [12] 4480 	mov	a,#0x03
      00111A 80 02            [24] 4481 	sjmp	01152$
      00111C                       4482 01150$:
      00111C 25 E0            [12] 4483 	add	a,acc
      00111E                       4484 01152$:
      00111E D5 F0 FB         [24] 4485 	djnz	b,01150$
      001121 FA               [12] 4486 	mov	r2,a
      001122 8C 82            [24] 4487 	mov	dpl,r4
      001124 8D 83            [24] 4488 	mov	dph,r5
      001126 8E F0            [24] 4489 	mov	b,r6
      001128 12r00r00         [24] 4490 	lcall	__gptrput
                                   4491 ;	../../../../core/net/uip6.c:993: ++(uip_connr->nrtx);
      00112B E5 81            [12] 4492 	mov	a,sp
      00112D 24 F9            [12] 4493 	add	a,#0xf9
      00112F F8               [12] 4494 	mov	r0,a
      001130 86 82            [24] 4495 	mov	dpl,@r0
      001132 08               [12] 4496 	inc	r0
      001133 86 83            [24] 4497 	mov	dph,@r0
      001135 08               [12] 4498 	inc	r0
      001136 86 F0            [24] 4499 	mov	b,@r0
      001138 12r00r00         [24] 4500 	lcall	__gptrget
      00113B FE               [12] 4501 	mov	r6,a
      00113C 0E               [12] 4502 	inc	r6
      00113D E5 81            [12] 4503 	mov	a,sp
      00113F 24 F9            [12] 4504 	add	a,#0xf9
      001141 F8               [12] 4505 	mov	r0,a
      001142 86 82            [24] 4506 	mov	dpl,@r0
      001144 08               [12] 4507 	inc	r0
      001145 86 83            [24] 4508 	mov	dph,@r0
      001147 08               [12] 4509 	inc	r0
      001148 86 F0            [24] 4510 	mov	b,@r0
      00114A EE               [12] 4511 	mov	a,r6
      00114B 12r00r00         [24] 4512 	lcall	__gptrput
                                   4513 ;	../../../../core/net/uip6.c:1004: switch(uip_connr->tcpstateflags & UIP_TS_MASK) {
      00114E E5 81            [12] 4514 	mov	a,sp
      001150 24 F6            [12] 4515 	add	a,#0xf6
      001152 F8               [12] 4516 	mov	r0,a
      001153 86 82            [24] 4517 	mov	dpl,@r0
      001155 08               [12] 4518 	inc	r0
      001156 86 83            [24] 4519 	mov	dph,@r0
      001158 08               [12] 4520 	inc	r0
      001159 86 F0            [24] 4521 	mov	b,@r0
      00115B 12r00r00         [24] 4522 	lcall	__gptrget
      00115E 54 0F            [12] 4523 	anl	a,#0x0F
      001160 FE               [12] 4524 	mov	r6,a
      001161 24 F7            [12] 4525 	add	a,#0xff - 0x08
      001163 50 03            [24] 4526 	jnc	01153$
      001165 02r3Br87         [24] 4527 	ljmp	00482$
      001168                       4528 01153$:
      001168 EE               [12] 4529 	mov	a,r6
      001169 24 0A            [12] 4530 	add	a,#(01154$-3-.)
      00116B 83               [24] 4531 	movc	a,@a+pc
      00116C F5 82            [12] 4532 	mov	dpl,a
      00116E EE               [12] 4533 	mov	a,r6
      00116F 24 0D            [12] 4534 	add	a,#(01155$-3-.)
      001171 83               [24] 4535 	movc	a,@a+pc
      001172 F5 83            [12] 4536 	mov	dph,a
      001174 E4               [12] 4537 	clr	a
      001175 73               [24] 4538 	jmp	@a+dptr
      001176                       4539 01154$:
      001176rB2                    4540 	.db	00128$
      001177r88                    4541 	.db	00122$
      001178r8B                    4542 	.db	00123$
      001179r9D                    4543 	.db	00124$
      00117ArAF                    4544 	.db	00125$
      00117BrB2                    4545 	.db	00128$
      00117CrAF                    4546 	.db	00126$
      00117DrB2                    4547 	.db	00128$
      00117ErAF                    4548 	.db	00127$
      00117F                       4549 01155$:
      00117Fs11                    4550 	.db	00128$>>8
      001180s11                    4551 	.db	00122$>>8
      001181s11                    4552 	.db	00123$>>8
      001182s11                    4553 	.db	00124$>>8
      001183s11                    4554 	.db	00125$>>8
      001184s11                    4555 	.db	00128$>>8
      001185s11                    4556 	.db	00126$>>8
      001186s11                    4557 	.db	00128$>>8
      001187s11                    4558 	.db	00127$>>8
                                   4559 ;	../../../../core/net/uip6.c:1005: case UIP_SYN_RCVD:
      001188                       4560 00122$:
                                   4561 ;	../../../../core/net/uip6.c:1007: goto tcp_send_synack;
      001188 02r28r75         [24] 4562 	ljmp	00348$
                                   4563 ;	../../../../core/net/uip6.c:1010: case UIP_SYN_SENT:
      00118B                       4564 00123$:
                                   4565 ;	../../../../core/net/uip6.c:1012: UIP_TCP_BUF->flags = 0;
      00118B 7Dr33            [12] 4566 	mov	r5,#(_uip_aligned_buf + 0x0028)
      00118D 7Es00            [12] 4567 	mov	r6,#((_uip_aligned_buf + 0x0028) >> 8)
      00118F 74 0D            [12] 4568 	mov	a,#0x0D
      001191 2D               [12] 4569 	add	a,r5
      001192 F5 82            [12] 4570 	mov	dpl,a
      001194 E4               [12] 4571 	clr	a
      001195 3E               [12] 4572 	addc	a,r6
      001196 F5 83            [12] 4573 	mov	dph,a
      001198 E4               [12] 4574 	clr	a
      001199 F0               [24] 4575 	movx	@dptr,a
                                   4576 ;	../../../../core/net/uip6.c:1013: goto tcp_send_syn;
      00119A 02r28r85         [24] 4577 	ljmp	00349$
                                   4578 ;	../../../../core/net/uip6.c:1016: case UIP_ESTABLISHED:
      00119D                       4579 00124$:
                                   4580 ;	../../../../core/net/uip6.c:1023: uip_flags = UIP_REXMIT;
      00119D 90r01r05         [24] 4581 	mov	dptr,#_uip_flags
      0011A0 74 04            [12] 4582 	mov	a,#0x04
      0011A2 F0               [24] 4583 	movx	@dptr,a
                                   4584 ;	../../../../core/net/uip6.c:1024: UIP_APPCALL();
      0011A3 78r00            [12] 4585 	mov	r0,#_tcpip_uipcall
      0011A5 79s00            [12] 4586 	mov	r1,#(_tcpip_uipcall >> 8)
      0011A7 7As00            [12] 4587 	mov	r2,#(_tcpip_uipcall >> 16)
      0011A9 12r00r00         [24] 4588 	lcall	__sdcc_banked_call
                                   4589 ;	../../../../core/net/uip6.c:1025: goto apprexmit;
      0011AC 02r35rA7         [24] 4590 	ljmp	00436$
                                   4591 ;	../../../../core/net/uip6.c:1027: case UIP_FIN_WAIT_1:
      0011AF                       4592 00125$:
                                   4593 ;	../../../../core/net/uip6.c:1028: case UIP_CLOSING:
      0011AF                       4594 00126$:
                                   4595 ;	../../../../core/net/uip6.c:1029: case UIP_LAST_ACK:
      0011AF                       4596 00127$:
                                   4597 ;	../../../../core/net/uip6.c:1031: goto tcp_send_finack;
      0011AF 02r32rB8         [24] 4598 	ljmp	00410$
                                   4599 ;	../../../../core/net/uip6.c:1032: }
      0011B2                       4600 00128$:
      0011B2 02r3Br87         [24] 4601 	ljmp	00482$
      0011B5                       4602 00134$:
                                   4603 ;	../../../../core/net/uip6.c:1034: } else if((uip_connr->tcpstateflags & UIP_TS_MASK) == UIP_ESTABLISHED) {
      0011B5 53 03 0F         [24] 4604 	anl	ar3,#0x0F
      0011B8 BB 03 02         [24] 4605 	cjne	r3,#0x03,01156$
      0011BB 80 03            [24] 4606 	sjmp	01157$
      0011BD                       4607 01156$:
      0011BD 02r3Br87         [24] 4608 	ljmp	00482$
      0011C0                       4609 01157$:
                                   4610 ;	../../../../core/net/uip6.c:1039: uip_flags = UIP_POLL;
      0011C0 90r01r05         [24] 4611 	mov	dptr,#_uip_flags
      0011C3 74 08            [12] 4612 	mov	a,#0x08
      0011C5 F0               [24] 4613 	movx	@dptr,a
                                   4614 ;	../../../../core/net/uip6.c:1040: UIP_APPCALL();
      0011C6 78r00            [12] 4615 	mov	r0,#_tcpip_uipcall
      0011C8 79s00            [12] 4616 	mov	r1,#(_tcpip_uipcall >> 8)
      0011CA 7As00            [12] 4617 	mov	r2,#(_tcpip_uipcall >> 16)
      0011CC 12r00r00         [24] 4618 	lcall	__sdcc_banked_call
                                   4619 ;	../../../../core/net/uip6.c:1041: goto appsend;
      0011CF 02r34r1B         [24] 4620 	ljmp	00422$
                                   4621 ;	../../../../core/net/uip6.c:1044: goto drop;
      0011D2                       4622 00146$:
                                   4623 ;	../../../../core/net/uip6.c:1048: if(flag == UIP_UDP_TIMER) {
      0011D2 BF 05 6E         [24] 4624 	cjne	r7,#0x05,00151$
                                   4625 ;	../../../../core/net/uip6.c:1049: if(uip_udp_conn->lport != 0) {
      0011D5 90r03r0B         [24] 4626 	mov	dptr,#_uip_udp_conn
      0011D8 E0               [24] 4627 	movx	a,@dptr
      0011D9 FD               [12] 4628 	mov	r5,a
      0011DA A3               [24] 4629 	inc	dptr
      0011DB E0               [24] 4630 	movx	a,@dptr
      0011DC FE               [12] 4631 	mov	r6,a
      0011DD A3               [24] 4632 	inc	dptr
      0011DE E0               [24] 4633 	movx	a,@dptr
      0011DF FF               [12] 4634 	mov	r7,a
      0011E0 74 10            [12] 4635 	mov	a,#0x10
      0011E2 2D               [12] 4636 	add	a,r5
      0011E3 FD               [12] 4637 	mov	r5,a
      0011E4 E4               [12] 4638 	clr	a
      0011E5 3E               [12] 4639 	addc	a,r6
      0011E6 FE               [12] 4640 	mov	r6,a
      0011E7 8D 82            [24] 4641 	mov	dpl,r5
      0011E9 8E 83            [24] 4642 	mov	dph,r6
      0011EB 8F F0            [24] 4643 	mov	b,r7
      0011ED 12r00r00         [24] 4644 	lcall	__gptrget
      0011F0 FD               [12] 4645 	mov	r5,a
      0011F1 A3               [24] 4646 	inc	dptr
      0011F2 12r00r00         [24] 4647 	lcall	__gptrget
      0011F5 FE               [12] 4648 	mov	r6,a
      0011F6 4D               [12] 4649 	orl	a,r5
      0011F7 70 03            [24] 4650 	jnz	01160$
      0011F9 02r3Br87         [24] 4651 	ljmp	00482$
      0011FC                       4652 01160$:
                                   4653 ;	../../../../core/net/uip6.c:1050: uip_conn = NULL;
      0011FC 90r01r06         [24] 4654 	mov	dptr,#_uip_conn
      0011FF E4               [12] 4655 	clr	a
      001200 F0               [24] 4656 	movx	@dptr,a
      001201 E4               [12] 4657 	clr	a
      001202 A3               [24] 4658 	inc	dptr
      001203 F0               [24] 4659 	movx	@dptr,a
      001204 E4               [12] 4660 	clr	a
      001205 A3               [24] 4661 	inc	dptr
      001206 F0               [24] 4662 	movx	@dptr,a
                                   4663 ;	../../../../core/net/uip6.c:1051: uip_sappdata = uip_appdata = &uip_buf[UIP_IPUDPH_LEN + UIP_LLH_LEN];
      001207 90r00rFB         [24] 4664 	mov	dptr,#_uip_appdata
      00120A 74r3B            [12] 4665 	mov	a,#(_uip_aligned_buf + 0x0030)
      00120C F0               [24] 4666 	movx	@dptr,a
      00120D 74s00            [12] 4667 	mov	a,#((_uip_aligned_buf + 0x0030) >> 8)
      00120F A3               [24] 4668 	inc	dptr
      001210 F0               [24] 4669 	movx	@dptr,a
      001211 E4               [12] 4670 	clr	a
      001212 A3               [24] 4671 	inc	dptr
      001213 F0               [24] 4672 	movx	@dptr,a
      001214 90r00rFE         [24] 4673 	mov	dptr,#_uip_sappdata
      001217 74r3B            [12] 4674 	mov	a,#(_uip_aligned_buf + 0x0030)
      001219 F0               [24] 4675 	movx	@dptr,a
      00121A 74s00            [12] 4676 	mov	a,#((_uip_aligned_buf + 0x0030) >> 8)
      00121C A3               [24] 4677 	inc	dptr
      00121D F0               [24] 4678 	movx	@dptr,a
      00121E E4               [12] 4679 	clr	a
      00121F A3               [24] 4680 	inc	dptr
      001220 F0               [24] 4681 	movx	@dptr,a
                                   4682 ;	../../../../core/net/uip6.c:1052: uip_len = uip_slen = 0;
      001221 90r01r03         [24] 4683 	mov	dptr,#_uip_slen
      001224 E4               [12] 4684 	clr	a
      001225 F0               [24] 4685 	movx	@dptr,a
      001226 E4               [12] 4686 	clr	a
      001227 A3               [24] 4687 	inc	dptr
      001228 F0               [24] 4688 	movx	@dptr,a
      001229 90r01r01         [24] 4689 	mov	dptr,#_uip_len
      00122C E4               [12] 4690 	clr	a
      00122D F0               [24] 4691 	movx	@dptr,a
      00122E E4               [12] 4692 	clr	a
      00122F A3               [24] 4693 	inc	dptr
      001230 F0               [24] 4694 	movx	@dptr,a
                                   4695 ;	../../../../core/net/uip6.c:1053: uip_flags = UIP_POLL;
      001231 90r01r05         [24] 4696 	mov	dptr,#_uip_flags
      001234 74 08            [12] 4697 	mov	a,#0x08
      001236 F0               [24] 4698 	movx	@dptr,a
                                   4699 ;	../../../../core/net/uip6.c:1054: UIP_UDP_APPCALL();
      001237 78r00            [12] 4700 	mov	r0,#_tcpip_uipcall
      001239 79s00            [12] 4701 	mov	r1,#(_tcpip_uipcall >> 8)
      00123B 7As00            [12] 4702 	mov	r2,#(_tcpip_uipcall >> 16)
      00123D 12r00r00         [24] 4703 	lcall	__sdcc_banked_call
                                   4704 ;	../../../../core/net/uip6.c:1055: goto udp_send;
      001240 02r1Dr3C         [24] 4705 	ljmp	00291$
                                   4706 ;	../../../../core/net/uip6.c:1057: goto drop;
      001243                       4707 00151$:
                                   4708 ;	../../../../core/net/uip6.c:1069: if((UIP_IP_BUF->vtc & 0xf0) != 0x60)  { /* IP version and header length. */
      001243 90r00r0B         [24] 4709 	mov	dptr,#_uip_aligned_buf
      001246 E0               [24] 4710 	movx	a,@dptr
      001247 FF               [12] 4711 	mov	r7,a
      001248 53 07 F0         [24] 4712 	anl	ar7,#0xF0
      00124B BF 60 02         [24] 4713 	cjne	r7,#0x60,01161$
      00124E 80 03            [24] 4714 	sjmp	01162$
      001250                       4715 01161$:
      001250 02r3Br87         [24] 4716 	ljmp	00482$
      001253                       4717 01162$:
                                   4718 ;	../../../../core/net/uip6.c:1084: if((UIP_IP_BUF->len[0] << 8) + UIP_IP_BUF->len[1] <= uip_len) {
      001253 7Er0B            [12] 4719 	mov	r6,#_uip_aligned_buf
      001255 7Fs00            [12] 4720 	mov	r7,#(_uip_aligned_buf >> 8)
      001257 8E 82            [24] 4721 	mov	dpl,r6
      001259 8F 83            [24] 4722 	mov	dph,r7
      00125B A3               [24] 4723 	inc	dptr
      00125C A3               [24] 4724 	inc	dptr
      00125D A3               [24] 4725 	inc	dptr
      00125E A3               [24] 4726 	inc	dptr
      00125F E0               [24] 4727 	movx	a,@dptr
      001260 FE               [12] 4728 	mov	r6,a
      001261 7F 00            [12] 4729 	mov	r7,#0x00
      001263 7Cr0B            [12] 4730 	mov	r4,#_uip_aligned_buf
      001265 7Ds00            [12] 4731 	mov	r5,#(_uip_aligned_buf >> 8)
      001267 8C 82            [24] 4732 	mov	dpl,r4
      001269 8D 83            [24] 4733 	mov	dph,r5
      00126B A3               [24] 4734 	inc	dptr
      00126C A3               [24] 4735 	inc	dptr
      00126D A3               [24] 4736 	inc	dptr
      00126E A3               [24] 4737 	inc	dptr
      00126F A3               [24] 4738 	inc	dptr
      001270 E0               [24] 4739 	movx	a,@dptr
      001271 7C 00            [12] 4740 	mov	r4,#0x00
      001273 2F               [12] 4741 	add	a,r7
      001274 FF               [12] 4742 	mov	r7,a
      001275 EC               [12] 4743 	mov	a,r4
      001276 3E               [12] 4744 	addc	a,r6
      001277 FE               [12] 4745 	mov	r6,a
      001278 90r01r01         [24] 4746 	mov	dptr,#_uip_len
      00127B E0               [24] 4747 	movx	a,@dptr
      00127C FC               [12] 4748 	mov	r4,a
      00127D A3               [24] 4749 	inc	dptr
      00127E E0               [24] 4750 	movx	a,@dptr
      00127F FD               [12] 4751 	mov	r5,a
      001280 C3               [12] 4752 	clr	c
      001281 EC               [12] 4753 	mov	a,r4
      001282 9F               [12] 4754 	subb	a,r7
      001283 ED               [12] 4755 	mov	a,r5
      001284 9E               [12] 4756 	subb	a,r6
      001285 50 03            [24] 4757 	jnc	01163$
      001287 02r3Br87         [24] 4758 	ljmp	00482$
      00128A                       4759 01163$:
                                   4760 ;	../../../../core/net/uip6.c:1085: uip_len = (UIP_IP_BUF->len[0] << 8) + UIP_IP_BUF->len[1] + UIP_IPH_LEN;
      00128A 7Er0B            [12] 4761 	mov	r6,#_uip_aligned_buf
      00128C 7Fs00            [12] 4762 	mov	r7,#(_uip_aligned_buf >> 8)
      00128E 8E 82            [24] 4763 	mov	dpl,r6
      001290 8F 83            [24] 4764 	mov	dph,r7
      001292 A3               [24] 4765 	inc	dptr
      001293 A3               [24] 4766 	inc	dptr
      001294 A3               [24] 4767 	inc	dptr
      001295 A3               [24] 4768 	inc	dptr
      001296 E0               [24] 4769 	movx	a,@dptr
      001297 FE               [12] 4770 	mov	r6,a
      001298 7F 00            [12] 4771 	mov	r7,#0x00
      00129A 7Cr0B            [12] 4772 	mov	r4,#_uip_aligned_buf
      00129C 7Ds00            [12] 4773 	mov	r5,#(_uip_aligned_buf >> 8)
      00129E 8C 82            [24] 4774 	mov	dpl,r4
      0012A0 8D 83            [24] 4775 	mov	dph,r5
      0012A2 A3               [24] 4776 	inc	dptr
      0012A3 A3               [24] 4777 	inc	dptr
      0012A4 A3               [24] 4778 	inc	dptr
      0012A5 A3               [24] 4779 	inc	dptr
      0012A6 A3               [24] 4780 	inc	dptr
      0012A7 E0               [24] 4781 	movx	a,@dptr
      0012A8 FD               [12] 4782 	mov	r5,a
      0012A9 7C 00            [12] 4783 	mov	r4,#0x00
      0012AB 2F               [12] 4784 	add	a,r7
      0012AC FF               [12] 4785 	mov	r7,a
      0012AD EC               [12] 4786 	mov	a,r4
      0012AE 3E               [12] 4787 	addc	a,r6
      0012AF FE               [12] 4788 	mov	r6,a
      0012B0 90r01r01         [24] 4789 	mov	dptr,#_uip_len
      0012B3 74 28            [12] 4790 	mov	a,#0x28
      0012B5 2F               [12] 4791 	add	a,r7
      0012B6 F0               [24] 4792 	movx	@dptr,a
      0012B7 E4               [12] 4793 	clr	a
      0012B8 3E               [12] 4794 	addc	a,r6
      0012B9 A3               [24] 4795 	inc	dptr
      0012BA F0               [24] 4796 	movx	@dptr,a
                                   4797 ;	../../../../core/net/uip6.c:1108: if(uip_is_addr_mcast(&UIP_IP_BUF->srcipaddr)){
      0012BB 7Er0B            [12] 4798 	mov	r6,#_uip_aligned_buf
      0012BD 7Fs00            [12] 4799 	mov	r7,#(_uip_aligned_buf >> 8)
      0012BF 74 08            [12] 4800 	mov	a,#0x08
      0012C1 2E               [12] 4801 	add	a,r6
      0012C2 F5 82            [12] 4802 	mov	dpl,a
      0012C4 E4               [12] 4803 	clr	a
      0012C5 3F               [12] 4804 	addc	a,r7
      0012C6 F5 83            [12] 4805 	mov	dph,a
      0012C8 E0               [24] 4806 	movx	a,@dptr
      0012C9 FF               [12] 4807 	mov	r7,a
      0012CA BF FF 03         [24] 4808 	cjne	r7,#0xFF,01164$
      0012CD 02r3Br87         [24] 4809 	ljmp	00482$
      0012D0                       4810 01164$:
                                   4811 ;	../../../../core/net/uip6.c:1120: uip_next_hdr = &UIP_IP_BUF->proto;
      0012D0 7Er0B            [12] 4812 	mov	r6,#_uip_aligned_buf
      0012D2 7Fs00            [12] 4813 	mov	r7,#(_uip_aligned_buf >> 8)
      0012D4 74 06            [12] 4814 	mov	a,#0x06
      0012D6 2E               [12] 4815 	add	a,r6
      0012D7 FE               [12] 4816 	mov	r6,a
      0012D8 E4               [12] 4817 	clr	a
      0012D9 3F               [12] 4818 	addc	a,r7
      0012DA FF               [12] 4819 	mov	r7,a
      0012DB 7D 00            [12] 4820 	mov	r5,#0x00
      0012DD 90r00r08         [24] 4821 	mov	dptr,#_uip_next_hdr
      0012E0 EE               [12] 4822 	mov	a,r6
      0012E1 F0               [24] 4823 	movx	@dptr,a
      0012E2 EF               [12] 4824 	mov	a,r7
      0012E3 A3               [24] 4825 	inc	dptr
      0012E4 F0               [24] 4826 	movx	@dptr,a
      0012E5 ED               [12] 4827 	mov	a,r5
      0012E6 A3               [24] 4828 	inc	dptr
      0012E7 F0               [24] 4829 	movx	@dptr,a
                                   4830 ;	../../../../core/net/uip6.c:1121: uip_ext_len = 0;
      0012E8 90r00r01         [24] 4831 	mov	dptr,#_uip_ext_len
                                   4832 ;	../../../../core/net/uip6.c:1122: uip_ext_bitmap = 0;
      0012EB E4               [12] 4833 	clr	a
      0012EC F0               [24] 4834 	movx	@dptr,a
      0012ED 90r00r00         [24] 4835 	mov	dptr,#_uip_ext_bitmap
      0012F0 F0               [24] 4836 	movx	@dptr,a
                                   4837 ;	../../../../core/net/uip6.c:1123: if(*uip_next_hdr == UIP_PROTO_HBHO) {
      0012F1 8E 82            [24] 4838 	mov	dpl,r6
      0012F3 8F 83            [24] 4839 	mov	dph,r7
      0012F5 8D F0            [24] 4840 	mov	b,r5
      0012F7 12r00r00         [24] 4841 	lcall	__gptrget
      0012FA 70 53            [24] 4842 	jnz	00164$
                                   4843 ;	../../../../core/net/uip6.c:1125: uip_ext_bitmap |= UIP_EXT_HDR_BITMAP_HBHO;
      0012FC 90r00r00         [24] 4844 	mov	dptr,#_uip_ext_bitmap
      0012FF 74 01            [12] 4845 	mov	a,#0x01
      001301 F0               [24] 4846 	movx	@dptr,a
                                   4847 ;	../../../../core/net/uip6.c:1127: switch(ext_hdr_options_process()) {
      001302 78r24            [12] 4848 	mov	r0,#_ext_hdr_options_process
      001304 79s0D            [12] 4849 	mov	r1,#(_ext_hdr_options_process >> 8)
      001306 7As00            [12] 4850 	mov	r2,#(_ext_hdr_options_process >> 16)
      001308 12r00r00         [24] 4851 	lcall	__sdcc_banked_call
      00130B AF 82            [24] 4852 	mov	r7,dpl
      00130D BF 00 02         [24] 4853 	cjne	r7,#0x00,01166$
      001310 80 0E            [24] 4854 	sjmp	00159$
      001312                       4855 01166$:
      001312 BF 01 03         [24] 4856 	cjne	r7,#0x01,01167$
      001315 02r3Br87         [24] 4857 	ljmp	00482$
      001318                       4858 01167$:
      001318 BF 02 03         [24] 4859 	cjne	r7,#0x02,01168$
      00131B 02r3Br80         [24] 4860 	ljmp	00481$
      00131E                       4861 01168$:
                                   4862 ;	../../../../core/net/uip6.c:1128: case 0:
      00131E 80 2F            [24] 4863 	sjmp	00164$
      001320                       4864 00159$:
                                   4865 ;	../../../../core/net/uip6.c:1130: uip_next_hdr = &UIP_EXT_BUF->next;
      001320 90r00r01         [24] 4866 	mov	dptr,#_uip_ext_len
      001323 E0               [24] 4867 	movx	a,@dptr
      001324 FF               [12] 4868 	mov	r7,a
      001325 24 28            [12] 4869 	add	a,#0x28
      001327 24r0B            [12] 4870 	add	a,#_uip_aligned_buf
      001329 FD               [12] 4871 	mov	r5,a
      00132A E4               [12] 4872 	clr	a
      00132B 34s00            [12] 4873 	addc	a,#(_uip_aligned_buf >> 8)
      00132D FE               [12] 4874 	mov	r6,a
      00132E 8D 03            [24] 4875 	mov	ar3,r5
      001330 8E 04            [24] 4876 	mov	ar4,r6
      001332 90r00r08         [24] 4877 	mov	dptr,#_uip_next_hdr
      001335 EB               [12] 4878 	mov	a,r3
      001336 F0               [24] 4879 	movx	@dptr,a
      001337 EC               [12] 4880 	mov	a,r4
      001338 A3               [24] 4881 	inc	dptr
      001339 F0               [24] 4882 	movx	@dptr,a
      00133A E4               [12] 4883 	clr	a
      00133B A3               [24] 4884 	inc	dptr
      00133C F0               [24] 4885 	movx	@dptr,a
                                   4886 ;	../../../../core/net/uip6.c:1131: uip_ext_len += (UIP_EXT_BUF->len << 3) + 8;
      00133D 8D 82            [24] 4887 	mov	dpl,r5
      00133F 8E 83            [24] 4888 	mov	dph,r6
      001341 A3               [24] 4889 	inc	dptr
      001342 E0               [24] 4890 	movx	a,@dptr
      001343 C4               [12] 4891 	swap	a
      001344 03               [12] 4892 	rr	a
      001345 54 F8            [12] 4893 	anl	a,#0xF8
      001347 FE               [12] 4894 	mov	r6,a
      001348 24 08            [12] 4895 	add	a,#0x08
      00134A 90r00r01         [24] 4896 	mov	dptr,#_uip_ext_len
      00134D 2F               [12] 4897 	add	a,r7
      00134E F0               [24] 4898 	movx	@dptr,a
                                   4899 ;	../../../../core/net/uip6.c:1142: }
      00134F                       4900 00164$:
                                   4901 ;	../../../../core/net/uip6.c:1147: if(!uip_ds6_is_my_addr(&UIP_IP_BUF->destipaddr) &&
      00134F 7Er0B            [12] 4902 	mov	r6,#_uip_aligned_buf
      001351 7Fs00            [12] 4903 	mov	r7,#(_uip_aligned_buf >> 8)
      001353 74 18            [12] 4904 	mov	a,#0x18
      001355 2E               [12] 4905 	add	a,r6
      001356 FE               [12] 4906 	mov	r6,a
      001357 E4               [12] 4907 	clr	a
      001358 3F               [12] 4908 	addc	a,r7
      001359 FF               [12] 4909 	mov	r7,a
      00135A 7D 00            [12] 4910 	mov	r5,#0x00
      00135C 8E 82            [24] 4911 	mov	dpl,r6
      00135E 8F 83            [24] 4912 	mov	dph,r7
      001360 8D F0            [24] 4913 	mov	b,r5
      001362 78r00            [12] 4914 	mov	r0,#_uip_ds6_addr_lookup
      001364 79s00            [12] 4915 	mov	r1,#(_uip_ds6_addr_lookup >> 8)
      001366 7As00            [12] 4916 	mov	r2,#(_uip_ds6_addr_lookup >> 16)
      001368 12r00r00         [24] 4917 	lcall	__sdcc_banked_call
      00136B AD 82            [24] 4918 	mov	r5,dpl
      00136D AE 83            [24] 4919 	mov	r6,dph
      00136F AF F0            [24] 4920 	mov	r7,b
      001371 ED               [12] 4921 	mov	a,r5
      001372 4E               [12] 4922 	orl	a,r6
      001373 60 03            [24] 4923 	jz	01169$
      001375 02r18r03         [24] 4924 	ljmp	00251$
      001378                       4925 01169$:
                                   4926 ;	../../../../core/net/uip6.c:1148: !uip_ds6_is_my_maddr(&UIP_IP_BUF->destipaddr)) {
      001378 7Er0B            [12] 4927 	mov	r6,#_uip_aligned_buf
      00137A 7Fs00            [12] 4928 	mov	r7,#(_uip_aligned_buf >> 8)
      00137C 74 18            [12] 4929 	mov	a,#0x18
      00137E 2E               [12] 4930 	add	a,r6
      00137F FE               [12] 4931 	mov	r6,a
      001380 E4               [12] 4932 	clr	a
      001381 3F               [12] 4933 	addc	a,r7
      001382 FF               [12] 4934 	mov	r7,a
      001383 7D 00            [12] 4935 	mov	r5,#0x00
      001385 8E 82            [24] 4936 	mov	dpl,r6
      001387 8F 83            [24] 4937 	mov	dph,r7
      001389 8D F0            [24] 4938 	mov	b,r5
      00138B 78r00            [12] 4939 	mov	r0,#_uip_ds6_maddr_lookup
      00138D 79s00            [12] 4940 	mov	r1,#(_uip_ds6_maddr_lookup >> 8)
      00138F 7As00            [12] 4941 	mov	r2,#(_uip_ds6_maddr_lookup >> 16)
      001391 12r00r00         [24] 4942 	lcall	__sdcc_banked_call
      001394 AD 82            [24] 4943 	mov	r5,dpl
      001396 AE 83            [24] 4944 	mov	r6,dph
      001398 AF F0            [24] 4945 	mov	r7,b
      00139A ED               [12] 4946 	mov	a,r5
      00139B 4E               [12] 4947 	orl	a,r6
      00139C 60 03            [24] 4948 	jz	01170$
      00139E 02r18r03         [24] 4949 	ljmp	00251$
      0013A1                       4950 01170$:
                                   4951 ;	../../../../core/net/uip6.c:1149: if(!uip_is_addr_mcast(&UIP_IP_BUF->destipaddr) &&
      0013A1 7Er0B            [12] 4952 	mov	r6,#_uip_aligned_buf
      0013A3 7Fs00            [12] 4953 	mov	r7,#(_uip_aligned_buf >> 8)
      0013A5 74 18            [12] 4954 	mov	a,#0x18
      0013A7 2E               [12] 4955 	add	a,r6
      0013A8 F5 82            [12] 4956 	mov	dpl,a
      0013AA E4               [12] 4957 	clr	a
      0013AB 3F               [12] 4958 	addc	a,r7
      0013AC F5 83            [12] 4959 	mov	dph,a
      0013AE E0               [24] 4960 	movx	a,@dptr
      0013AF FF               [12] 4961 	mov	r7,a
      0013B0 BF FF 03         [24] 4962 	cjne	r7,#0xFF,01171$
      0013B3 02r16r0A         [24] 4963 	ljmp	00192$
      0013B6                       4964 01171$:
                                   4965 ;	../../../../core/net/uip6.c:1150: !uip_is_addr_link_local(&UIP_IP_BUF->destipaddr) &&
      0013B6 7Er0B            [12] 4966 	mov	r6,#_uip_aligned_buf
      0013B8 7Fs00            [12] 4967 	mov	r7,#(_uip_aligned_buf >> 8)
      0013BA 74 18            [12] 4968 	mov	a,#0x18
      0013BC 2E               [12] 4969 	add	a,r6
      0013BD F5 82            [12] 4970 	mov	dpl,a
      0013BF E4               [12] 4971 	clr	a
      0013C0 3F               [12] 4972 	addc	a,r7
      0013C1 F5 83            [12] 4973 	mov	dph,a
      0013C3 E0               [24] 4974 	movx	a,@dptr
      0013C4 FF               [12] 4975 	mov	r7,a
      0013C5 BF FE 15         [24] 4976 	cjne	r7,#0xFE,00197$
      0013C8 7Er0B            [12] 4977 	mov	r6,#_uip_aligned_buf
      0013CA 7Fs00            [12] 4978 	mov	r7,#(_uip_aligned_buf >> 8)
      0013CC 74 19            [12] 4979 	mov	a,#0x19
      0013CE 2E               [12] 4980 	add	a,r6
      0013CF F5 82            [12] 4981 	mov	dpl,a
      0013D1 E4               [12] 4982 	clr	a
      0013D2 3F               [12] 4983 	addc	a,r7
      0013D3 F5 83            [12] 4984 	mov	dph,a
      0013D5 E0               [24] 4985 	movx	a,@dptr
      0013D6 FF               [12] 4986 	mov	r7,a
      0013D7 BF 80 03         [24] 4987 	cjne	r7,#0x80,01174$
      0013DA 02r16r0A         [24] 4988 	ljmp	00192$
      0013DD                       4989 01174$:
      0013DD                       4990 00197$:
                                   4991 ;	../../../../core/net/uip6.c:1151: !uip_is_addr_link_local(&UIP_IP_BUF->srcipaddr) &&
      0013DD 7Er0B            [12] 4992 	mov	r6,#_uip_aligned_buf
      0013DF 7Fs00            [12] 4993 	mov	r7,#(_uip_aligned_buf >> 8)
      0013E1 74 08            [12] 4994 	mov	a,#0x08
      0013E3 2E               [12] 4995 	add	a,r6
      0013E4 F5 82            [12] 4996 	mov	dpl,a
      0013E6 E4               [12] 4997 	clr	a
      0013E7 3F               [12] 4998 	addc	a,r7
      0013E8 F5 83            [12] 4999 	mov	dph,a
      0013EA E0               [24] 5000 	movx	a,@dptr
      0013EB FF               [12] 5001 	mov	r7,a
      0013EC BF FE 15         [24] 5002 	cjne	r7,#0xFE,00205$
      0013EF 7Er0B            [12] 5003 	mov	r6,#_uip_aligned_buf
      0013F1 7Fs00            [12] 5004 	mov	r7,#(_uip_aligned_buf >> 8)
      0013F3 74 09            [12] 5005 	mov	a,#0x09
      0013F5 2E               [12] 5006 	add	a,r6
      0013F6 F5 82            [12] 5007 	mov	dpl,a
      0013F8 E4               [12] 5008 	clr	a
      0013F9 3F               [12] 5009 	addc	a,r7
      0013FA F5 83            [12] 5010 	mov	dph,a
      0013FC E0               [24] 5011 	movx	a,@dptr
      0013FD FF               [12] 5012 	mov	r7,a
      0013FE BF 80 03         [24] 5013 	cjne	r7,#0x80,01177$
      001401 02r16r0A         [24] 5014 	ljmp	00192$
      001404                       5015 01177$:
      001404                       5016 00205$:
                                   5017 ;	../../../../core/net/uip6.c:1152: !uip_is_addr_unspecified(&UIP_IP_BUF->srcipaddr) &&
      001404 7Er0B            [12] 5018 	mov	r6,#_uip_aligned_buf
      001406 7Fs00            [12] 5019 	mov	r7,#(_uip_aligned_buf >> 8)
      001408 74 08            [12] 5020 	mov	a,#0x08
      00140A 2E               [12] 5021 	add	a,r6
      00140B F5 82            [12] 5022 	mov	dpl,a
      00140D E4               [12] 5023 	clr	a
      00140E 3F               [12] 5024 	addc	a,r7
      00140F F5 83            [12] 5025 	mov	dph,a
      001411 E0               [24] 5026 	movx	a,@dptr
      001412 FE               [12] 5027 	mov	r6,a
      001413 A3               [24] 5028 	inc	dptr
      001414 E0               [24] 5029 	movx	a,@dptr
      001415 FF               [12] 5030 	mov	r7,a
      001416 4E               [12] 5031 	orl	a,r6
      001417 60 03            [24] 5032 	jz	01178$
      001419 02r14rB5         [24] 5033 	ljmp	00214$
      00141C                       5034 01178$:
      00141C 7Er0B            [12] 5035 	mov	r6,#_uip_aligned_buf
      00141E 7Fs00            [12] 5036 	mov	r7,#(_uip_aligned_buf >> 8)
      001420 74 0A            [12] 5037 	mov	a,#0x0A
      001422 2E               [12] 5038 	add	a,r6
      001423 F5 82            [12] 5039 	mov	dpl,a
      001425 E4               [12] 5040 	clr	a
      001426 3F               [12] 5041 	addc	a,r7
      001427 F5 83            [12] 5042 	mov	dph,a
      001429 E0               [24] 5043 	movx	a,@dptr
      00142A FE               [12] 5044 	mov	r6,a
      00142B A3               [24] 5045 	inc	dptr
      00142C E0               [24] 5046 	movx	a,@dptr
      00142D FF               [12] 5047 	mov	r7,a
      00142E 4E               [12] 5048 	orl	a,r6
      00142F 60 03            [24] 5049 	jz	01179$
      001431 02r14rB5         [24] 5050 	ljmp	00214$
      001434                       5051 01179$:
      001434 7Er0B            [12] 5052 	mov	r6,#_uip_aligned_buf
      001436 7Fs00            [12] 5053 	mov	r7,#(_uip_aligned_buf >> 8)
      001438 74 0C            [12] 5054 	mov	a,#0x0C
      00143A 2E               [12] 5055 	add	a,r6
      00143B F5 82            [12] 5056 	mov	dpl,a
      00143D E4               [12] 5057 	clr	a
      00143E 3F               [12] 5058 	addc	a,r7
      00143F F5 83            [12] 5059 	mov	dph,a
      001441 E0               [24] 5060 	movx	a,@dptr
      001442 FE               [12] 5061 	mov	r6,a
      001443 A3               [24] 5062 	inc	dptr
      001444 E0               [24] 5063 	movx	a,@dptr
      001445 FF               [12] 5064 	mov	r7,a
      001446 4E               [12] 5065 	orl	a,r6
      001447 70 6C            [24] 5066 	jnz	00214$
      001449 7Er0B            [12] 5067 	mov	r6,#_uip_aligned_buf
      00144B 7Fs00            [12] 5068 	mov	r7,#(_uip_aligned_buf >> 8)
      00144D 74 0E            [12] 5069 	mov	a,#0x0E
      00144F 2E               [12] 5070 	add	a,r6
      001450 F5 82            [12] 5071 	mov	dpl,a
      001452 E4               [12] 5072 	clr	a
      001453 3F               [12] 5073 	addc	a,r7
      001454 F5 83            [12] 5074 	mov	dph,a
      001456 E0               [24] 5075 	movx	a,@dptr
      001457 FE               [12] 5076 	mov	r6,a
      001458 A3               [24] 5077 	inc	dptr
      001459 E0               [24] 5078 	movx	a,@dptr
      00145A FF               [12] 5079 	mov	r7,a
      00145B 4E               [12] 5080 	orl	a,r6
      00145C 70 57            [24] 5081 	jnz	00214$
      00145E 7Er0B            [12] 5082 	mov	r6,#_uip_aligned_buf
      001460 7Fs00            [12] 5083 	mov	r7,#(_uip_aligned_buf >> 8)
      001462 74 10            [12] 5084 	mov	a,#0x10
      001464 2E               [12] 5085 	add	a,r6
      001465 F5 82            [12] 5086 	mov	dpl,a
      001467 E4               [12] 5087 	clr	a
      001468 3F               [12] 5088 	addc	a,r7
      001469 F5 83            [12] 5089 	mov	dph,a
      00146B E0               [24] 5090 	movx	a,@dptr
      00146C FE               [12] 5091 	mov	r6,a
      00146D A3               [24] 5092 	inc	dptr
      00146E E0               [24] 5093 	movx	a,@dptr
      00146F FF               [12] 5094 	mov	r7,a
      001470 4E               [12] 5095 	orl	a,r6
      001471 70 42            [24] 5096 	jnz	00214$
      001473 7Er0B            [12] 5097 	mov	r6,#_uip_aligned_buf
      001475 7Fs00            [12] 5098 	mov	r7,#(_uip_aligned_buf >> 8)
      001477 74 12            [12] 5099 	mov	a,#0x12
      001479 2E               [12] 5100 	add	a,r6
      00147A F5 82            [12] 5101 	mov	dpl,a
      00147C E4               [12] 5102 	clr	a
      00147D 3F               [12] 5103 	addc	a,r7
      00147E F5 83            [12] 5104 	mov	dph,a
      001480 E0               [24] 5105 	movx	a,@dptr
      001481 FE               [12] 5106 	mov	r6,a
      001482 A3               [24] 5107 	inc	dptr
      001483 E0               [24] 5108 	movx	a,@dptr
      001484 FF               [12] 5109 	mov	r7,a
      001485 4E               [12] 5110 	orl	a,r6
      001486 70 2D            [24] 5111 	jnz	00214$
      001488 7Er0B            [12] 5112 	mov	r6,#_uip_aligned_buf
      00148A 7Fs00            [12] 5113 	mov	r7,#(_uip_aligned_buf >> 8)
      00148C 74 14            [12] 5114 	mov	a,#0x14
      00148E 2E               [12] 5115 	add	a,r6
      00148F F5 82            [12] 5116 	mov	dpl,a
      001491 E4               [12] 5117 	clr	a
      001492 3F               [12] 5118 	addc	a,r7
      001493 F5 83            [12] 5119 	mov	dph,a
      001495 E0               [24] 5120 	movx	a,@dptr
      001496 FE               [12] 5121 	mov	r6,a
      001497 A3               [24] 5122 	inc	dptr
      001498 E0               [24] 5123 	movx	a,@dptr
      001499 FF               [12] 5124 	mov	r7,a
      00149A 4E               [12] 5125 	orl	a,r6
      00149B 70 18            [24] 5126 	jnz	00214$
      00149D 7Er0B            [12] 5127 	mov	r6,#_uip_aligned_buf
      00149F 7Fs00            [12] 5128 	mov	r7,#(_uip_aligned_buf >> 8)
      0014A1 74 16            [12] 5129 	mov	a,#0x16
      0014A3 2E               [12] 5130 	add	a,r6
      0014A4 F5 82            [12] 5131 	mov	dpl,a
      0014A6 E4               [12] 5132 	clr	a
      0014A7 3F               [12] 5133 	addc	a,r7
      0014A8 F5 83            [12] 5134 	mov	dph,a
      0014AA E0               [24] 5135 	movx	a,@dptr
      0014AB FE               [12] 5136 	mov	r6,a
      0014AC A3               [24] 5137 	inc	dptr
      0014AD E0               [24] 5138 	movx	a,@dptr
      0014AE FF               [12] 5139 	mov	r7,a
      0014AF 4E               [12] 5140 	orl	a,r6
      0014B0 70 03            [24] 5141 	jnz	01185$
      0014B2 02r16r0A         [24] 5142 	ljmp	00192$
      0014B5                       5143 01185$:
      0014B5                       5144 00214$:
                                   5145 ;	../../../../core/net/uip6.c:1153: !uip_is_addr_loopback(&UIP_IP_BUF->destipaddr)) {
      0014B5 7Er0B            [12] 5146 	mov	r6,#_uip_aligned_buf
      0014B7 7Fs00            [12] 5147 	mov	r7,#(_uip_aligned_buf >> 8)
      0014B9 74 18            [12] 5148 	mov	a,#0x18
      0014BB 2E               [12] 5149 	add	a,r6
      0014BC F5 82            [12] 5150 	mov	dpl,a
      0014BE E4               [12] 5151 	clr	a
      0014BF 3F               [12] 5152 	addc	a,r7
      0014C0 F5 83            [12] 5153 	mov	dph,a
      0014C2 E0               [24] 5154 	movx	a,@dptr
      0014C3 FE               [12] 5155 	mov	r6,a
      0014C4 A3               [24] 5156 	inc	dptr
      0014C5 E0               [24] 5157 	movx	a,@dptr
      0014C6 FF               [12] 5158 	mov	r7,a
      0014C7 4E               [12] 5159 	orl	a,r6
      0014C8 60 03            [24] 5160 	jz	01186$
      0014CA 02r15r75         [24] 5161 	ljmp	00191$
      0014CD                       5162 01186$:
      0014CD 7Er0B            [12] 5163 	mov	r6,#_uip_aligned_buf
      0014CF 7Fs00            [12] 5164 	mov	r7,#(_uip_aligned_buf >> 8)
      0014D1 74 1A            [12] 5165 	mov	a,#0x1A
      0014D3 2E               [12] 5166 	add	a,r6
      0014D4 F5 82            [12] 5167 	mov	dpl,a
      0014D6 E4               [12] 5168 	clr	a
      0014D7 3F               [12] 5169 	addc	a,r7
      0014D8 F5 83            [12] 5170 	mov	dph,a
      0014DA E0               [24] 5171 	movx	a,@dptr
      0014DB FE               [12] 5172 	mov	r6,a
      0014DC A3               [24] 5173 	inc	dptr
      0014DD E0               [24] 5174 	movx	a,@dptr
      0014DE FF               [12] 5175 	mov	r7,a
      0014DF 4E               [12] 5176 	orl	a,r6
      0014E0 60 03            [24] 5177 	jz	01187$
      0014E2 02r15r75         [24] 5178 	ljmp	00191$
      0014E5                       5179 01187$:
      0014E5 7Er0B            [12] 5180 	mov	r6,#_uip_aligned_buf
      0014E7 7Fs00            [12] 5181 	mov	r7,#(_uip_aligned_buf >> 8)
      0014E9 74 1C            [12] 5182 	mov	a,#0x1C
      0014EB 2E               [12] 5183 	add	a,r6
      0014EC F5 82            [12] 5184 	mov	dpl,a
      0014EE E4               [12] 5185 	clr	a
      0014EF 3F               [12] 5186 	addc	a,r7
      0014F0 F5 83            [12] 5187 	mov	dph,a
      0014F2 E0               [24] 5188 	movx	a,@dptr
      0014F3 FE               [12] 5189 	mov	r6,a
      0014F4 A3               [24] 5190 	inc	dptr
      0014F5 E0               [24] 5191 	movx	a,@dptr
      0014F6 FF               [12] 5192 	mov	r7,a
      0014F7 4E               [12] 5193 	orl	a,r6
      0014F8 70 7B            [24] 5194 	jnz	00191$
      0014FA 7Er0B            [12] 5195 	mov	r6,#_uip_aligned_buf
      0014FC 7Fs00            [12] 5196 	mov	r7,#(_uip_aligned_buf >> 8)
      0014FE 74 1E            [12] 5197 	mov	a,#0x1E
      001500 2E               [12] 5198 	add	a,r6
      001501 F5 82            [12] 5199 	mov	dpl,a
      001503 E4               [12] 5200 	clr	a
      001504 3F               [12] 5201 	addc	a,r7
      001505 F5 83            [12] 5202 	mov	dph,a
      001507 E0               [24] 5203 	movx	a,@dptr
      001508 FE               [12] 5204 	mov	r6,a
      001509 A3               [24] 5205 	inc	dptr
      00150A E0               [24] 5206 	movx	a,@dptr
      00150B FF               [12] 5207 	mov	r7,a
      00150C 4E               [12] 5208 	orl	a,r6
      00150D 70 66            [24] 5209 	jnz	00191$
      00150F 7Er0B            [12] 5210 	mov	r6,#_uip_aligned_buf
      001511 7Fs00            [12] 5211 	mov	r7,#(_uip_aligned_buf >> 8)
      001513 74 20            [12] 5212 	mov	a,#0x20
      001515 2E               [12] 5213 	add	a,r6
      001516 F5 82            [12] 5214 	mov	dpl,a
      001518 E4               [12] 5215 	clr	a
      001519 3F               [12] 5216 	addc	a,r7
      00151A F5 83            [12] 5217 	mov	dph,a
      00151C E0               [24] 5218 	movx	a,@dptr
      00151D FE               [12] 5219 	mov	r6,a
      00151E A3               [24] 5220 	inc	dptr
      00151F E0               [24] 5221 	movx	a,@dptr
      001520 FF               [12] 5222 	mov	r7,a
      001521 4E               [12] 5223 	orl	a,r6
      001522 70 51            [24] 5224 	jnz	00191$
      001524 7Er0B            [12] 5225 	mov	r6,#_uip_aligned_buf
      001526 7Fs00            [12] 5226 	mov	r7,#(_uip_aligned_buf >> 8)
      001528 74 22            [12] 5227 	mov	a,#0x22
      00152A 2E               [12] 5228 	add	a,r6
      00152B F5 82            [12] 5229 	mov	dpl,a
      00152D E4               [12] 5230 	clr	a
      00152E 3F               [12] 5231 	addc	a,r7
      00152F F5 83            [12] 5232 	mov	dph,a
      001531 E0               [24] 5233 	movx	a,@dptr
      001532 FE               [12] 5234 	mov	r6,a
      001533 A3               [24] 5235 	inc	dptr
      001534 E0               [24] 5236 	movx	a,@dptr
      001535 FF               [12] 5237 	mov	r7,a
      001536 4E               [12] 5238 	orl	a,r6
      001537 70 3C            [24] 5239 	jnz	00191$
      001539 7Er0B            [12] 5240 	mov	r6,#_uip_aligned_buf
      00153B 7Fs00            [12] 5241 	mov	r7,#(_uip_aligned_buf >> 8)
      00153D 74 24            [12] 5242 	mov	a,#0x24
      00153F 2E               [12] 5243 	add	a,r6
      001540 F5 82            [12] 5244 	mov	dpl,a
      001542 E4               [12] 5245 	clr	a
      001543 3F               [12] 5246 	addc	a,r7
      001544 F5 83            [12] 5247 	mov	dph,a
      001546 E0               [24] 5248 	movx	a,@dptr
      001547 FE               [12] 5249 	mov	r6,a
      001548 A3               [24] 5250 	inc	dptr
      001549 E0               [24] 5251 	movx	a,@dptr
      00154A FF               [12] 5252 	mov	r7,a
      00154B 4E               [12] 5253 	orl	a,r6
      00154C 70 27            [24] 5254 	jnz	00191$
      00154E 7Er0B            [12] 5255 	mov	r6,#_uip_aligned_buf
      001550 7Fs00            [12] 5256 	mov	r7,#(_uip_aligned_buf >> 8)
      001552 74 26            [12] 5257 	mov	a,#0x26
      001554 2E               [12] 5258 	add	a,r6
      001555 FE               [12] 5259 	mov	r6,a
      001556 E4               [12] 5260 	clr	a
      001557 3F               [12] 5261 	addc	a,r7
      001558 FF               [12] 5262 	mov	r7,a
      001559 8E 82            [24] 5263 	mov	dpl,r6
      00155B 8F 83            [24] 5264 	mov	dph,r7
      00155D E0               [24] 5265 	movx	a,@dptr
      00155E 70 15            [24] 5266 	jnz	00191$
      001560 7Er0B            [12] 5267 	mov	r6,#_uip_aligned_buf
      001562 7Fs00            [12] 5268 	mov	r7,#(_uip_aligned_buf >> 8)
      001564 74 27            [12] 5269 	mov	a,#0x27
      001566 2E               [12] 5270 	add	a,r6
      001567 F5 82            [12] 5271 	mov	dpl,a
      001569 E4               [12] 5272 	clr	a
      00156A 3F               [12] 5273 	addc	a,r7
      00156B F5 83            [12] 5274 	mov	dph,a
      00156D E0               [24] 5275 	movx	a,@dptr
      00156E FF               [12] 5276 	mov	r7,a
      00156F BF 01 03         [24] 5277 	cjne	r7,#0x01,01194$
      001572 02r16r0A         [24] 5278 	ljmp	00192$
      001575                       5279 01194$:
      001575                       5280 00191$:
                                   5281 ;	../../../../core/net/uip6.c:1157: if(uip_len > UIP_LINK_MTU) {
      001575 90r01r01         [24] 5282 	mov	dptr,#_uip_len
      001578 E0               [24] 5283 	movx	a,@dptr
      001579 FE               [12] 5284 	mov	r6,a
      00157A A3               [24] 5285 	inc	dptr
      00157B E0               [24] 5286 	movx	a,@dptr
      00157C FF               [12] 5287 	mov	r7,a
      00157D C3               [12] 5288 	clr	c
      00157E E4               [12] 5289 	clr	a
      00157F 9E               [12] 5290 	subb	a,r6
      001580 74 05            [12] 5291 	mov	a,#0x05
      001582 9F               [12] 5292 	subb	a,r7
      001583 50 24            [24] 5293 	jnc	00166$
                                   5294 ;	../../../../core/net/uip6.c:1158: uip_icmp6_error_output(ICMP6_PACKET_TOO_BIG, 0, UIP_LINK_MTU);
      001585 E4               [12] 5295 	clr	a
      001586 C0 E0            [24] 5296 	push	acc
      001588 74 05            [12] 5297 	mov	a,#0x05
      00158A C0 E0            [24] 5298 	push	acc
      00158C E4               [12] 5299 	clr	a
      00158D C0 E0            [24] 5300 	push	acc
      00158F C0 E0            [24] 5301 	push	acc
      001591 E4               [12] 5302 	clr	a
      001592 C0 E0            [24] 5303 	push	acc
      001594 75 82 02         [24] 5304 	mov	dpl,#0x02
      001597 78r00            [12] 5305 	mov	r0,#_uip_icmp6_error_output
      001599 79s00            [12] 5306 	mov	r1,#(_uip_icmp6_error_output >> 8)
      00159B 7As00            [12] 5307 	mov	r2,#(_uip_icmp6_error_output >> 16)
      00159D 12r00r00         [24] 5308 	lcall	__sdcc_banked_call
      0015A0 E5 81            [12] 5309 	mov	a,sp
      0015A2 24 FB            [12] 5310 	add	a,#0xfb
      0015A4 F5 81            [12] 5311 	mov	sp,a
                                   5312 ;	../../../../core/net/uip6.c:1160: goto send;
      0015A6 02r3Br80         [24] 5313 	ljmp	00481$
      0015A9                       5314 00166$:
                                   5315 ;	../../../../core/net/uip6.c:1163: if(UIP_IP_BUF->ttl <= 1) {
      0015A9 7Er0B            [12] 5316 	mov	r6,#_uip_aligned_buf
      0015AB 7Fs00            [12] 5317 	mov	r7,#(_uip_aligned_buf >> 8)
      0015AD 74 07            [12] 5318 	mov	a,#0x07
      0015AF 2E               [12] 5319 	add	a,r6
      0015B0 F5 82            [12] 5320 	mov	dpl,a
      0015B2 E4               [12] 5321 	clr	a
      0015B3 3F               [12] 5322 	addc	a,r7
      0015B4 F5 83            [12] 5323 	mov	dph,a
      0015B6 E0               [24] 5324 	movx	a,@dptr
      0015B7 FF               [12] 5325 	mov  r7,a
      0015B8 24 FE            [12] 5326 	add	a,#0xff - 0x01
      0015BA 40 21            [24] 5327 	jc	00168$
                                   5328 ;	../../../../core/net/uip6.c:1164: uip_icmp6_error_output(ICMP6_TIME_EXCEEDED,
      0015BC E4               [12] 5329 	clr	a
      0015BD C0 E0            [24] 5330 	push	acc
      0015BF C0 E0            [24] 5331 	push	acc
      0015C1 C0 E0            [24] 5332 	push	acc
      0015C3 C0 E0            [24] 5333 	push	acc
      0015C5 E4               [12] 5334 	clr	a
      0015C6 C0 E0            [24] 5335 	push	acc
      0015C8 75 82 03         [24] 5336 	mov	dpl,#0x03
      0015CB 78r00            [12] 5337 	mov	r0,#_uip_icmp6_error_output
      0015CD 79s00            [12] 5338 	mov	r1,#(_uip_icmp6_error_output >> 8)
      0015CF 7As00            [12] 5339 	mov	r2,#(_uip_icmp6_error_output >> 16)
      0015D1 12r00r00         [24] 5340 	lcall	__sdcc_banked_call
      0015D4 E5 81            [12] 5341 	mov	a,sp
      0015D6 24 FB            [12] 5342 	add	a,#0xfb
      0015D8 F5 81            [12] 5343 	mov	sp,a
                                   5344 ;	../../../../core/net/uip6.c:1167: goto send;
      0015DA 02r3Br80         [24] 5345 	ljmp	00481$
      0015DD                       5346 00168$:
                                   5347 ;	../../../../core/net/uip6.c:1171: rpl_update_header_empty();
      0015DD 78r00            [12] 5348 	mov	r0,#_rpl_update_header_empty
      0015DF 79s00            [12] 5349 	mov	r1,#(_rpl_update_header_empty >> 8)
      0015E1 7As00            [12] 5350 	mov	r2,#(_rpl_update_header_empty >> 16)
      0015E3 12r00r00         [24] 5351 	lcall	__sdcc_banked_call
                                   5352 ;	../../../../core/net/uip6.c:1174: UIP_IP_BUF->ttl = UIP_IP_BUF->ttl - 1;
      0015E6 7Er0B            [12] 5353 	mov	r6,#_uip_aligned_buf
      0015E8 7Fs00            [12] 5354 	mov	r7,#(_uip_aligned_buf >> 8)
      0015EA 74 07            [12] 5355 	mov	a,#0x07
      0015EC 2E               [12] 5356 	add	a,r6
      0015ED FE               [12] 5357 	mov	r6,a
      0015EE E4               [12] 5358 	clr	a
      0015EF 3F               [12] 5359 	addc	a,r7
      0015F0 FF               [12] 5360 	mov	r7,a
      0015F1 7Cr0B            [12] 5361 	mov	r4,#_uip_aligned_buf
      0015F3 7Ds00            [12] 5362 	mov	r5,#(_uip_aligned_buf >> 8)
      0015F5 74 07            [12] 5363 	mov	a,#0x07
      0015F7 2C               [12] 5364 	add	a,r4
      0015F8 F5 82            [12] 5365 	mov	dpl,a
      0015FA E4               [12] 5366 	clr	a
      0015FB 3D               [12] 5367 	addc	a,r5
      0015FC F5 83            [12] 5368 	mov	dph,a
      0015FE E0               [24] 5369 	movx	a,@dptr
      0015FF FD               [12] 5370 	mov	r5,a
      001600 1D               [12] 5371 	dec	r5
      001601 8E 82            [24] 5372 	mov	dpl,r6
      001603 8F 83            [24] 5373 	mov	dph,r7
      001605 ED               [12] 5374 	mov	a,r5
      001606 F0               [24] 5375 	movx	@dptr,a
                                   5376 ;	../../../../core/net/uip6.c:1179: goto send;
      001607 02r3Br80         [24] 5377 	ljmp	00481$
      00160A                       5378 00192$:
                                   5379 ;	../../../../core/net/uip6.c:1181: if((uip_is_addr_link_local(&UIP_IP_BUF->srcipaddr)) &&
      00160A 7Er0B            [12] 5380 	mov	r6,#_uip_aligned_buf
      00160C 7Fs00            [12] 5381 	mov	r7,#(_uip_aligned_buf >> 8)
      00160E 74 08            [12] 5382 	mov	a,#0x08
      001610 2E               [12] 5383 	add	a,r6
      001611 F5 82            [12] 5384 	mov	dpl,a
      001613 E4               [12] 5385 	clr	a
      001614 3F               [12] 5386 	addc	a,r7
      001615 F5 83            [12] 5387 	mov	dph,a
      001617 E0               [24] 5388 	movx	a,@dptr
      001618 FF               [12] 5389 	mov	r7,a
      001619 BF FE 02         [24] 5390 	cjne	r7,#0xFE,01197$
      00161C 80 03            [24] 5391 	sjmp	01198$
      00161E                       5392 01197$:
      00161E 02r3Br87         [24] 5393 	ljmp	00482$
      001621                       5394 01198$:
      001621 7Er0B            [12] 5395 	mov	r6,#_uip_aligned_buf
      001623 7Fs00            [12] 5396 	mov	r7,#(_uip_aligned_buf >> 8)
      001625 74 09            [12] 5397 	mov	a,#0x09
      001627 2E               [12] 5398 	add	a,r6
      001628 F5 82            [12] 5399 	mov	dpl,a
      00162A E4               [12] 5400 	clr	a
      00162B 3F               [12] 5401 	addc	a,r7
      00162C F5 83            [12] 5402 	mov	dph,a
      00162E E0               [24] 5403 	movx	a,@dptr
      00162F FF               [12] 5404 	mov	r7,a
      001630 BF 80 02         [24] 5405 	cjne	r7,#0x80,01199$
      001633 80 03            [24] 5406 	sjmp	01200$
      001635                       5407 01199$:
      001635 02r3Br87         [24] 5408 	ljmp	00482$
      001638                       5409 01200$:
                                   5410 ;	../../../../core/net/uip6.c:1182: (!uip_is_addr_unspecified(&UIP_IP_BUF->srcipaddr)) &&
      001638 7Er0B            [12] 5411 	mov	r6,#_uip_aligned_buf
      00163A 7Fs00            [12] 5412 	mov	r7,#(_uip_aligned_buf >> 8)
      00163C 74 08            [12] 5413 	mov	a,#0x08
      00163E 2E               [12] 5414 	add	a,r6
      00163F F5 82            [12] 5415 	mov	dpl,a
      001641 E4               [12] 5416 	clr	a
      001642 3F               [12] 5417 	addc	a,r7
      001643 F5 83            [12] 5418 	mov	dph,a
      001645 E0               [24] 5419 	movx	a,@dptr
      001646 FE               [12] 5420 	mov	r6,a
      001647 A3               [24] 5421 	inc	dptr
      001648 E0               [24] 5422 	movx	a,@dptr
      001649 FF               [12] 5423 	mov	r7,a
      00164A 4E               [12] 5424 	orl	a,r6
      00164B 60 03            [24] 5425 	jz	01201$
      00164D 02r16rE9         [24] 5426 	ljmp	00188$
      001650                       5427 01201$:
      001650 7Er0B            [12] 5428 	mov	r6,#_uip_aligned_buf
      001652 7Fs00            [12] 5429 	mov	r7,#(_uip_aligned_buf >> 8)
      001654 74 0A            [12] 5430 	mov	a,#0x0A
      001656 2E               [12] 5431 	add	a,r6
      001657 F5 82            [12] 5432 	mov	dpl,a
      001659 E4               [12] 5433 	clr	a
      00165A 3F               [12] 5434 	addc	a,r7
      00165B F5 83            [12] 5435 	mov	dph,a
      00165D E0               [24] 5436 	movx	a,@dptr
      00165E FE               [12] 5437 	mov	r6,a
      00165F A3               [24] 5438 	inc	dptr
      001660 E0               [24] 5439 	movx	a,@dptr
      001661 FF               [12] 5440 	mov	r7,a
      001662 4E               [12] 5441 	orl	a,r6
      001663 60 03            [24] 5442 	jz	01202$
      001665 02r16rE9         [24] 5443 	ljmp	00188$
      001668                       5444 01202$:
      001668 7Er0B            [12] 5445 	mov	r6,#_uip_aligned_buf
      00166A 7Fs00            [12] 5446 	mov	r7,#(_uip_aligned_buf >> 8)
      00166C 74 0C            [12] 5447 	mov	a,#0x0C
      00166E 2E               [12] 5448 	add	a,r6
      00166F F5 82            [12] 5449 	mov	dpl,a
      001671 E4               [12] 5450 	clr	a
      001672 3F               [12] 5451 	addc	a,r7
      001673 F5 83            [12] 5452 	mov	dph,a
      001675 E0               [24] 5453 	movx	a,@dptr
      001676 FE               [12] 5454 	mov	r6,a
      001677 A3               [24] 5455 	inc	dptr
      001678 E0               [24] 5456 	movx	a,@dptr
      001679 FF               [12] 5457 	mov	r7,a
      00167A 4E               [12] 5458 	orl	a,r6
      00167B 70 6C            [24] 5459 	jnz	00188$
      00167D 7Er0B            [12] 5460 	mov	r6,#_uip_aligned_buf
      00167F 7Fs00            [12] 5461 	mov	r7,#(_uip_aligned_buf >> 8)
      001681 74 0E            [12] 5462 	mov	a,#0x0E
      001683 2E               [12] 5463 	add	a,r6
      001684 F5 82            [12] 5464 	mov	dpl,a
      001686 E4               [12] 5465 	clr	a
      001687 3F               [12] 5466 	addc	a,r7
      001688 F5 83            [12] 5467 	mov	dph,a
      00168A E0               [24] 5468 	movx	a,@dptr
      00168B FE               [12] 5469 	mov	r6,a
      00168C A3               [24] 5470 	inc	dptr
      00168D E0               [24] 5471 	movx	a,@dptr
      00168E FF               [12] 5472 	mov	r7,a
      00168F 4E               [12] 5473 	orl	a,r6
      001690 70 57            [24] 5474 	jnz	00188$
      001692 7Er0B            [12] 5475 	mov	r6,#_uip_aligned_buf
      001694 7Fs00            [12] 5476 	mov	r7,#(_uip_aligned_buf >> 8)
      001696 74 10            [12] 5477 	mov	a,#0x10
      001698 2E               [12] 5478 	add	a,r6
      001699 F5 82            [12] 5479 	mov	dpl,a
      00169B E4               [12] 5480 	clr	a
      00169C 3F               [12] 5481 	addc	a,r7
      00169D F5 83            [12] 5482 	mov	dph,a
      00169F E0               [24] 5483 	movx	a,@dptr
      0016A0 FE               [12] 5484 	mov	r6,a
      0016A1 A3               [24] 5485 	inc	dptr
      0016A2 E0               [24] 5486 	movx	a,@dptr
      0016A3 FF               [12] 5487 	mov	r7,a
      0016A4 4E               [12] 5488 	orl	a,r6
      0016A5 70 42            [24] 5489 	jnz	00188$
      0016A7 7Er0B            [12] 5490 	mov	r6,#_uip_aligned_buf
      0016A9 7Fs00            [12] 5491 	mov	r7,#(_uip_aligned_buf >> 8)
      0016AB 74 12            [12] 5492 	mov	a,#0x12
      0016AD 2E               [12] 5493 	add	a,r6
      0016AE F5 82            [12] 5494 	mov	dpl,a
      0016B0 E4               [12] 5495 	clr	a
      0016B1 3F               [12] 5496 	addc	a,r7
      0016B2 F5 83            [12] 5497 	mov	dph,a
      0016B4 E0               [24] 5498 	movx	a,@dptr
      0016B5 FE               [12] 5499 	mov	r6,a
      0016B6 A3               [24] 5500 	inc	dptr
      0016B7 E0               [24] 5501 	movx	a,@dptr
      0016B8 FF               [12] 5502 	mov	r7,a
      0016B9 4E               [12] 5503 	orl	a,r6
      0016BA 70 2D            [24] 5504 	jnz	00188$
      0016BC 7Er0B            [12] 5505 	mov	r6,#_uip_aligned_buf
      0016BE 7Fs00            [12] 5506 	mov	r7,#(_uip_aligned_buf >> 8)
      0016C0 74 14            [12] 5507 	mov	a,#0x14
      0016C2 2E               [12] 5508 	add	a,r6
      0016C3 F5 82            [12] 5509 	mov	dpl,a
      0016C5 E4               [12] 5510 	clr	a
      0016C6 3F               [12] 5511 	addc	a,r7
      0016C7 F5 83            [12] 5512 	mov	dph,a
      0016C9 E0               [24] 5513 	movx	a,@dptr
      0016CA FE               [12] 5514 	mov	r6,a
      0016CB A3               [24] 5515 	inc	dptr
      0016CC E0               [24] 5516 	movx	a,@dptr
      0016CD FF               [12] 5517 	mov	r7,a
      0016CE 4E               [12] 5518 	orl	a,r6
      0016CF 70 18            [24] 5519 	jnz	00188$
      0016D1 7Er0B            [12] 5520 	mov	r6,#_uip_aligned_buf
      0016D3 7Fs00            [12] 5521 	mov	r7,#(_uip_aligned_buf >> 8)
      0016D5 74 16            [12] 5522 	mov	a,#0x16
      0016D7 2E               [12] 5523 	add	a,r6
      0016D8 F5 82            [12] 5524 	mov	dpl,a
      0016DA E4               [12] 5525 	clr	a
      0016DB 3F               [12] 5526 	addc	a,r7
      0016DC F5 83            [12] 5527 	mov	dph,a
      0016DE E0               [24] 5528 	movx	a,@dptr
      0016DF FE               [12] 5529 	mov	r6,a
      0016E0 A3               [24] 5530 	inc	dptr
      0016E1 E0               [24] 5531 	movx	a,@dptr
      0016E2 FF               [12] 5532 	mov	r7,a
      0016E3 4E               [12] 5533 	orl	a,r6
      0016E4 70 03            [24] 5534 	jnz	01208$
      0016E6 02r3Br87         [24] 5535 	ljmp	00482$
      0016E9                       5536 01208$:
      0016E9                       5537 00188$:
                                   5538 ;	../../../../core/net/uip6.c:1183: (!uip_is_addr_loopback(&UIP_IP_BUF->destipaddr)) &&
      0016E9 7Er0B            [12] 5539 	mov	r6,#_uip_aligned_buf
      0016EB 7Fs00            [12] 5540 	mov	r7,#(_uip_aligned_buf >> 8)
      0016ED 74 18            [12] 5541 	mov	a,#0x18
      0016EF 2E               [12] 5542 	add	a,r6
      0016F0 F5 82            [12] 5543 	mov	dpl,a
      0016F2 E4               [12] 5544 	clr	a
      0016F3 3F               [12] 5545 	addc	a,r7
      0016F4 F5 83            [12] 5546 	mov	dph,a
      0016F6 E0               [24] 5547 	movx	a,@dptr
      0016F7 FE               [12] 5548 	mov	r6,a
      0016F8 A3               [24] 5549 	inc	dptr
      0016F9 E0               [24] 5550 	movx	a,@dptr
      0016FA FF               [12] 5551 	mov	r7,a
      0016FB 4E               [12] 5552 	orl	a,r6
      0016FC 60 03            [24] 5553 	jz	01209$
      0016FE 02r17rA9         [24] 5554 	ljmp	00189$
      001701                       5555 01209$:
      001701 7Er0B            [12] 5556 	mov	r6,#_uip_aligned_buf
      001703 7Fs00            [12] 5557 	mov	r7,#(_uip_aligned_buf >> 8)
      001705 74 1A            [12] 5558 	mov	a,#0x1A
      001707 2E               [12] 5559 	add	a,r6
      001708 F5 82            [12] 5560 	mov	dpl,a
      00170A E4               [12] 5561 	clr	a
      00170B 3F               [12] 5562 	addc	a,r7
      00170C F5 83            [12] 5563 	mov	dph,a
      00170E E0               [24] 5564 	movx	a,@dptr
      00170F FE               [12] 5565 	mov	r6,a
      001710 A3               [24] 5566 	inc	dptr
      001711 E0               [24] 5567 	movx	a,@dptr
      001712 FF               [12] 5568 	mov	r7,a
      001713 4E               [12] 5569 	orl	a,r6
      001714 60 03            [24] 5570 	jz	01210$
      001716 02r17rA9         [24] 5571 	ljmp	00189$
      001719                       5572 01210$:
      001719 7Er0B            [12] 5573 	mov	r6,#_uip_aligned_buf
      00171B 7Fs00            [12] 5574 	mov	r7,#(_uip_aligned_buf >> 8)
      00171D 74 1C            [12] 5575 	mov	a,#0x1C
      00171F 2E               [12] 5576 	add	a,r6
      001720 F5 82            [12] 5577 	mov	dpl,a
      001722 E4               [12] 5578 	clr	a
      001723 3F               [12] 5579 	addc	a,r7
      001724 F5 83            [12] 5580 	mov	dph,a
      001726 E0               [24] 5581 	movx	a,@dptr
      001727 FE               [12] 5582 	mov	r6,a
      001728 A3               [24] 5583 	inc	dptr
      001729 E0               [24] 5584 	movx	a,@dptr
      00172A FF               [12] 5585 	mov	r7,a
      00172B 4E               [12] 5586 	orl	a,r6
      00172C 70 7B            [24] 5587 	jnz	00189$
      00172E 7Er0B            [12] 5588 	mov	r6,#_uip_aligned_buf
      001730 7Fs00            [12] 5589 	mov	r7,#(_uip_aligned_buf >> 8)
      001732 74 1E            [12] 5590 	mov	a,#0x1E
      001734 2E               [12] 5591 	add	a,r6
      001735 F5 82            [12] 5592 	mov	dpl,a
      001737 E4               [12] 5593 	clr	a
      001738 3F               [12] 5594 	addc	a,r7
      001739 F5 83            [12] 5595 	mov	dph,a
      00173B E0               [24] 5596 	movx	a,@dptr
      00173C FE               [12] 5597 	mov	r6,a
      00173D A3               [24] 5598 	inc	dptr
      00173E E0               [24] 5599 	movx	a,@dptr
      00173F FF               [12] 5600 	mov	r7,a
      001740 4E               [12] 5601 	orl	a,r6
      001741 70 66            [24] 5602 	jnz	00189$
      001743 7Er0B            [12] 5603 	mov	r6,#_uip_aligned_buf
      001745 7Fs00            [12] 5604 	mov	r7,#(_uip_aligned_buf >> 8)
      001747 74 20            [12] 5605 	mov	a,#0x20
      001749 2E               [12] 5606 	add	a,r6
      00174A F5 82            [12] 5607 	mov	dpl,a
      00174C E4               [12] 5608 	clr	a
      00174D 3F               [12] 5609 	addc	a,r7
      00174E F5 83            [12] 5610 	mov	dph,a
      001750 E0               [24] 5611 	movx	a,@dptr
      001751 FE               [12] 5612 	mov	r6,a
      001752 A3               [24] 5613 	inc	dptr
      001753 E0               [24] 5614 	movx	a,@dptr
      001754 FF               [12] 5615 	mov	r7,a
      001755 4E               [12] 5616 	orl	a,r6
      001756 70 51            [24] 5617 	jnz	00189$
      001758 7Er0B            [12] 5618 	mov	r6,#_uip_aligned_buf
      00175A 7Fs00            [12] 5619 	mov	r7,#(_uip_aligned_buf >> 8)
      00175C 74 22            [12] 5620 	mov	a,#0x22
      00175E 2E               [12] 5621 	add	a,r6
      00175F F5 82            [12] 5622 	mov	dpl,a
      001761 E4               [12] 5623 	clr	a
      001762 3F               [12] 5624 	addc	a,r7
      001763 F5 83            [12] 5625 	mov	dph,a
      001765 E0               [24] 5626 	movx	a,@dptr
      001766 FE               [12] 5627 	mov	r6,a
      001767 A3               [24] 5628 	inc	dptr
      001768 E0               [24] 5629 	movx	a,@dptr
      001769 FF               [12] 5630 	mov	r7,a
      00176A 4E               [12] 5631 	orl	a,r6
      00176B 70 3C            [24] 5632 	jnz	00189$
      00176D 7Er0B            [12] 5633 	mov	r6,#_uip_aligned_buf
      00176F 7Fs00            [12] 5634 	mov	r7,#(_uip_aligned_buf >> 8)
      001771 74 24            [12] 5635 	mov	a,#0x24
      001773 2E               [12] 5636 	add	a,r6
      001774 F5 82            [12] 5637 	mov	dpl,a
      001776 E4               [12] 5638 	clr	a
      001777 3F               [12] 5639 	addc	a,r7
      001778 F5 83            [12] 5640 	mov	dph,a
      00177A E0               [24] 5641 	movx	a,@dptr
      00177B FE               [12] 5642 	mov	r6,a
      00177C A3               [24] 5643 	inc	dptr
      00177D E0               [24] 5644 	movx	a,@dptr
      00177E FF               [12] 5645 	mov	r7,a
      00177F 4E               [12] 5646 	orl	a,r6
      001780 70 27            [24] 5647 	jnz	00189$
      001782 7Er0B            [12] 5648 	mov	r6,#_uip_aligned_buf
      001784 7Fs00            [12] 5649 	mov	r7,#(_uip_aligned_buf >> 8)
      001786 74 26            [12] 5650 	mov	a,#0x26
      001788 2E               [12] 5651 	add	a,r6
      001789 FE               [12] 5652 	mov	r6,a
      00178A E4               [12] 5653 	clr	a
      00178B 3F               [12] 5654 	addc	a,r7
      00178C FF               [12] 5655 	mov	r7,a
      00178D 8E 82            [24] 5656 	mov	dpl,r6
      00178F 8F 83            [24] 5657 	mov	dph,r7
      001791 E0               [24] 5658 	movx	a,@dptr
      001792 70 15            [24] 5659 	jnz	00189$
      001794 7Er0B            [12] 5660 	mov	r6,#_uip_aligned_buf
      001796 7Fs00            [12] 5661 	mov	r7,#(_uip_aligned_buf >> 8)
      001798 74 27            [12] 5662 	mov	a,#0x27
      00179A 2E               [12] 5663 	add	a,r6
      00179B F5 82            [12] 5664 	mov	dpl,a
      00179D E4               [12] 5665 	clr	a
      00179E 3F               [12] 5666 	addc	a,r7
      00179F F5 83            [12] 5667 	mov	dph,a
      0017A1 E0               [24] 5668 	movx	a,@dptr
      0017A2 FF               [12] 5669 	mov	r7,a
      0017A3 BF 01 03         [24] 5670 	cjne	r7,#0x01,01217$
      0017A6 02r3Br87         [24] 5671 	ljmp	00482$
      0017A9                       5672 01217$:
      0017A9                       5673 00189$:
                                   5674 ;	../../../../core/net/uip6.c:1184: (!uip_is_addr_mcast(&UIP_IP_BUF->destipaddr)) &&
      0017A9 7Er0B            [12] 5675 	mov	r6,#_uip_aligned_buf
      0017AB 7Fs00            [12] 5676 	mov	r7,#(_uip_aligned_buf >> 8)
      0017AD 74 18            [12] 5677 	mov	a,#0x18
      0017AF 2E               [12] 5678 	add	a,r6
      0017B0 F5 82            [12] 5679 	mov	dpl,a
      0017B2 E4               [12] 5680 	clr	a
      0017B3 3F               [12] 5681 	addc	a,r7
      0017B4 F5 83            [12] 5682 	mov	dph,a
      0017B6 E0               [24] 5683 	movx	a,@dptr
      0017B7 FF               [12] 5684 	mov	r7,a
      0017B8 BF FF 03         [24] 5685 	cjne	r7,#0xFF,01218$
      0017BB 02r3Br87         [24] 5686 	ljmp	00482$
      0017BE                       5687 01218$:
                                   5688 ;	../../../../core/net/uip6.c:1185: (!uip_ds6_is_addr_onlink((&UIP_IP_BUF->destipaddr)))) {
      0017BE 7Er0B            [12] 5689 	mov	r6,#_uip_aligned_buf
      0017C0 7Fs00            [12] 5690 	mov	r7,#(_uip_aligned_buf >> 8)
      0017C2 74 18            [12] 5691 	mov	a,#0x18
      0017C4 2E               [12] 5692 	add	a,r6
      0017C5 FE               [12] 5693 	mov	r6,a
      0017C6 E4               [12] 5694 	clr	a
      0017C7 3F               [12] 5695 	addc	a,r7
      0017C8 FF               [12] 5696 	mov	r7,a
      0017C9 7D 00            [12] 5697 	mov	r5,#0x00
      0017CB 8E 82            [24] 5698 	mov	dpl,r6
      0017CD 8F 83            [24] 5699 	mov	dph,r7
      0017CF 8D F0            [24] 5700 	mov	b,r5
      0017D1 78r00            [12] 5701 	mov	r0,#_uip_ds6_is_addr_onlink
      0017D3 79s00            [12] 5702 	mov	r1,#(_uip_ds6_is_addr_onlink >> 8)
      0017D5 7As00            [12] 5703 	mov	r2,#(_uip_ds6_is_addr_onlink >> 16)
      0017D7 12r00r00         [24] 5704 	lcall	__sdcc_banked_call
      0017DA E5 82            [12] 5705 	mov	a,dpl
      0017DC 60 03            [24] 5706 	jz	01219$
      0017DE 02r3Br87         [24] 5707 	ljmp	00482$
      0017E1                       5708 01219$:
                                   5709 ;	../../../../core/net/uip6.c:1187: uip_icmp6_error_output(ICMP6_DST_UNREACH,
      0017E1 E4               [12] 5710 	clr	a
      0017E2 C0 E0            [24] 5711 	push	acc
      0017E4 C0 E0            [24] 5712 	push	acc
      0017E6 C0 E0            [24] 5713 	push	acc
      0017E8 C0 E0            [24] 5714 	push	acc
      0017EA 74 02            [12] 5715 	mov	a,#0x02
      0017EC C0 E0            [24] 5716 	push	acc
      0017EE 75 82 01         [24] 5717 	mov	dpl,#0x01
      0017F1 78r00            [12] 5718 	mov	r0,#_uip_icmp6_error_output
      0017F3 79s00            [12] 5719 	mov	r1,#(_uip_icmp6_error_output >> 8)
      0017F5 7As00            [12] 5720 	mov	r2,#(_uip_icmp6_error_output >> 16)
      0017F7 12r00r00         [24] 5721 	lcall	__sdcc_banked_call
      0017FA E5 81            [12] 5722 	mov	a,sp
      0017FC 24 FB            [12] 5723 	add	a,#0xfb
      0017FE F5 81            [12] 5724 	mov	sp,a
                                   5725 ;	../../../../core/net/uip6.c:1189: goto send;
      001800 02r3Br80         [24] 5726 	ljmp	00481$
                                   5727 ;	../../../../core/net/uip6.c:1214: while(1) {
      001803                       5728 00251$:
                                   5729 ;	../../../../core/net/uip6.c:1215: switch(*uip_next_hdr){
      001803 90r00r08         [24] 5730 	mov	dptr,#_uip_next_hdr
      001806 E0               [24] 5731 	movx	a,@dptr
      001807 FD               [12] 5732 	mov	r5,a
      001808 A3               [24] 5733 	inc	dptr
      001809 E0               [24] 5734 	movx	a,@dptr
      00180A FE               [12] 5735 	mov	r6,a
      00180B A3               [24] 5736 	inc	dptr
      00180C E0               [24] 5737 	movx	a,@dptr
      00180D FF               [12] 5738 	mov	r7,a
      00180E 8D 82            [24] 5739 	mov	dpl,r5
      001810 8E 83            [24] 5740 	mov	dph,r6
      001812 8F F0            [24] 5741 	mov	b,r7
      001814 12r00r00         [24] 5742 	lcall	__gptrget
      001817 FF               [12] 5743 	mov	r7,a
      001818 60 2C            [24] 5744 	jz	00221$
      00181A BF 06 03         [24] 5745 	cjne	r7,#0x06,01221$
      00181D 02r1Fr52         [24] 5746 	ljmp	00296$
      001820                       5747 01221$:
      001820 BF 11 03         [24] 5748 	cjne	r7,#0x11,01222$
      001823 02r1ArA7         [24] 5749 	ljmp	00269$
      001826                       5750 01222$:
      001826 BF 2B 03         [24] 5751 	cjne	r7,#0x2B,01223$
      001829 02r19r18         [24] 5752 	ljmp	00240$
      00182C                       5753 01223$:
      00182C BF 2C 03         [24] 5754 	cjne	r7,#0x2C,01224$
      00182F 02r3Br87         [24] 5755 	ljmp	00482$
      001832                       5756 01224$:
      001832 BF 3A 03         [24] 5757 	cjne	r7,#0x3A,01225$
      001835 02r19rDD         [24] 5758 	ljmp	00254$
      001838                       5759 01225$:
      001838 BF 3B 03         [24] 5760 	cjne	r7,#0x3B,01226$
      00183B 02r3Br87         [24] 5761 	ljmp	00482$
      00183E                       5762 01226$:
      00183E BF 3C 02         [24] 5763 	cjne	r7,#0x3C,01227$
      001841 80 65            [24] 5764 	sjmp	00229$
      001843                       5765 01227$:
      001843 02r19rA4         [24] 5766 	ljmp	00253$
                                   5767 ;	../../../../core/net/uip6.c:1229: case UIP_PROTO_HBHO:
      001846                       5768 00221$:
                                   5769 ;	../../../../core/net/uip6.c:1234: if(uip_ext_bitmap & UIP_EXT_HDR_BITMAP_HBHO) {
      001846 90r00r00         [24] 5770 	mov	dptr,#_uip_ext_bitmap
      001849 E0               [24] 5771 	movx	a,@dptr
      00184A FF               [12] 5772 	mov	r7,a
      00184B 30 E0 03         [24] 5773 	jnb	acc.0,01228$
      00184E 02r19rA4         [24] 5774 	ljmp	00253$
      001851                       5775 01228$:
                                   5776 ;	../../../../core/net/uip6.c:1237: uip_ext_bitmap |= UIP_EXT_HDR_BITMAP_HBHO;
      001851 90r00r00         [24] 5777 	mov	dptr,#_uip_ext_bitmap
      001854 74 01            [12] 5778 	mov	a,#0x01
      001856 4F               [12] 5779 	orl	a,r7
      001857 F0               [24] 5780 	movx	@dptr,a
                                   5781 ;	../../../../core/net/uip6.c:1240: switch(ext_hdr_options_process()) {
      001858 78r24            [12] 5782 	mov	r0,#_ext_hdr_options_process
      00185A 79s0D            [12] 5783 	mov	r1,#(_ext_hdr_options_process >> 8)
      00185C 7As00            [12] 5784 	mov	r2,#(_ext_hdr_options_process >> 16)
      00185E 12r00r00         [24] 5785 	lcall	__sdcc_banked_call
      001861 AF 82            [24] 5786 	mov	r7,dpl
      001863 BF 00 02         [24] 5787 	cjne	r7,#0x00,01229$
      001866 80 0E            [24] 5788 	sjmp	00225$
      001868                       5789 01229$:
      001868 BF 01 03         [24] 5790 	cjne	r7,#0x01,01230$
      00186B 02r3Br87         [24] 5791 	ljmp	00482$
      00186E                       5792 01230$:
      00186E BF 02 03         [24] 5793 	cjne	r7,#0x02,01231$
      001871 02r3Br80         [24] 5794 	ljmp	00481$
      001874                       5795 01231$:
                                   5796 ;	../../../../core/net/uip6.c:1241: case 0:
      001874 80 8D            [24] 5797 	sjmp	00251$
      001876                       5798 00225$:
                                   5799 ;	../../../../core/net/uip6.c:1243: uip_next_hdr = &UIP_EXT_BUF->next;
      001876 90r00r01         [24] 5800 	mov	dptr,#_uip_ext_len
      001879 E0               [24] 5801 	movx	a,@dptr
      00187A FF               [12] 5802 	mov	r7,a
      00187B 24 28            [12] 5803 	add	a,#0x28
      00187D 24r0B            [12] 5804 	add	a,#_uip_aligned_buf
      00187F FD               [12] 5805 	mov	r5,a
      001880 E4               [12] 5806 	clr	a
      001881 34s00            [12] 5807 	addc	a,#(_uip_aligned_buf >> 8)
      001883 FE               [12] 5808 	mov	r6,a
      001884 8D 03            [24] 5809 	mov	ar3,r5
      001886 8E 04            [24] 5810 	mov	ar4,r6
      001888 90r00r08         [24] 5811 	mov	dptr,#_uip_next_hdr
      00188B EB               [12] 5812 	mov	a,r3
      00188C F0               [24] 5813 	movx	@dptr,a
      00188D EC               [12] 5814 	mov	a,r4
      00188E A3               [24] 5815 	inc	dptr
      00188F F0               [24] 5816 	movx	@dptr,a
      001890 E4               [12] 5817 	clr	a
      001891 A3               [24] 5818 	inc	dptr
      001892 F0               [24] 5819 	movx	@dptr,a
                                   5820 ;	../../../../core/net/uip6.c:1244: uip_ext_len += (UIP_EXT_BUF->len << 3) + 8;
      001893 8D 82            [24] 5821 	mov	dpl,r5
      001895 8E 83            [24] 5822 	mov	dph,r6
      001897 A3               [24] 5823 	inc	dptr
      001898 E0               [24] 5824 	movx	a,@dptr
      001899 C4               [12] 5825 	swap	a
      00189A 03               [12] 5826 	rr	a
      00189B 54 F8            [12] 5827 	anl	a,#0xF8
      00189D FE               [12] 5828 	mov	r6,a
      00189E 24 08            [12] 5829 	add	a,#0x08
      0018A0 90r00r01         [24] 5830 	mov	dptr,#_uip_ext_len
      0018A3 2F               [12] 5831 	add	a,r7
      0018A4 F0               [24] 5832 	movx	@dptr,a
                                   5833 ;	../../../../core/net/uip6.c:1245: break;
      0018A5 02r18r03         [24] 5834 	ljmp	00251$
                                   5835 ;	../../../../core/net/uip6.c:1255: case UIP_PROTO_DESTO:
      0018A8                       5836 00229$:
                                   5837 ;	../../../../core/net/uip6.c:1259: if(uip_ext_bitmap & UIP_EXT_HDR_BITMAP_DESTO1) {
      0018A8 90r00r00         [24] 5838 	mov	dptr,#_uip_ext_bitmap
      0018AB E0               [24] 5839 	movx	a,@dptr
      0018AC FF               [12] 5840 	mov	r7,a
      0018AD 30 E1 10         [24] 5841 	jnb	acc.1,00234$
                                   5842 ;	../../../../core/net/uip6.c:1260: if(uip_ext_bitmap & UIP_EXT_HDR_BITMAP_DESTO2) {
      0018B0 EF               [12] 5843 	mov	a,r7
      0018B1 30 E6 03         [24] 5844 	jnb	acc.6,01233$
      0018B4 02r19rA4         [24] 5845 	ljmp	00253$
      0018B7                       5846 01233$:
                                   5847 ;	../../../../core/net/uip6.c:1263: uip_ext_bitmap |= UIP_EXT_HDR_BITMAP_DESTO2;
      0018B7 90r00r00         [24] 5848 	mov	dptr,#_uip_ext_bitmap
      0018BA 74 40            [12] 5849 	mov	a,#0x40
      0018BC 4F               [12] 5850 	orl	a,r7
      0018BD F0               [24] 5851 	movx	@dptr,a
      0018BE 80 07            [24] 5852 	sjmp	00235$
      0018C0                       5853 00234$:
                                   5854 ;	../../../../core/net/uip6.c:1266: uip_ext_bitmap |= UIP_EXT_HDR_BITMAP_DESTO1;
      0018C0 90r00r00         [24] 5855 	mov	dptr,#_uip_ext_bitmap
      0018C3 74 02            [12] 5856 	mov	a,#0x02
      0018C5 4F               [12] 5857 	orl	a,r7
      0018C6 F0               [24] 5858 	movx	@dptr,a
      0018C7                       5859 00235$:
                                   5860 ;	../../../../core/net/uip6.c:1269: switch(ext_hdr_options_process()) {
      0018C7 78r24            [12] 5861 	mov	r0,#_ext_hdr_options_process
      0018C9 79s0D            [12] 5862 	mov	r1,#(_ext_hdr_options_process >> 8)
      0018CB 7As00            [12] 5863 	mov	r2,#(_ext_hdr_options_process >> 16)
      0018CD 12r00r00         [24] 5864 	lcall	__sdcc_banked_call
      0018D0 AF 82            [24] 5865 	mov	r7,dpl
      0018D2 BF 00 02         [24] 5866 	cjne	r7,#0x00,01234$
      0018D5 80 0F            [24] 5867 	sjmp	00236$
      0018D7                       5868 01234$:
      0018D7 BF 01 03         [24] 5869 	cjne	r7,#0x01,01235$
      0018DA 02r3Br87         [24] 5870 	ljmp	00482$
      0018DD                       5871 01235$:
      0018DD BF 02 03         [24] 5872 	cjne	r7,#0x02,01236$
      0018E0 02r3Br80         [24] 5873 	ljmp	00481$
      0018E3                       5874 01236$:
      0018E3 02r18r03         [24] 5875 	ljmp	00251$
                                   5876 ;	../../../../core/net/uip6.c:1270: case 0:
      0018E6                       5877 00236$:
                                   5878 ;	../../../../core/net/uip6.c:1272: uip_next_hdr = &UIP_EXT_BUF->next;
      0018E6 90r00r01         [24] 5879 	mov	dptr,#_uip_ext_len
      0018E9 E0               [24] 5880 	movx	a,@dptr
      0018EA FF               [12] 5881 	mov	r7,a
      0018EB 24 28            [12] 5882 	add	a,#0x28
      0018ED 24r0B            [12] 5883 	add	a,#_uip_aligned_buf
      0018EF FD               [12] 5884 	mov	r5,a
      0018F0 E4               [12] 5885 	clr	a
      0018F1 34s00            [12] 5886 	addc	a,#(_uip_aligned_buf >> 8)
      0018F3 FE               [12] 5887 	mov	r6,a
      0018F4 8D 03            [24] 5888 	mov	ar3,r5
      0018F6 8E 04            [24] 5889 	mov	ar4,r6
      0018F8 90r00r08         [24] 5890 	mov	dptr,#_uip_next_hdr
      0018FB EB               [12] 5891 	mov	a,r3
      0018FC F0               [24] 5892 	movx	@dptr,a
      0018FD EC               [12] 5893 	mov	a,r4
      0018FE A3               [24] 5894 	inc	dptr
      0018FF F0               [24] 5895 	movx	@dptr,a
      001900 E4               [12] 5896 	clr	a
      001901 A3               [24] 5897 	inc	dptr
      001902 F0               [24] 5898 	movx	@dptr,a
                                   5899 ;	../../../../core/net/uip6.c:1273: uip_ext_len += (UIP_EXT_BUF->len << 3) + 8;
      001903 8D 82            [24] 5900 	mov	dpl,r5
      001905 8E 83            [24] 5901 	mov	dph,r6
      001907 A3               [24] 5902 	inc	dptr
      001908 E0               [24] 5903 	movx	a,@dptr
      001909 C4               [12] 5904 	swap	a
      00190A 03               [12] 5905 	rr	a
      00190B 54 F8            [12] 5906 	anl	a,#0xF8
      00190D FE               [12] 5907 	mov	r6,a
      00190E 24 08            [12] 5908 	add	a,#0x08
      001910 90r00r01         [24] 5909 	mov	dptr,#_uip_ext_len
      001913 2F               [12] 5910 	add	a,r7
      001914 F0               [24] 5911 	movx	@dptr,a
                                   5912 ;	../../../../core/net/uip6.c:1274: break;
      001915 02r18r03         [24] 5913 	ljmp	00251$
                                   5914 ;	../../../../core/net/uip6.c:1284: case UIP_PROTO_ROUTING:
      001918                       5915 00240$:
                                   5916 ;	../../../../core/net/uip6.c:1287: if(uip_ext_bitmap & UIP_EXT_HDR_BITMAP_ROUTING) {
      001918 90r00r00         [24] 5917 	mov	dptr,#_uip_ext_bitmap
      00191B E0               [24] 5918 	movx	a,@dptr
      00191C FF               [12] 5919 	mov	r7,a
      00191D 30 E2 03         [24] 5920 	jnb	acc.2,01237$
      001920 02r19rA4         [24] 5921 	ljmp	00253$
      001923                       5922 01237$:
                                   5923 ;	../../../../core/net/uip6.c:1290: uip_ext_bitmap |= UIP_EXT_HDR_BITMAP_ROUTING;
      001923 90r00r00         [24] 5924 	mov	dptr,#_uip_ext_bitmap
      001926 74 04            [12] 5925 	mov	a,#0x04
      001928 4F               [12] 5926 	orl	a,r7
      001929 F0               [24] 5927 	movx	@dptr,a
                                   5928 ;	../../../../core/net/uip6.c:1302: if(UIP_ROUTING_BUF->seg_left > 0) {
      00192A 90r00r01         [24] 5929 	mov	dptr,#_uip_ext_len
      00192D E0               [24] 5930 	movx	a,@dptr
      00192E FF               [12] 5931 	mov	r7,a
      00192F 24 28            [12] 5932 	add	a,#0x28
      001931 24r0B            [12] 5933 	add	a,#_uip_aligned_buf
      001933 FD               [12] 5934 	mov	r5,a
      001934 E4               [12] 5935 	clr	a
      001935 34s00            [12] 5936 	addc	a,#(_uip_aligned_buf >> 8)
      001937 FE               [12] 5937 	mov	r6,a
      001938 74 03            [12] 5938 	mov	a,#0x03
      00193A 2D               [12] 5939 	add	a,r5
      00193B FD               [12] 5940 	mov	r5,a
      00193C E4               [12] 5941 	clr	a
      00193D 3E               [12] 5942 	addc	a,r6
      00193E FE               [12] 5943 	mov	r6,a
      00193F 8D 82            [24] 5944 	mov	dpl,r5
      001941 8E 83            [24] 5945 	mov	dph,r6
      001943 E0               [24] 5946 	movx	a,@dptr
      001944 60 30            [24] 5947 	jz	00245$
                                   5948 ;	../../../../core/net/uip6.c:1303: uip_icmp6_error_output(ICMP6_PARAM_PROB, ICMP6_PARAMPROB_HEADER, UIP_IPH_LEN + uip_ext_len + 2);
      001946 8F 05            [24] 5949 	mov	ar5,r7
      001948 7E 00            [12] 5950 	mov	r6,#0x00
      00194A 74 2A            [12] 5951 	mov	a,#0x2A
      00194C 2D               [12] 5952 	add	a,r5
      00194D FD               [12] 5953 	mov	r5,a
      00194E E4               [12] 5954 	clr	a
      00194F 3E               [12] 5955 	addc	a,r6
      001950 FE               [12] 5956 	mov	r6,a
      001951 33               [12] 5957 	rlc	a
      001952 95 E0            [12] 5958 	subb	a,acc
      001954 FC               [12] 5959 	mov	r4,a
      001955 FB               [12] 5960 	mov	r3,a
      001956 C0 05            [24] 5961 	push	ar5
      001958 C0 06            [24] 5962 	push	ar6
      00195A C0 04            [24] 5963 	push	ar4
      00195C C0 03            [24] 5964 	push	ar3
      00195E E4               [12] 5965 	clr	a
      00195F C0 E0            [24] 5966 	push	acc
      001961 75 82 04         [24] 5967 	mov	dpl,#0x04
      001964 78r00            [12] 5968 	mov	r0,#_uip_icmp6_error_output
      001966 79s00            [12] 5969 	mov	r1,#(_uip_icmp6_error_output >> 8)
      001968 7As00            [12] 5970 	mov	r2,#(_uip_icmp6_error_output >> 16)
      00196A 12r00r00         [24] 5971 	lcall	__sdcc_banked_call
      00196D E5 81            [12] 5972 	mov	a,sp
      00196F 24 FB            [12] 5973 	add	a,#0xfb
      001971 F5 81            [12] 5974 	mov	sp,a
                                   5975 ;	../../../../core/net/uip6.c:1306: goto send;
      001973 02r3Br80         [24] 5976 	ljmp	00481$
      001976                       5977 00245$:
                                   5978 ;	../../../../core/net/uip6.c:1308: uip_next_hdr = &UIP_EXT_BUF->next;
      001976 74 28            [12] 5979 	mov	a,#0x28
      001978 2F               [12] 5980 	add	a,r7
      001979 24r0B            [12] 5981 	add	a,#_uip_aligned_buf
      00197B FD               [12] 5982 	mov	r5,a
      00197C E4               [12] 5983 	clr	a
      00197D 34s00            [12] 5984 	addc	a,#(_uip_aligned_buf >> 8)
      00197F FE               [12] 5985 	mov	r6,a
      001980 8D 03            [24] 5986 	mov	ar3,r5
      001982 8E 04            [24] 5987 	mov	ar4,r6
      001984 90r00r08         [24] 5988 	mov	dptr,#_uip_next_hdr
      001987 EB               [12] 5989 	mov	a,r3
      001988 F0               [24] 5990 	movx	@dptr,a
      001989 EC               [12] 5991 	mov	a,r4
      00198A A3               [24] 5992 	inc	dptr
      00198B F0               [24] 5993 	movx	@dptr,a
      00198C E4               [12] 5994 	clr	a
      00198D A3               [24] 5995 	inc	dptr
      00198E F0               [24] 5996 	movx	@dptr,a
                                   5997 ;	../../../../core/net/uip6.c:1309: uip_ext_len += (UIP_EXT_BUF->len << 3) + 8;
      00198F 8D 82            [24] 5998 	mov	dpl,r5
      001991 8E 83            [24] 5999 	mov	dph,r6
      001993 A3               [24] 6000 	inc	dptr
      001994 E0               [24] 6001 	movx	a,@dptr
      001995 C4               [12] 6002 	swap	a
      001996 03               [12] 6003 	rr	a
      001997 54 F8            [12] 6004 	anl	a,#0xF8
      001999 FE               [12] 6005 	mov	r6,a
      00199A 24 08            [12] 6006 	add	a,#0x08
      00199C 90r00r01         [24] 6007 	mov	dptr,#_uip_ext_len
      00199F 2F               [12] 6008 	add	a,r7
      0019A0 F0               [24] 6009 	movx	@dptr,a
                                   6010 ;	../../../../core/net/uip6.c:1310: break;
      0019A1 02r18r03         [24] 6011 	ljmp	00251$
                                   6012 ;	../../../../core/net/uip6.c:1342: bad_hdr:
      0019A4                       6013 00253$:
                                   6014 ;	../../../../core/net/uip6.c:1347: uip_icmp6_error_output(ICMP6_PARAM_PROB, ICMP6_PARAMPROB_NEXTHEADER, (uint32_t)(uip_next_hdr - (uint8_t *)UIP_IP_BUF));
      0019A4 90r00r08         [24] 6015 	mov	dptr,#_uip_next_hdr
      0019A7 E0               [24] 6016 	movx	a,@dptr
      0019A8 FD               [12] 6017 	mov	r5,a
      0019A9 A3               [24] 6018 	inc	dptr
      0019AA E0               [24] 6019 	movx	a,@dptr
      0019AB FE               [12] 6020 	mov	r6,a
      0019AC A3               [24] 6021 	inc	dptr
      0019AD E0               [24] 6022 	movx	a,@dptr
      0019AE ED               [12] 6023 	mov	a,r5
      0019AF C3               [12] 6024 	clr	c
      0019B0 94r0B            [12] 6025 	subb	a,#_uip_aligned_buf
      0019B2 FD               [12] 6026 	mov	r5,a
      0019B3 EE               [12] 6027 	mov	a,r6
      0019B4 94s00            [12] 6028 	subb	a,#(_uip_aligned_buf >> 8)
      0019B6 FE               [12] 6029 	mov	r6,a
      0019B7 33               [12] 6030 	rlc	a
      0019B8 95 E0            [12] 6031 	subb	a,acc
      0019BA FF               [12] 6032 	mov	r7,a
      0019BB FC               [12] 6033 	mov	r4,a
      0019BC C0 05            [24] 6034 	push	ar5
      0019BE C0 06            [24] 6035 	push	ar6
      0019C0 C0 07            [24] 6036 	push	ar7
      0019C2 C0 04            [24] 6037 	push	ar4
      0019C4 74 01            [12] 6038 	mov	a,#0x01
      0019C6 C0 E0            [24] 6039 	push	acc
      0019C8 75 82 04         [24] 6040 	mov	dpl,#0x04
      0019CB 78r00            [12] 6041 	mov	r0,#_uip_icmp6_error_output
      0019CD 79s00            [12] 6042 	mov	r1,#(_uip_icmp6_error_output >> 8)
      0019CF 7As00            [12] 6043 	mov	r2,#(_uip_icmp6_error_output >> 16)
      0019D1 12r00r00         [24] 6044 	lcall	__sdcc_banked_call
      0019D4 E5 81            [12] 6045 	mov	a,sp
      0019D6 24 FB            [12] 6046 	add	a,#0xfb
      0019D8 F5 81            [12] 6047 	mov	sp,a
                                   6048 ;	../../../../core/net/uip6.c:1351: goto send;
      0019DA 02r3Br80         [24] 6049 	ljmp	00481$
                                   6050 ;	../../../../core/net/uip6.c:1354: icmp6_input:
      0019DD                       6051 00254$:
                                   6052 ;	../../../../core/net/uip6.c:1360: if(uip_icmp6chksum() != 0xffff) {
      0019DD 78rFA            [12] 6053 	mov	r0,#_uip_icmp6chksum
      0019DF 79s03            [12] 6054 	mov	r1,#(_uip_icmp6chksum >> 8)
      0019E1 7As00            [12] 6055 	mov	r2,#(_uip_icmp6chksum >> 16)
      0019E3 12r00r00         [24] 6056 	lcall	__sdcc_banked_call
      0019E6 AE 82            [24] 6057 	mov	r6,dpl
      0019E8 AF 83            [24] 6058 	mov	r7,dph
      0019EA BE FF 05         [24] 6059 	cjne	r6,#0xFF,01239$
      0019ED BF FF 02         [24] 6060 	cjne	r7,#0xFF,01239$
      0019F0 80 03            [24] 6061 	sjmp	01240$
      0019F2                       6062 01239$:
      0019F2 02r3Br87         [24] 6063 	ljmp	00482$
      0019F5                       6064 01240$:
                                   6065 ;	../../../../core/net/uip6.c:1380: UIP_ICMP6_APPCALL(UIP_ICMP_BUF->type);
      0019F5 90r00r01         [24] 6066 	mov	dptr,#_uip_ext_len
      0019F8 E0               [24] 6067 	movx	a,@dptr
      0019F9 24 28            [12] 6068 	add	a,#0x28
      0019FB 24r0B            [12] 6069 	add	a,#_uip_aligned_buf
      0019FD F5 82            [12] 6070 	mov	dpl,a
      0019FF E4               [12] 6071 	clr	a
      001A00 34s00            [12] 6072 	addc	a,#(_uip_aligned_buf >> 8)
      001A02 F5 83            [12] 6073 	mov	dph,a
      001A04 E0               [24] 6074 	movx	a,@dptr
      001A05 F5 82            [12] 6075 	mov	dpl,a
      001A07 78r00            [12] 6076 	mov	r0,#_tcpip_icmp6_call
      001A09 79s00            [12] 6077 	mov	r1,#(_tcpip_icmp6_call >> 8)
      001A0B 7As00            [12] 6078 	mov	r2,#(_tcpip_icmp6_call >> 16)
      001A0D 12r00r00         [24] 6079 	lcall	__sdcc_banked_call
                                   6080 ;	../../../../core/net/uip6.c:1383: switch(UIP_ICMP_BUF->type) {
      001A10 90r00r01         [24] 6081 	mov	dptr,#_uip_ext_len
      001A13 E0               [24] 6082 	movx	a,@dptr
      001A14 24 28            [12] 6083 	add	a,#0x28
      001A16 24r0B            [12] 6084 	add	a,#_uip_aligned_buf
      001A18 F5 82            [12] 6085 	mov	dpl,a
      001A1A E4               [12] 6086 	clr	a
      001A1B 34s00            [12] 6087 	addc	a,#(_uip_aligned_buf >> 8)
      001A1D F5 83            [12] 6088 	mov	dph,a
      001A1F E0               [24] 6089 	movx	a,@dptr
      001A20 FF               [12] 6090 	mov	r7,a
      001A21 BF 80 02         [24] 6091 	cjne	r7,#0x80,01241$
      001A24 80 53            [24] 6092 	sjmp	00262$
      001A26                       6093 01241$:
      001A26 BF 81 02         [24] 6094 	cjne	r7,#0x81,01242$
      001A29 80 59            [24] 6095 	sjmp	00263$
      001A2B                       6096 01242$:
      001A2B BF 85 02         [24] 6097 	cjne	r7,#0x85,01243$
      001A2E 80 2A            [24] 6098 	sjmp	00259$
      001A30                       6099 01243$:
      001A30 BF 86 02         [24] 6100 	cjne	r7,#0x86,01244$
      001A33 80 2F            [24] 6101 	sjmp	00260$
      001A35                       6102 01244$:
      001A35 BF 87 02         [24] 6103 	cjne	r7,#0x87,01245$
      001A38 80 0A            [24] 6104 	sjmp	00257$
      001A3A                       6105 01245$:
      001A3A BF 88 02         [24] 6106 	cjne	r7,#0x88,01246$
      001A3D 80 10            [24] 6107 	sjmp	00258$
      001A3F                       6108 01246$:
                                   6109 ;	../../../../core/net/uip6.c:1384: case ICMP6_NS:
      001A3F BF 9B 4C         [24] 6110 	cjne	r7,#0x9B,00264$
      001A42 80 2A            [24] 6111 	sjmp	00261$
      001A44                       6112 00257$:
                                   6113 ;	../../../../core/net/uip6.c:1385: uip_nd6_ns_input();
      001A44 78r00            [12] 6114 	mov	r0,#_uip_nd6_ns_input
      001A46 79s00            [12] 6115 	mov	r1,#(_uip_nd6_ns_input >> 8)
      001A48 7As00            [12] 6116 	mov	r2,#(_uip_nd6_ns_input >> 16)
      001A4A 12r00r00         [24] 6117 	lcall	__sdcc_banked_call
                                   6118 ;	../../../../core/net/uip6.c:1386: break;
                                   6119 ;	../../../../core/net/uip6.c:1387: case ICMP6_NA:
      001A4D 80 47            [24] 6120 	sjmp	00265$
      001A4F                       6121 00258$:
                                   6122 ;	../../../../core/net/uip6.c:1388: uip_nd6_na_input();
      001A4F 78r00            [12] 6123 	mov	r0,#_uip_nd6_na_input
      001A51 79s00            [12] 6124 	mov	r1,#(_uip_nd6_na_input >> 8)
      001A53 7As00            [12] 6125 	mov	r2,#(_uip_nd6_na_input >> 16)
      001A55 12r00r00         [24] 6126 	lcall	__sdcc_banked_call
                                   6127 ;	../../../../core/net/uip6.c:1389: break;
                                   6128 ;	../../../../core/net/uip6.c:1390: case ICMP6_RS:
      001A58 80 3C            [24] 6129 	sjmp	00265$
      001A5A                       6130 00259$:
                                   6131 ;	../../../../core/net/uip6.c:1395: uip_len = 0;
      001A5A 90r01r01         [24] 6132 	mov	dptr,#_uip_len
      001A5D E4               [12] 6133 	clr	a
      001A5E F0               [24] 6134 	movx	@dptr,a
      001A5F E4               [12] 6135 	clr	a
      001A60 A3               [24] 6136 	inc	dptr
      001A61 F0               [24] 6137 	movx	@dptr,a
                                   6138 ;	../../../../core/net/uip6.c:1397: break;
                                   6139 ;	../../../../core/net/uip6.c:1398: case ICMP6_RA:
      001A62 80 32            [24] 6140 	sjmp	00265$
      001A64                       6141 00260$:
                                   6142 ;	../../../../core/net/uip6.c:1401: uip_len = 0;
      001A64 90r01r01         [24] 6143 	mov	dptr,#_uip_len
      001A67 E4               [12] 6144 	clr	a
      001A68 F0               [24] 6145 	movx	@dptr,a
      001A69 E4               [12] 6146 	clr	a
      001A6A A3               [24] 6147 	inc	dptr
      001A6B F0               [24] 6148 	movx	@dptr,a
                                   6149 ;	../../../../core/net/uip6.c:1405: break;
                                   6150 ;	../../../../core/net/uip6.c:1407: case ICMP6_RPL:
      001A6C 80 28            [24] 6151 	sjmp	00265$
      001A6E                       6152 00261$:
                                   6153 ;	../../../../core/net/uip6.c:1408: uip_rpl_input();
      001A6E 78r00            [12] 6154 	mov	r0,#_uip_rpl_input
      001A70 79s00            [12] 6155 	mov	r1,#(_uip_rpl_input >> 8)
      001A72 7As00            [12] 6156 	mov	r2,#(_uip_rpl_input >> 16)
      001A74 12r00r00         [24] 6157 	lcall	__sdcc_banked_call
                                   6158 ;	../../../../core/net/uip6.c:1409: break;
                                   6159 ;	../../../../core/net/uip6.c:1411: case ICMP6_ECHO_REQUEST:
      001A77 80 1D            [24] 6160 	sjmp	00265$
      001A79                       6161 00262$:
                                   6162 ;	../../../../core/net/uip6.c:1412: uip_icmp6_echo_request_input();
      001A79 78r00            [12] 6163 	mov	r0,#_uip_icmp6_echo_request_input
      001A7B 79s00            [12] 6164 	mov	r1,#(_uip_icmp6_echo_request_input >> 8)
      001A7D 7As00            [12] 6165 	mov	r2,#(_uip_icmp6_echo_request_input >> 16)
      001A7F 12r00r00         [24] 6166 	lcall	__sdcc_banked_call
                                   6167 ;	../../../../core/net/uip6.c:1413: break;
                                   6168 ;	../../../../core/net/uip6.c:1414: case ICMP6_ECHO_REPLY:
      001A82 80 12            [24] 6169 	sjmp	00265$
      001A84                       6170 00263$:
                                   6171 ;	../../../../core/net/uip6.c:1418: uip_len = 0;
      001A84 90r01r01         [24] 6172 	mov	dptr,#_uip_len
      001A87 E4               [12] 6173 	clr	a
      001A88 F0               [24] 6174 	movx	@dptr,a
      001A89 E4               [12] 6175 	clr	a
      001A8A A3               [24] 6176 	inc	dptr
      001A8B F0               [24] 6177 	movx	@dptr,a
                                   6178 ;	../../../../core/net/uip6.c:1419: break;
                                   6179 ;	../../../../core/net/uip6.c:1420: default:
      001A8C 80 08            [24] 6180 	sjmp	00265$
      001A8E                       6181 00264$:
                                   6182 ;	../../../../core/net/uip6.c:1425: uip_len = 0;
      001A8E 90r01r01         [24] 6183 	mov	dptr,#_uip_len
      001A91 E4               [12] 6184 	clr	a
      001A92 F0               [24] 6185 	movx	@dptr,a
      001A93 E4               [12] 6186 	clr	a
      001A94 A3               [24] 6187 	inc	dptr
      001A95 F0               [24] 6188 	movx	@dptr,a
                                   6189 ;	../../../../core/net/uip6.c:1427: }
      001A96                       6190 00265$:
                                   6191 ;	../../../../core/net/uip6.c:1429: if(uip_len > 0) {
      001A96 90r01r01         [24] 6192 	mov	dptr,#_uip_len
      001A99 E0               [24] 6193 	movx	a,@dptr
      001A9A FE               [12] 6194 	mov	r6,a
      001A9B A3               [24] 6195 	inc	dptr
      001A9C E0               [24] 6196 	movx	a,@dptr
      001A9D FF               [12] 6197 	mov	r7,a
      001A9E 4E               [12] 6198 	orl	a,r6
      001A9F 70 03            [24] 6199 	jnz	01248$
      001AA1 02r3Br87         [24] 6200 	ljmp	00482$
      001AA4                       6201 01248$:
                                   6202 ;	../../../../core/net/uip6.c:1430: goto send;
      001AA4 02r3Br80         [24] 6203 	ljmp	00481$
                                   6204 ;	../../../../core/net/uip6.c:1439: udp_input:
      001AA7                       6205 00269$:
                                   6206 ;	../../../../core/net/uip6.c:1441: remove_ext_hdr();
      001AA7 78r27            [12] 6207 	mov	r0,#_remove_ext_hdr
      001AA9 79s09            [12] 6208 	mov	r1,#(_remove_ext_hdr >> 8)
      001AAB 7As00            [12] 6209 	mov	r2,#(_remove_ext_hdr >> 16)
      001AAD 12r00r00         [24] 6210 	lcall	__sdcc_banked_call
                                   6211 ;	../../../../core/net/uip6.c:1451: uip_len = uip_len - UIP_IPUDPH_LEN;
      001AB0 90r01r01         [24] 6212 	mov	dptr,#_uip_len
      001AB3 E0               [24] 6213 	movx	a,@dptr
      001AB4 FE               [12] 6214 	mov	r6,a
      001AB5 A3               [24] 6215 	inc	dptr
      001AB6 E0               [24] 6216 	movx	a,@dptr
      001AB7 FF               [12] 6217 	mov	r7,a
      001AB8 EE               [12] 6218 	mov	a,r6
      001AB9 24 D0            [12] 6219 	add	a,#0xD0
      001ABB FE               [12] 6220 	mov	r6,a
      001ABC EF               [12] 6221 	mov	a,r7
      001ABD 34 FF            [12] 6222 	addc	a,#0xFF
      001ABF FF               [12] 6223 	mov	r7,a
      001AC0 90r01r01         [24] 6224 	mov	dptr,#_uip_len
      001AC3 EE               [12] 6225 	mov	a,r6
      001AC4 F0               [24] 6226 	movx	@dptr,a
      001AC5 EF               [12] 6227 	mov	a,r7
      001AC6 A3               [24] 6228 	inc	dptr
      001AC7 F0               [24] 6229 	movx	@dptr,a
                                   6230 ;	../../../../core/net/uip6.c:1452: uip_appdata = &uip_buf[UIP_IPUDPH_LEN + UIP_LLH_LEN];
      001AC8 90r00rFB         [24] 6231 	mov	dptr,#_uip_appdata
      001ACB 74r3B            [12] 6232 	mov	a,#(_uip_aligned_buf + 0x0030)
      001ACD F0               [24] 6233 	movx	@dptr,a
      001ACE 74s00            [12] 6234 	mov	a,#((_uip_aligned_buf + 0x0030) >> 8)
      001AD0 A3               [24] 6235 	inc	dptr
      001AD1 F0               [24] 6236 	movx	@dptr,a
      001AD2 E4               [12] 6237 	clr	a
      001AD3 A3               [24] 6238 	inc	dptr
      001AD4 F0               [24] 6239 	movx	@dptr,a
                                   6240 ;	../../../../core/net/uip6.c:1458: if(UIP_UDP_BUF->udpchksum != 0 && uip_udpchksum() != 0xffff) {
      001AD5 7Er33            [12] 6241 	mov	r6,#(_uip_aligned_buf + 0x0028)
      001AD7 7Fs00            [12] 6242 	mov	r7,#((_uip_aligned_buf + 0x0028) >> 8)
      001AD9 74 06            [12] 6243 	mov	a,#0x06
      001ADB 2E               [12] 6244 	add	a,r6
      001ADC F5 82            [12] 6245 	mov	dpl,a
      001ADE E4               [12] 6246 	clr	a
      001ADF 3F               [12] 6247 	addc	a,r7
      001AE0 F5 83            [12] 6248 	mov	dph,a
      001AE2 E0               [24] 6249 	movx	a,@dptr
      001AE3 FE               [12] 6250 	mov	r6,a
      001AE4 A3               [24] 6251 	inc	dptr
      001AE5 E0               [24] 6252 	movx	a,@dptr
      001AE6 FF               [12] 6253 	mov	r7,a
      001AE7 4E               [12] 6254 	orl	a,r6
      001AE8 60 18            [24] 6255 	jz	00271$
      001AEA 78r20            [12] 6256 	mov	r0,#_uip_udpchksum
      001AEC 79s04            [12] 6257 	mov	r1,#(_uip_udpchksum >> 8)
      001AEE 7As00            [12] 6258 	mov	r2,#(_uip_udpchksum >> 16)
      001AF0 12r00r00         [24] 6259 	lcall	__sdcc_banked_call
      001AF3 AE 82            [24] 6260 	mov	r6,dpl
      001AF5 AF 83            [24] 6261 	mov	r7,dph
      001AF7 BE FF 05         [24] 6262 	cjne	r6,#0xFF,01250$
      001AFA BF FF 02         [24] 6263 	cjne	r7,#0xFF,01250$
      001AFD 80 03            [24] 6264 	sjmp	01251$
      001AFF                       6265 01250$:
      001AFF 02r3Br87         [24] 6266 	ljmp	00482$
      001B02                       6267 01251$:
                                   6268 ;	../../../../core/net/uip6.c:1463: goto drop;
      001B02                       6269 00271$:
                                   6270 ;	../../../../core/net/uip6.c:1470: if(UIP_UDP_BUF->destport == 0) {
      001B02 7Er33            [12] 6271 	mov	r6,#(_uip_aligned_buf + 0x0028)
      001B04 7Fs00            [12] 6272 	mov	r7,#((_uip_aligned_buf + 0x0028) >> 8)
      001B06 8E 82            [24] 6273 	mov	dpl,r6
      001B08 8F 83            [24] 6274 	mov	dph,r7
      001B0A A3               [24] 6275 	inc	dptr
      001B0B A3               [24] 6276 	inc	dptr
      001B0C E0               [24] 6277 	movx	a,@dptr
      001B0D FE               [12] 6278 	mov	r6,a
      001B0E A3               [24] 6279 	inc	dptr
      001B0F E0               [24] 6280 	movx	a,@dptr
      001B10 FF               [12] 6281 	mov	r7,a
      001B11 4E               [12] 6282 	orl	a,r6
      001B12 70 03            [24] 6283 	jnz	01252$
      001B14 02r3Br87         [24] 6284 	ljmp	00482$
      001B17                       6285 01252$:
                                   6286 ;	../../../../core/net/uip6.c:1476: for(uip_udp_conn = &uip_udp_conns[0];
      001B17 90r03r0B         [24] 6287 	mov	dptr,#_uip_udp_conn
      001B1A 74r0E            [12] 6288 	mov	a,#_uip_udp_conns
      001B1C F0               [24] 6289 	movx	@dptr,a
      001B1D 74s03            [12] 6290 	mov	a,#(_uip_udp_conns >> 8)
      001B1F A3               [24] 6291 	inc	dptr
      001B20 F0               [24] 6292 	movx	@dptr,a
      001B21 E4               [12] 6293 	clr	a
      001B22 A3               [24] 6294 	inc	dptr
      001B23 F0               [24] 6295 	movx	@dptr,a
      001B24                       6296 00484$:
                                   6297 ;	../../../../core/net/uip6.c:1477: uip_udp_conn < &uip_udp_conns[UIP_UDP_CONNS];
      001B24 90r03r0B         [24] 6298 	mov	dptr,#_uip_udp_conn
      001B27 E0               [24] 6299 	movx	a,@dptr
      001B28 FD               [12] 6300 	mov	r5,a
      001B29 A3               [24] 6301 	inc	dptr
      001B2A E0               [24] 6302 	movx	a,@dptr
      001B2B FE               [12] 6303 	mov	r6,a
      001B2C A3               [24] 6304 	inc	dptr
      001B2D E0               [24] 6305 	movx	a,@dptr
      001B2E FF               [12] 6306 	mov	r7,a
      001B2F 74r1C            [12] 6307 	mov	a,#(_uip_udp_conns + 0x010e)
      001B31 C0 E0            [24] 6308 	push	acc
      001B33 74s04            [12] 6309 	mov	a,#((_uip_udp_conns + 0x010e) >> 8)
      001B35 C0 E0            [24] 6310 	push	acc
      001B37 E4               [12] 6311 	clr	a
      001B38 C0 E0            [24] 6312 	push	acc
      001B3A 8D 82            [24] 6313 	mov	dpl,r5
      001B3C 8E 83            [24] 6314 	mov	dph,r6
      001B3E 8F F0            [24] 6315 	mov	b,r7
      001B40 12r00r00         [24] 6316 	lcall	___gptr_cmp
      001B43 15 81            [12] 6317 	dec	sp
      001B45 15 81            [12] 6318 	dec	sp
      001B47 15 81            [12] 6319 	dec	sp
      001B49 40 03            [24] 6320 	jc	01253$
      001B4B 02r3Br87         [24] 6321 	ljmp	00482$
      001B4E                       6322 01253$:
                                   6323 ;	../../../../core/net/uip6.c:1486: if(uip_udp_conn->lport != 0 &&
      001B4E 74 10            [12] 6324 	mov	a,#0x10
      001B50 2D               [12] 6325 	add	a,r5
      001B51 FA               [12] 6326 	mov	r2,a
      001B52 E4               [12] 6327 	clr	a
      001B53 3E               [12] 6328 	addc	a,r6
      001B54 FB               [12] 6329 	mov	r3,a
      001B55 8F 04            [24] 6330 	mov	ar4,r7
      001B57 8A 82            [24] 6331 	mov	dpl,r2
      001B59 8B 83            [24] 6332 	mov	dph,r3
      001B5B 8C F0            [24] 6333 	mov	b,r4
      001B5D 12r00r00         [24] 6334 	lcall	__gptrget
      001B60 FB               [12] 6335 	mov	r3,a
      001B61 A3               [24] 6336 	inc	dptr
      001B62 12r00r00         [24] 6337 	lcall	__gptrget
      001B65 FC               [12] 6338 	mov	r4,a
      001B66 4B               [12] 6339 	orl	a,r3
      001B67 70 03            [24] 6340 	jnz	01254$
      001B69 02r1CrF1         [24] 6341 	ljmp	00485$
      001B6C                       6342 01254$:
                                   6343 ;	../../../../core/net/uip6.c:1487: UIP_UDP_BUF->destport == uip_udp_conn->lport &&
      001B6C C0 05            [24] 6344 	push	ar5
      001B6E C0 06            [24] 6345 	push	ar6
      001B70 C0 07            [24] 6346 	push	ar7
      001B72 7Ar33            [12] 6347 	mov	r2,#(_uip_aligned_buf + 0x0028)
      001B74 7Fs00            [12] 6348 	mov	r7,#((_uip_aligned_buf + 0x0028) >> 8)
      001B76 8A 82            [24] 6349 	mov	dpl,r2
      001B78 8F 83            [24] 6350 	mov	dph,r7
      001B7A A3               [24] 6351 	inc	dptr
      001B7B A3               [24] 6352 	inc	dptr
      001B7C E0               [24] 6353 	movx	a,@dptr
      001B7D FE               [12] 6354 	mov	r6,a
      001B7E A3               [24] 6355 	inc	dptr
      001B7F E0               [24] 6356 	movx	a,@dptr
      001B80 FF               [12] 6357 	mov	r7,a
      001B81 EE               [12] 6358 	mov	a,r6
      001B82 B5 03 06         [24] 6359 	cjne	a,ar3,01255$
      001B85 EF               [12] 6360 	mov	a,r7
      001B86 B5 04 02         [24] 6361 	cjne	a,ar4,01255$
      001B89 80 09            [24] 6362 	sjmp	01256$
      001B8B                       6363 01255$:
      001B8B D0 07            [24] 6364 	pop	ar7
      001B8D D0 06            [24] 6365 	pop	ar6
      001B8F D0 05            [24] 6366 	pop	ar5
      001B91 02r1CrF1         [24] 6367 	ljmp	00485$
      001B94                       6368 01256$:
      001B94 D0 07            [24] 6369 	pop	ar7
      001B96 D0 06            [24] 6370 	pop	ar6
      001B98 D0 05            [24] 6371 	pop	ar5
                                   6372 ;	../../../../core/net/uip6.c:1488: (uip_udp_conn->rport == 0 ||
      001B9A 74 12            [12] 6373 	mov	a,#0x12
      001B9C 2D               [12] 6374 	add	a,r5
      001B9D FD               [12] 6375 	mov	r5,a
      001B9E E4               [12] 6376 	clr	a
      001B9F 3E               [12] 6377 	addc	a,r6
      001BA0 FE               [12] 6378 	mov	r6,a
      001BA1 8D 82            [24] 6379 	mov	dpl,r5
      001BA3 8E 83            [24] 6380 	mov	dph,r6
      001BA5 8F F0            [24] 6381 	mov	b,r7
      001BA7 12r00r00         [24] 6382 	lcall	__gptrget
      001BAA FE               [12] 6383 	mov	r6,a
      001BAB A3               [24] 6384 	inc	dptr
      001BAC 12r00r00         [24] 6385 	lcall	__gptrget
      001BAF FF               [12] 6386 	mov	r7,a
      001BB0 4E               [12] 6387 	orl	a,r6
      001BB1 60 15            [24] 6388 	jz	00288$
                                   6389 ;	../../../../core/net/uip6.c:1489: UIP_UDP_BUF->srcport == uip_udp_conn->rport) &&
      001BB3 90r00r33         [24] 6390 	mov	dptr,#(_uip_aligned_buf + 0x0028)
      001BB6 E0               [24] 6391 	movx	a,@dptr
      001BB7 FC               [12] 6392 	mov	r4,a
      001BB8 A3               [24] 6393 	inc	dptr
      001BB9 E0               [24] 6394 	movx	a,@dptr
      001BBA FD               [12] 6395 	mov	r5,a
      001BBB EC               [12] 6396 	mov	a,r4
      001BBC B5 06 06         [24] 6397 	cjne	a,ar6,01258$
      001BBF ED               [12] 6398 	mov	a,r5
      001BC0 B5 07 02         [24] 6399 	cjne	a,ar7,01258$
      001BC3 80 03            [24] 6400 	sjmp	01259$
      001BC5                       6401 01258$:
      001BC5 02r1CrF1         [24] 6402 	ljmp	00485$
      001BC8                       6403 01259$:
      001BC8                       6404 00288$:
                                   6405 ;	../../../../core/net/uip6.c:1490: (uip_is_addr_unspecified(&uip_udp_conn->ripaddr) ||
      001BC8 90r03r0B         [24] 6406 	mov	dptr,#_uip_udp_conn
      001BCB E0               [24] 6407 	movx	a,@dptr
      001BCC FD               [12] 6408 	mov	r5,a
      001BCD A3               [24] 6409 	inc	dptr
      001BCE E0               [24] 6410 	movx	a,@dptr
      001BCF FE               [12] 6411 	mov	r6,a
      001BD0 A3               [24] 6412 	inc	dptr
      001BD1 E0               [24] 6413 	movx	a,@dptr
      001BD2 FF               [12] 6414 	mov	r7,a
      001BD3 8D 02            [24] 6415 	mov	ar2,r5
      001BD5 8E 03            [24] 6416 	mov	ar3,r6
      001BD7 8F 04            [24] 6417 	mov	ar4,r7
      001BD9 8A 82            [24] 6418 	mov	dpl,r2
      001BDB 8B 83            [24] 6419 	mov	dph,r3
      001BDD 8C F0            [24] 6420 	mov	b,r4
      001BDF 12r00r00         [24] 6421 	lcall	__gptrget
      001BE2 FA               [12] 6422 	mov	r2,a
      001BE3 A3               [24] 6423 	inc	dptr
      001BE4 12r00r00         [24] 6424 	lcall	__gptrget
      001BE7 FB               [12] 6425 	mov	r3,a
      001BE8 4A               [12] 6426 	orl	a,r2
      001BE9 60 03            [24] 6427 	jz	01260$
      001BEB 02r1CrAF         [24] 6428 	ljmp	00287$
      001BEE                       6429 01260$:
      001BEE 74 02            [12] 6430 	mov	a,#0x02
      001BF0 2D               [12] 6431 	add	a,r5
      001BF1 FA               [12] 6432 	mov	r2,a
      001BF2 E4               [12] 6433 	clr	a
      001BF3 3E               [12] 6434 	addc	a,r6
      001BF4 FB               [12] 6435 	mov	r3,a
      001BF5 8F 04            [24] 6436 	mov	ar4,r7
      001BF7 8A 82            [24] 6437 	mov	dpl,r2
      001BF9 8B 83            [24] 6438 	mov	dph,r3
      001BFB 8C F0            [24] 6439 	mov	b,r4
      001BFD 12r00r00         [24] 6440 	lcall	__gptrget
      001C00 FA               [12] 6441 	mov	r2,a
      001C01 A3               [24] 6442 	inc	dptr
      001C02 12r00r00         [24] 6443 	lcall	__gptrget
      001C05 FB               [12] 6444 	mov	r3,a
      001C06 4A               [12] 6445 	orl	a,r2
      001C07 60 03            [24] 6446 	jz	01261$
      001C09 02r1CrAF         [24] 6447 	ljmp	00287$
      001C0C                       6448 01261$:
      001C0C 74 04            [12] 6449 	mov	a,#0x04
      001C0E 2D               [12] 6450 	add	a,r5
      001C0F FA               [12] 6451 	mov	r2,a
      001C10 E4               [12] 6452 	clr	a
      001C11 3E               [12] 6453 	addc	a,r6
      001C12 FB               [12] 6454 	mov	r3,a
      001C13 8F 04            [24] 6455 	mov	ar4,r7
      001C15 8A 82            [24] 6456 	mov	dpl,r2
      001C17 8B 83            [24] 6457 	mov	dph,r3
      001C19 8C F0            [24] 6458 	mov	b,r4
      001C1B 12r00r00         [24] 6459 	lcall	__gptrget
      001C1E FA               [12] 6460 	mov	r2,a
      001C1F A3               [24] 6461 	inc	dptr
      001C20 12r00r00         [24] 6462 	lcall	__gptrget
      001C23 FB               [12] 6463 	mov	r3,a
      001C24 4A               [12] 6464 	orl	a,r2
      001C25 60 03            [24] 6465 	jz	01262$
      001C27 02r1CrAF         [24] 6466 	ljmp	00287$
      001C2A                       6467 01262$:
      001C2A 74 06            [12] 6468 	mov	a,#0x06
      001C2C 2D               [12] 6469 	add	a,r5
      001C2D FA               [12] 6470 	mov	r2,a
      001C2E E4               [12] 6471 	clr	a
      001C2F 3E               [12] 6472 	addc	a,r6
      001C30 FB               [12] 6473 	mov	r3,a
      001C31 8F 04            [24] 6474 	mov	ar4,r7
      001C33 8A 82            [24] 6475 	mov	dpl,r2
      001C35 8B 83            [24] 6476 	mov	dph,r3
      001C37 8C F0            [24] 6477 	mov	b,r4
      001C39 12r00r00         [24] 6478 	lcall	__gptrget
      001C3C FA               [12] 6479 	mov	r2,a
      001C3D A3               [24] 6480 	inc	dptr
      001C3E 12r00r00         [24] 6481 	lcall	__gptrget
      001C41 FB               [12] 6482 	mov	r3,a
      001C42 4A               [12] 6483 	orl	a,r2
      001C43 70 6A            [24] 6484 	jnz	00287$
      001C45 74 08            [12] 6485 	mov	a,#0x08
      001C47 2D               [12] 6486 	add	a,r5
      001C48 FA               [12] 6487 	mov	r2,a
      001C49 E4               [12] 6488 	clr	a
      001C4A 3E               [12] 6489 	addc	a,r6
      001C4B FB               [12] 6490 	mov	r3,a
      001C4C 8F 04            [24] 6491 	mov	ar4,r7
      001C4E 8A 82            [24] 6492 	mov	dpl,r2
      001C50 8B 83            [24] 6493 	mov	dph,r3
      001C52 8C F0            [24] 6494 	mov	b,r4
      001C54 12r00r00         [24] 6495 	lcall	__gptrget
      001C57 FA               [12] 6496 	mov	r2,a
      001C58 A3               [24] 6497 	inc	dptr
      001C59 12r00r00         [24] 6498 	lcall	__gptrget
      001C5C FB               [12] 6499 	mov	r3,a
      001C5D 4A               [12] 6500 	orl	a,r2
      001C5E 70 4F            [24] 6501 	jnz	00287$
      001C60 74 0A            [12] 6502 	mov	a,#0x0A
      001C62 2D               [12] 6503 	add	a,r5
      001C63 FA               [12] 6504 	mov	r2,a
      001C64 E4               [12] 6505 	clr	a
      001C65 3E               [12] 6506 	addc	a,r6
      001C66 FB               [12] 6507 	mov	r3,a
      001C67 8F 04            [24] 6508 	mov	ar4,r7
      001C69 8A 82            [24] 6509 	mov	dpl,r2
      001C6B 8B 83            [24] 6510 	mov	dph,r3
      001C6D 8C F0            [24] 6511 	mov	b,r4
      001C6F 12r00r00         [24] 6512 	lcall	__gptrget
      001C72 FA               [12] 6513 	mov	r2,a
      001C73 A3               [24] 6514 	inc	dptr
      001C74 12r00r00         [24] 6515 	lcall	__gptrget
      001C77 FB               [12] 6516 	mov	r3,a
      001C78 4A               [12] 6517 	orl	a,r2
      001C79 70 34            [24] 6518 	jnz	00287$
      001C7B 74 0C            [12] 6519 	mov	a,#0x0C
      001C7D 2D               [12] 6520 	add	a,r5
      001C7E FA               [12] 6521 	mov	r2,a
      001C7F E4               [12] 6522 	clr	a
      001C80 3E               [12] 6523 	addc	a,r6
      001C81 FB               [12] 6524 	mov	r3,a
      001C82 8F 04            [24] 6525 	mov	ar4,r7
      001C84 8A 82            [24] 6526 	mov	dpl,r2
      001C86 8B 83            [24] 6527 	mov	dph,r3
      001C88 8C F0            [24] 6528 	mov	b,r4
      001C8A 12r00r00         [24] 6529 	lcall	__gptrget
      001C8D FA               [12] 6530 	mov	r2,a
      001C8E A3               [24] 6531 	inc	dptr
      001C8F 12r00r00         [24] 6532 	lcall	__gptrget
      001C92 FB               [12] 6533 	mov	r3,a
      001C93 4A               [12] 6534 	orl	a,r2
      001C94 70 19            [24] 6535 	jnz	00287$
      001C96 74 0E            [12] 6536 	mov	a,#0x0E
      001C98 2D               [12] 6537 	add	a,r5
      001C99 FD               [12] 6538 	mov	r5,a
      001C9A E4               [12] 6539 	clr	a
      001C9B 3E               [12] 6540 	addc	a,r6
      001C9C FE               [12] 6541 	mov	r6,a
      001C9D 8D 82            [24] 6542 	mov	dpl,r5
      001C9F 8E 83            [24] 6543 	mov	dph,r6
      001CA1 8F F0            [24] 6544 	mov	b,r7
      001CA3 12r00r00         [24] 6545 	lcall	__gptrget
      001CA6 FD               [12] 6546 	mov	r5,a
      001CA7 A3               [24] 6547 	inc	dptr
      001CA8 12r00r00         [24] 6548 	lcall	__gptrget
      001CAB FE               [12] 6549 	mov	r6,a
      001CAC 4D               [12] 6550 	orl	a,r5
      001CAD 60 51            [24] 6551 	jz	00290$
      001CAF                       6552 00287$:
                                   6553 ;	../../../../core/net/uip6.c:1491: uip_ipaddr_cmp(&UIP_IP_BUF->srcipaddr, &uip_udp_conn->ripaddr))) {
      001CAF 90r03r0B         [24] 6554 	mov	dptr,#_uip_udp_conn
      001CB2 E0               [24] 6555 	movx	a,@dptr
      001CB3 FD               [12] 6556 	mov	r5,a
      001CB4 A3               [24] 6557 	inc	dptr
      001CB5 E0               [24] 6558 	movx	a,@dptr
      001CB6 FE               [12] 6559 	mov	r6,a
      001CB7 A3               [24] 6560 	inc	dptr
      001CB8 E0               [24] 6561 	movx	a,@dptr
      001CB9 FF               [12] 6562 	mov	r7,a
      001CBA 7Br0B            [12] 6563 	mov	r3,#_uip_aligned_buf
      001CBC 7Cs00            [12] 6564 	mov	r4,#(_uip_aligned_buf >> 8)
      001CBE 74 08            [12] 6565 	mov	a,#0x08
      001CC0 2B               [12] 6566 	add	a,r3
      001CC1 FB               [12] 6567 	mov	r3,a
      001CC2 E4               [12] 6568 	clr	a
      001CC3 3C               [12] 6569 	addc	a,r4
      001CC4 FC               [12] 6570 	mov	r4,a
      001CC5 7A 00            [12] 6571 	mov	r2,#0x00
      001CC7 74 10            [12] 6572 	mov	a,#0x10
      001CC9 C0 E0            [24] 6573 	push	acc
      001CCB E4               [12] 6574 	clr	a
      001CCC C0 E0            [24] 6575 	push	acc
      001CCE C0 05            [24] 6576 	push	ar5
      001CD0 C0 06            [24] 6577 	push	ar6
      001CD2 C0 07            [24] 6578 	push	ar7
      001CD4 8B 82            [24] 6579 	mov	dpl,r3
      001CD6 8C 83            [24] 6580 	mov	dph,r4
      001CD8 8A F0            [24] 6581 	mov	b,r2
      001CDA 78r00            [12] 6582 	mov	r0,#_memcmp
      001CDC 79s00            [12] 6583 	mov	r1,#(_memcmp >> 8)
      001CDE 7As00            [12] 6584 	mov	r2,#(_memcmp >> 16)
      001CE0 12r00r00         [24] 6585 	lcall	__sdcc_banked_call
      001CE3 AE 82            [24] 6586 	mov	r6,dpl
      001CE5 AF 83            [24] 6587 	mov	r7,dph
      001CE7 E5 81            [12] 6588 	mov	a,sp
      001CE9 24 FB            [12] 6589 	add	a,#0xfb
      001CEB F5 81            [12] 6590 	mov	sp,a
      001CED EE               [12] 6591 	mov	a,r6
      001CEE 4F               [12] 6592 	orl	a,r7
      001CEF 60 0F            [24] 6593 	jz	00290$
                                   6594 ;	../../../../core/net/uip6.c:1492: goto udp_found;
      001CF1                       6595 00485$:
                                   6596 ;	../../../../core/net/uip6.c:1478: ++uip_udp_conn) {
      001CF1 90r03r0B         [24] 6597 	mov	dptr,#_uip_udp_conn
      001CF4 E0               [24] 6598 	movx	a,@dptr
      001CF5 24 1B            [12] 6599 	add	a,#0x1B
      001CF7 F0               [24] 6600 	movx	@dptr,a
      001CF8 A3               [24] 6601 	inc	dptr
      001CF9 E0               [24] 6602 	movx	a,@dptr
      001CFA 34 00            [12] 6603 	addc	a,#0x00
      001CFC F0               [24] 6604 	movx	@dptr,a
      001CFD 02r1Br24         [24] 6605 	ljmp	00484$
                                   6606 ;	../../../../core/net/uip6.c:1505: udp_found:
      001D00                       6607 00290$:
                                   6608 ;	../../../../core/net/uip6.c:1508: uip_conn = NULL;
      001D00 90r01r06         [24] 6609 	mov	dptr,#_uip_conn
      001D03 E4               [12] 6610 	clr	a
      001D04 F0               [24] 6611 	movx	@dptr,a
      001D05 E4               [12] 6612 	clr	a
      001D06 A3               [24] 6613 	inc	dptr
      001D07 F0               [24] 6614 	movx	@dptr,a
      001D08 E4               [12] 6615 	clr	a
      001D09 A3               [24] 6616 	inc	dptr
      001D0A F0               [24] 6617 	movx	@dptr,a
                                   6618 ;	../../../../core/net/uip6.c:1509: uip_flags = UIP_NEWDATA;
      001D0B 90r01r05         [24] 6619 	mov	dptr,#_uip_flags
      001D0E 74 02            [12] 6620 	mov	a,#0x02
      001D10 F0               [24] 6621 	movx	@dptr,a
                                   6622 ;	../../../../core/net/uip6.c:1510: uip_sappdata = uip_appdata = &uip_buf[UIP_IPUDPH_LEN + UIP_LLH_LEN];
      001D11 90r00rFB         [24] 6623 	mov	dptr,#_uip_appdata
      001D14 74r3B            [12] 6624 	mov	a,#(_uip_aligned_buf + 0x0030)
      001D16 F0               [24] 6625 	movx	@dptr,a
      001D17 74s00            [12] 6626 	mov	a,#((_uip_aligned_buf + 0x0030) >> 8)
      001D19 A3               [24] 6627 	inc	dptr
      001D1A F0               [24] 6628 	movx	@dptr,a
      001D1B E4               [12] 6629 	clr	a
      001D1C A3               [24] 6630 	inc	dptr
      001D1D F0               [24] 6631 	movx	@dptr,a
      001D1E 90r00rFE         [24] 6632 	mov	dptr,#_uip_sappdata
      001D21 74r3B            [12] 6633 	mov	a,#(_uip_aligned_buf + 0x0030)
      001D23 F0               [24] 6634 	movx	@dptr,a
      001D24 74s00            [12] 6635 	mov	a,#((_uip_aligned_buf + 0x0030) >> 8)
      001D26 A3               [24] 6636 	inc	dptr
      001D27 F0               [24] 6637 	movx	@dptr,a
      001D28 E4               [12] 6638 	clr	a
      001D29 A3               [24] 6639 	inc	dptr
      001D2A F0               [24] 6640 	movx	@dptr,a
                                   6641 ;	../../../../core/net/uip6.c:1511: uip_slen = 0;
      001D2B 90r01r03         [24] 6642 	mov	dptr,#_uip_slen
      001D2E E4               [12] 6643 	clr	a
      001D2F F0               [24] 6644 	movx	@dptr,a
      001D30 E4               [12] 6645 	clr	a
      001D31 A3               [24] 6646 	inc	dptr
      001D32 F0               [24] 6647 	movx	@dptr,a
                                   6648 ;	../../../../core/net/uip6.c:1512: UIP_UDP_APPCALL();
      001D33 78r00            [12] 6649 	mov	r0,#_tcpip_uipcall
      001D35 79s00            [12] 6650 	mov	r1,#(_tcpip_uipcall >> 8)
      001D37 7As00            [12] 6651 	mov	r2,#(_tcpip_uipcall >> 16)
      001D39 12r00r00         [24] 6652 	lcall	__sdcc_banked_call
                                   6653 ;	../../../../core/net/uip6.c:1514: udp_send:
      001D3C                       6654 00291$:
                                   6655 ;	../../../../core/net/uip6.c:1517: if(uip_slen == 0) {
      001D3C 90r01r03         [24] 6656 	mov	dptr,#_uip_slen
      001D3F E0               [24] 6657 	movx	a,@dptr
      001D40 FE               [12] 6658 	mov	r6,a
      001D41 A3               [24] 6659 	inc	dptr
      001D42 E0               [24] 6660 	movx	a,@dptr
      001D43 FF               [12] 6661 	mov	r7,a
      001D44 4E               [12] 6662 	orl	a,r6
      001D45 70 03            [24] 6663 	jnz	01269$
      001D47 02r3Br87         [24] 6664 	ljmp	00482$
      001D4A                       6665 01269$:
                                   6666 ;	../../../../core/net/uip6.c:1520: uip_len = uip_slen + UIP_IPUDPH_LEN;
      001D4A 90r01r01         [24] 6667 	mov	dptr,#_uip_len
      001D4D 74 30            [12] 6668 	mov	a,#0x30
      001D4F 2E               [12] 6669 	add	a,r6
      001D50 F0               [24] 6670 	movx	@dptr,a
      001D51 E4               [12] 6671 	clr	a
      001D52 3F               [12] 6672 	addc	a,r7
      001D53 A3               [24] 6673 	inc	dptr
      001D54 F0               [24] 6674 	movx	@dptr,a
                                   6675 ;	../../../../core/net/uip6.c:1524: UIP_IP_BUF->len[0] = ((uip_len - UIP_IPH_LEN) >> 8);
      001D55 7Cr0B            [12] 6676 	mov	r4,#_uip_aligned_buf
      001D57 7Ds00            [12] 6677 	mov	r5,#(_uip_aligned_buf >> 8)
      001D59 8C 82            [24] 6678 	mov	dpl,r4
      001D5B 8D 83            [24] 6679 	mov	dph,r5
      001D5D A3               [24] 6680 	inc	dptr
      001D5E A3               [24] 6681 	inc	dptr
      001D5F A3               [24] 6682 	inc	dptr
      001D60 A3               [24] 6683 	inc	dptr
      001D61 EE               [12] 6684 	mov	a,r6
      001D62 24 08            [12] 6685 	add	a,#0x08
      001D64 E4               [12] 6686 	clr	a
      001D65 3F               [12] 6687 	addc	a,r7
      001D66 F0               [24] 6688 	movx	@dptr,a
                                   6689 ;	../../../../core/net/uip6.c:1525: UIP_IP_BUF->len[1] = ((uip_len - UIP_IPH_LEN) & 0xff);
      001D67 7Er0B            [12] 6690 	mov	r6,#_uip_aligned_buf
      001D69 7Fs00            [12] 6691 	mov	r7,#(_uip_aligned_buf >> 8)
      001D6B 74 05            [12] 6692 	mov	a,#0x05
      001D6D 2E               [12] 6693 	add	a,r6
      001D6E FE               [12] 6694 	mov	r6,a
      001D6F E4               [12] 6695 	clr	a
      001D70 3F               [12] 6696 	addc	a,r7
      001D71 FF               [12] 6697 	mov	r7,a
      001D72 90r01r01         [24] 6698 	mov	dptr,#_uip_len
      001D75 E0               [24] 6699 	movx	a,@dptr
      001D76 FC               [12] 6700 	mov	r4,a
      001D77 A3               [24] 6701 	inc	dptr
      001D78 E0               [24] 6702 	movx	a,@dptr
      001D79 EC               [12] 6703 	mov	a,r4
      001D7A 24 D8            [12] 6704 	add	a,#0xD8
      001D7C 8E 82            [24] 6705 	mov	dpl,r6
      001D7E 8F 83            [24] 6706 	mov	dph,r7
      001D80 F0               [24] 6707 	movx	@dptr,a
                                   6708 ;	../../../../core/net/uip6.c:1527: memcpy(&UIP_IP_BUF->ttl, &uip_udp_conn->ttl, sizeof(uip_udp_conn->ttl));
      001D81 90r03r0B         [24] 6709 	mov	dptr,#_uip_udp_conn
      001D84 E0               [24] 6710 	movx	a,@dptr
      001D85 FD               [12] 6711 	mov	r5,a
      001D86 A3               [24] 6712 	inc	dptr
      001D87 E0               [24] 6713 	movx	a,@dptr
      001D88 FE               [12] 6714 	mov	r6,a
      001D89 A3               [24] 6715 	inc	dptr
      001D8A E0               [24] 6716 	movx	a,@dptr
      001D8B FF               [12] 6717 	mov	r7,a
      001D8C 74 14            [12] 6718 	mov	a,#0x14
      001D8E 2D               [12] 6719 	add	a,r5
      001D8F FD               [12] 6720 	mov	r5,a
      001D90 E4               [12] 6721 	clr	a
      001D91 3E               [12] 6722 	addc	a,r6
      001D92 FE               [12] 6723 	mov	r6,a
      001D93 7Br0B            [12] 6724 	mov	r3,#_uip_aligned_buf
      001D95 7Cs00            [12] 6725 	mov	r4,#(_uip_aligned_buf >> 8)
      001D97 74 07            [12] 6726 	mov	a,#0x07
      001D99 2B               [12] 6727 	add	a,r3
      001D9A FB               [12] 6728 	mov	r3,a
      001D9B E4               [12] 6729 	clr	a
      001D9C 3C               [12] 6730 	addc	a,r4
      001D9D FC               [12] 6731 	mov	r4,a
      001D9E 7A 00            [12] 6732 	mov	r2,#0x00
      001DA0 74 01            [12] 6733 	mov	a,#0x01
      001DA2 C0 E0            [24] 6734 	push	acc
      001DA4 E4               [12] 6735 	clr	a
      001DA5 C0 E0            [24] 6736 	push	acc
      001DA7 C0 05            [24] 6737 	push	ar5
      001DA9 C0 06            [24] 6738 	push	ar6
      001DAB C0 07            [24] 6739 	push	ar7
      001DAD 8B 82            [24] 6740 	mov	dpl,r3
      001DAF 8C 83            [24] 6741 	mov	dph,r4
      001DB1 8A F0            [24] 6742 	mov	b,r2
      001DB3 78r00            [12] 6743 	mov	r0,#_memcpy
      001DB5 79s00            [12] 6744 	mov	r1,#(_memcpy >> 8)
      001DB7 7As00            [12] 6745 	mov	r2,#(_memcpy >> 16)
      001DB9 12r00r00         [24] 6746 	lcall	__sdcc_banked_call
      001DBC E5 81            [12] 6747 	mov	a,sp
      001DBE 24 FB            [12] 6748 	add	a,#0xfb
      001DC0 F5 81            [12] 6749 	mov	sp,a
                                   6750 ;	../../../../core/net/uip6.c:1528: UIP_IP_BUF->proto = UIP_PROTO_UDP;
      001DC2 7Er0B            [12] 6751 	mov	r6,#_uip_aligned_buf
      001DC4 7Fs00            [12] 6752 	mov	r7,#(_uip_aligned_buf >> 8)
      001DC6 74 06            [12] 6753 	mov	a,#0x06
      001DC8 2E               [12] 6754 	add	a,r6
      001DC9 F5 82            [12] 6755 	mov	dpl,a
      001DCB E4               [12] 6756 	clr	a
      001DCC 3F               [12] 6757 	addc	a,r7
      001DCD F5 83            [12] 6758 	mov	dph,a
      001DCF 74 11            [12] 6759 	mov	a,#0x11
      001DD1 F0               [24] 6760 	movx	@dptr,a
                                   6761 ;	../../../../core/net/uip6.c:1530: UIP_UDP_BUF->udplen = UIP_HTONS(uip_slen + UIP_UDPH_LEN);
      001DD2 7Er33            [12] 6762 	mov	r6,#(_uip_aligned_buf + 0x0028)
      001DD4 7Fs00            [12] 6763 	mov	r7,#((_uip_aligned_buf + 0x0028) >> 8)
      001DD6 74 04            [12] 6764 	mov	a,#0x04
      001DD8 2E               [12] 6765 	add	a,r6
      001DD9 FE               [12] 6766 	mov	r6,a
      001DDA E4               [12] 6767 	clr	a
      001DDB 3F               [12] 6768 	addc	a,r7
      001DDC FF               [12] 6769 	mov	r7,a
      001DDD 90r01r03         [24] 6770 	mov	dptr,#_uip_slen
      001DE0 E0               [24] 6771 	movx	a,@dptr
      001DE1 FC               [12] 6772 	mov	r4,a
      001DE2 A3               [24] 6773 	inc	dptr
      001DE3 E0               [24] 6774 	movx	a,@dptr
      001DE4 FD               [12] 6775 	mov	r5,a
      001DE5 74 08            [12] 6776 	mov	a,#0x08
      001DE7 2C               [12] 6777 	add	a,r4
      001DE8 FC               [12] 6778 	mov	r4,a
      001DE9 E4               [12] 6779 	clr	a
      001DEA 3D               [12] 6780 	addc	a,r5
      001DEB FD               [12] 6781 	mov	r5,a
      001DEC 8C 03            [24] 6782 	mov	ar3,r4
      001DEE 7A 00            [12] 6783 	mov	r2,#0x00
      001DF0 8D 04            [24] 6784 	mov	ar4,r5
      001DF2 7D 00            [12] 6785 	mov	r5,#0x00
      001DF4 EC               [12] 6786 	mov	a,r4
      001DF5 42 02            [12] 6787 	orl	ar2,a
      001DF7 ED               [12] 6788 	mov	a,r5
      001DF8 42 03            [12] 6789 	orl	ar3,a
      001DFA 8E 82            [24] 6790 	mov	dpl,r6
      001DFC 8F 83            [24] 6791 	mov	dph,r7
      001DFE EA               [12] 6792 	mov	a,r2
      001DFF F0               [24] 6793 	movx	@dptr,a
      001E00 EB               [12] 6794 	mov	a,r3
      001E01 A3               [24] 6795 	inc	dptr
      001E02 F0               [24] 6796 	movx	@dptr,a
                                   6797 ;	../../../../core/net/uip6.c:1531: UIP_UDP_BUF->udpchksum = 0;
      001E03 7Er33            [12] 6798 	mov	r6,#(_uip_aligned_buf + 0x0028)
      001E05 7Fs00            [12] 6799 	mov	r7,#((_uip_aligned_buf + 0x0028) >> 8)
      001E07 74 06            [12] 6800 	mov	a,#0x06
      001E09 2E               [12] 6801 	add	a,r6
      001E0A F5 82            [12] 6802 	mov	dpl,a
      001E0C E4               [12] 6803 	clr	a
      001E0D 3F               [12] 6804 	addc	a,r7
      001E0E F5 83            [12] 6805 	mov	dph,a
      001E10 E4               [12] 6806 	clr	a
      001E11 F0               [24] 6807 	movx	@dptr,a
      001E12 E4               [12] 6808 	clr	a
      001E13 A3               [24] 6809 	inc	dptr
      001E14 F0               [24] 6810 	movx	@dptr,a
                                   6811 ;	../../../../core/net/uip6.c:1533: UIP_UDP_BUF->srcport  = uip_udp_conn->lport;
      001E15 7Er33            [12] 6812 	mov	r6,#(_uip_aligned_buf + 0x0028)
      001E17 7Fs00            [12] 6813 	mov	r7,#((_uip_aligned_buf + 0x0028) >> 8)
      001E19 90r03r0B         [24] 6814 	mov	dptr,#_uip_udp_conn
      001E1C E0               [24] 6815 	movx	a,@dptr
      001E1D FB               [12] 6816 	mov	r3,a
      001E1E A3               [24] 6817 	inc	dptr
      001E1F E0               [24] 6818 	movx	a,@dptr
      001E20 FC               [12] 6819 	mov	r4,a
      001E21 A3               [24] 6820 	inc	dptr
      001E22 E0               [24] 6821 	movx	a,@dptr
      001E23 FD               [12] 6822 	mov	r5,a
      001E24 74 10            [12] 6823 	mov	a,#0x10
      001E26 2B               [12] 6824 	add	a,r3
      001E27 FB               [12] 6825 	mov	r3,a
      001E28 E4               [12] 6826 	clr	a
      001E29 3C               [12] 6827 	addc	a,r4
      001E2A FC               [12] 6828 	mov	r4,a
      001E2B 8B 82            [24] 6829 	mov	dpl,r3
      001E2D 8C 83            [24] 6830 	mov	dph,r4
      001E2F 8D F0            [24] 6831 	mov	b,r5
      001E31 12r00r00         [24] 6832 	lcall	__gptrget
      001E34 FB               [12] 6833 	mov	r3,a
      001E35 A3               [24] 6834 	inc	dptr
      001E36 12r00r00         [24] 6835 	lcall	__gptrget
      001E39 FC               [12] 6836 	mov	r4,a
      001E3A 8E 82            [24] 6837 	mov	dpl,r6
      001E3C 8F 83            [24] 6838 	mov	dph,r7
      001E3E EB               [12] 6839 	mov	a,r3
      001E3F F0               [24] 6840 	movx	@dptr,a
      001E40 EC               [12] 6841 	mov	a,r4
      001E41 A3               [24] 6842 	inc	dptr
      001E42 F0               [24] 6843 	movx	@dptr,a
                                   6844 ;	../../../../core/net/uip6.c:1534: UIP_UDP_BUF->destport = uip_udp_conn->rport;
      001E43 7Er33            [12] 6845 	mov	r6,#(_uip_aligned_buf + 0x0028)
      001E45 7Fs00            [12] 6846 	mov	r7,#((_uip_aligned_buf + 0x0028) >> 8)
      001E47 74 02            [12] 6847 	mov	a,#0x02
      001E49 2E               [12] 6848 	add	a,r6
      001E4A FE               [12] 6849 	mov	r6,a
      001E4B E4               [12] 6850 	clr	a
      001E4C 3F               [12] 6851 	addc	a,r7
      001E4D FF               [12] 6852 	mov	r7,a
      001E4E 90r03r0B         [24] 6853 	mov	dptr,#_uip_udp_conn
      001E51 E0               [24] 6854 	movx	a,@dptr
      001E52 FB               [12] 6855 	mov	r3,a
      001E53 A3               [24] 6856 	inc	dptr
      001E54 E0               [24] 6857 	movx	a,@dptr
      001E55 FC               [12] 6858 	mov	r4,a
      001E56 A3               [24] 6859 	inc	dptr
      001E57 E0               [24] 6860 	movx	a,@dptr
      001E58 FD               [12] 6861 	mov	r5,a
      001E59 74 12            [12] 6862 	mov	a,#0x12
      001E5B 2B               [12] 6863 	add	a,r3
      001E5C FB               [12] 6864 	mov	r3,a
      001E5D E4               [12] 6865 	clr	a
      001E5E 3C               [12] 6866 	addc	a,r4
      001E5F FC               [12] 6867 	mov	r4,a
      001E60 8B 82            [24] 6868 	mov	dpl,r3
      001E62 8C 83            [24] 6869 	mov	dph,r4
      001E64 8D F0            [24] 6870 	mov	b,r5
      001E66 12r00r00         [24] 6871 	lcall	__gptrget
      001E69 FB               [12] 6872 	mov	r3,a
      001E6A A3               [24] 6873 	inc	dptr
      001E6B 12r00r00         [24] 6874 	lcall	__gptrget
      001E6E FC               [12] 6875 	mov	r4,a
      001E6F 8E 82            [24] 6876 	mov	dpl,r6
      001E71 8F 83            [24] 6877 	mov	dph,r7
      001E73 EB               [12] 6878 	mov	a,r3
      001E74 F0               [24] 6879 	movx	@dptr,a
      001E75 EC               [12] 6880 	mov	a,r4
      001E76 A3               [24] 6881 	inc	dptr
      001E77 F0               [24] 6882 	movx	@dptr,a
                                   6883 ;	../../../../core/net/uip6.c:1536: uip_ipaddr_copy(&UIP_IP_BUF->destipaddr, &uip_udp_conn->ripaddr);
      001E78 90r03r0B         [24] 6884 	mov	dptr,#_uip_udp_conn
      001E7B E0               [24] 6885 	movx	a,@dptr
      001E7C FD               [12] 6886 	mov	r5,a
      001E7D A3               [24] 6887 	inc	dptr
      001E7E E0               [24] 6888 	movx	a,@dptr
      001E7F FE               [12] 6889 	mov	r6,a
      001E80 A3               [24] 6890 	inc	dptr
      001E81 E0               [24] 6891 	movx	a,@dptr
      001E82 FF               [12] 6892 	mov	r7,a
      001E83 7Br0B            [12] 6893 	mov	r3,#_uip_aligned_buf
      001E85 7Cs00            [12] 6894 	mov	r4,#(_uip_aligned_buf >> 8)
      001E87 74 18            [12] 6895 	mov	a,#0x18
      001E89 2B               [12] 6896 	add	a,r3
      001E8A FB               [12] 6897 	mov	r3,a
      001E8B E4               [12] 6898 	clr	a
      001E8C 3C               [12] 6899 	addc	a,r4
      001E8D FC               [12] 6900 	mov	r4,a
      001E8E 7A 00            [12] 6901 	mov	r2,#0x00
      001E90 74 10            [12] 6902 	mov	a,#0x10
      001E92 C0 E0            [24] 6903 	push	acc
      001E94 E4               [12] 6904 	clr	a
      001E95 C0 E0            [24] 6905 	push	acc
      001E97 C0 05            [24] 6906 	push	ar5
      001E99 C0 06            [24] 6907 	push	ar6
      001E9B C0 07            [24] 6908 	push	ar7
      001E9D 8B 82            [24] 6909 	mov	dpl,r3
      001E9F 8C 83            [24] 6910 	mov	dph,r4
      001EA1 8A F0            [24] 6911 	mov	b,r2
      001EA3 78r00            [12] 6912 	mov	r0,#_memcpy
      001EA5 79s00            [12] 6913 	mov	r1,#(_memcpy >> 8)
      001EA7 7As00            [12] 6914 	mov	r2,#(_memcpy >> 16)
      001EA9 12r00r00         [24] 6915 	lcall	__sdcc_banked_call
      001EAC E5 81            [12] 6916 	mov	a,sp
      001EAE 24 FB            [12] 6917 	add	a,#0xfb
      001EB0 F5 81            [12] 6918 	mov	sp,a
                                   6919 ;	../../../../core/net/uip6.c:1537: uip_ds6_select_src(&UIP_IP_BUF->srcipaddr, &UIP_IP_BUF->destipaddr);
      001EB2 7Er0B            [12] 6920 	mov	r6,#_uip_aligned_buf
      001EB4 7Fs00            [12] 6921 	mov	r7,#(_uip_aligned_buf >> 8)
      001EB6 74 18            [12] 6922 	mov	a,#0x18
      001EB8 2E               [12] 6923 	add	a,r6
      001EB9 FE               [12] 6924 	mov	r6,a
      001EBA E4               [12] 6925 	clr	a
      001EBB 3F               [12] 6926 	addc	a,r7
      001EBC FF               [12] 6927 	mov	r7,a
      001EBD 7D 00            [12] 6928 	mov	r5,#0x00
      001EBF 7Br0B            [12] 6929 	mov	r3,#_uip_aligned_buf
      001EC1 7Cs00            [12] 6930 	mov	r4,#(_uip_aligned_buf >> 8)
      001EC3 74 08            [12] 6931 	mov	a,#0x08
      001EC5 2B               [12] 6932 	add	a,r3
      001EC6 FB               [12] 6933 	mov	r3,a
      001EC7 E4               [12] 6934 	clr	a
      001EC8 3C               [12] 6935 	addc	a,r4
      001EC9 FC               [12] 6936 	mov	r4,a
      001ECA 7A 00            [12] 6937 	mov	r2,#0x00
      001ECC C0 06            [24] 6938 	push	ar6
      001ECE C0 07            [24] 6939 	push	ar7
      001ED0 C0 05            [24] 6940 	push	ar5
      001ED2 8B 82            [24] 6941 	mov	dpl,r3
      001ED4 8C 83            [24] 6942 	mov	dph,r4
      001ED6 8A F0            [24] 6943 	mov	b,r2
      001ED8 78r00            [12] 6944 	mov	r0,#_uip_ds6_select_src
      001EDA 79s00            [12] 6945 	mov	r1,#(_uip_ds6_select_src >> 8)
      001EDC 7As00            [12] 6946 	mov	r2,#(_uip_ds6_select_src >> 16)
      001EDE 12r00r00         [24] 6947 	lcall	__sdcc_banked_call
      001EE1 15 81            [12] 6948 	dec	sp
      001EE3 15 81            [12] 6949 	dec	sp
      001EE5 15 81            [12] 6950 	dec	sp
                                   6951 ;	../../../../core/net/uip6.c:1539: uip_appdata = &uip_buf[UIP_LLH_LEN + UIP_IPTCPH_LEN];
      001EE7 90r00rFB         [24] 6952 	mov	dptr,#_uip_appdata
      001EEA 74r47            [12] 6953 	mov	a,#(_uip_aligned_buf + 0x003c)
      001EEC F0               [24] 6954 	movx	@dptr,a
      001EED 74s00            [12] 6955 	mov	a,#((_uip_aligned_buf + 0x003c) >> 8)
      001EEF A3               [24] 6956 	inc	dptr
      001EF0 F0               [24] 6957 	movx	@dptr,a
      001EF1 E4               [12] 6958 	clr	a
      001EF2 A3               [24] 6959 	inc	dptr
      001EF3 F0               [24] 6960 	movx	@dptr,a
                                   6961 ;	../../../../core/net/uip6.c:1543: UIP_UDP_BUF->udpchksum = ~(uip_udpchksum());
      001EF4 7Er33            [12] 6962 	mov	r6,#(_uip_aligned_buf + 0x0028)
      001EF6 7Fs00            [12] 6963 	mov	r7,#((_uip_aligned_buf + 0x0028) >> 8)
      001EF8 74 06            [12] 6964 	mov	a,#0x06
      001EFA 2E               [12] 6965 	add	a,r6
      001EFB FE               [12] 6966 	mov	r6,a
      001EFC E4               [12] 6967 	clr	a
      001EFD 3F               [12] 6968 	addc	a,r7
      001EFE FF               [12] 6969 	mov	r7,a
      001EFF C0 07            [24] 6970 	push	ar7
      001F01 C0 06            [24] 6971 	push	ar6
      001F03 78r20            [12] 6972 	mov	r0,#_uip_udpchksum
      001F05 79s04            [12] 6973 	mov	r1,#(_uip_udpchksum >> 8)
      001F07 7As00            [12] 6974 	mov	r2,#(_uip_udpchksum >> 16)
      001F09 12r00r00         [24] 6975 	lcall	__sdcc_banked_call
      001F0C AC 82            [24] 6976 	mov	r4,dpl
      001F0E AD 83            [24] 6977 	mov	r5,dph
      001F10 D0 06            [24] 6978 	pop	ar6
      001F12 D0 07            [24] 6979 	pop	ar7
      001F14 EC               [12] 6980 	mov	a,r4
      001F15 F4               [12] 6981 	cpl	a
      001F16 FC               [12] 6982 	mov	r4,a
      001F17 ED               [12] 6983 	mov	a,r5
      001F18 F4               [12] 6984 	cpl	a
      001F19 FD               [12] 6985 	mov	r5,a
      001F1A 8E 82            [24] 6986 	mov	dpl,r6
      001F1C 8F 83            [24] 6987 	mov	dph,r7
      001F1E EC               [12] 6988 	mov	a,r4
      001F1F F0               [24] 6989 	movx	@dptr,a
      001F20 ED               [12] 6990 	mov	a,r5
      001F21 A3               [24] 6991 	inc	dptr
      001F22 F0               [24] 6992 	movx	@dptr,a
                                   6993 ;	../../../../core/net/uip6.c:1544: if(UIP_UDP_BUF->udpchksum == 0) {
      001F23 7Er33            [12] 6994 	mov	r6,#(_uip_aligned_buf + 0x0028)
      001F25 7Fs00            [12] 6995 	mov	r7,#((_uip_aligned_buf + 0x0028) >> 8)
      001F27 74 06            [12] 6996 	mov	a,#0x06
      001F29 2E               [12] 6997 	add	a,r6
      001F2A F5 82            [12] 6998 	mov	dpl,a
      001F2C E4               [12] 6999 	clr	a
      001F2D 3F               [12] 7000 	addc	a,r7
      001F2E F5 83            [12] 7001 	mov	dph,a
      001F30 E0               [24] 7002 	movx	a,@dptr
      001F31 FE               [12] 7003 	mov	r6,a
      001F32 A3               [24] 7004 	inc	dptr
      001F33 E0               [24] 7005 	movx	a,@dptr
      001F34 FF               [12] 7006 	mov	r7,a
      001F35 4E               [12] 7007 	orl	a,r6
      001F36 60 03            [24] 7008 	jz	01270$
      001F38 02r3Br60         [24] 7009 	ljmp	00480$
      001F3B                       7010 01270$:
                                   7011 ;	../../../../core/net/uip6.c:1545: UIP_UDP_BUF->udpchksum = 0xffff;
      001F3B 7Er33            [12] 7012 	mov	r6,#(_uip_aligned_buf + 0x0028)
      001F3D 7Fs00            [12] 7013 	mov	r7,#((_uip_aligned_buf + 0x0028) >> 8)
      001F3F 74 06            [12] 7014 	mov	a,#0x06
      001F41 2E               [12] 7015 	add	a,r6
      001F42 F5 82            [12] 7016 	mov	dpl,a
      001F44 E4               [12] 7017 	clr	a
      001F45 3F               [12] 7018 	addc	a,r7
      001F46 F5 83            [12] 7019 	mov	dph,a
      001F48 74 FF            [12] 7020 	mov	a,#0xFF
      001F4A F0               [24] 7021 	movx	@dptr,a
      001F4B 74 FF            [12] 7022 	mov	a,#0xFF
      001F4D A3               [24] 7023 	inc	dptr
      001F4E F0               [24] 7024 	movx	@dptr,a
                                   7025 ;	../../../../core/net/uip6.c:1549: goto ip_send_nolen;
      001F4F 02r3Br60         [24] 7026 	ljmp	00480$
                                   7027 ;	../../../../core/net/uip6.c:1554: tcp_input:
      001F52                       7028 00296$:
                                   7029 ;	../../../../core/net/uip6.c:1556: remove_ext_hdr();
      001F52 78r27            [12] 7030 	mov	r0,#_remove_ext_hdr
      001F54 79s09            [12] 7031 	mov	r1,#(_remove_ext_hdr >> 8)
      001F56 7As00            [12] 7032 	mov	r2,#(_remove_ext_hdr >> 16)
      001F58 12r00r00         [24] 7033 	lcall	__sdcc_banked_call
                                   7034 ;	../../../../core/net/uip6.c:1562: if(uip_tcpchksum() != 0xffff) {   /* Compute and check the TCP
      001F5B 78r0D            [12] 7035 	mov	r0,#_uip_tcpchksum
      001F5D 79s04            [12] 7036 	mov	r1,#(_uip_tcpchksum >> 8)
      001F5F 7As00            [12] 7037 	mov	r2,#(_uip_tcpchksum >> 16)
      001F61 12r00r00         [24] 7038 	lcall	__sdcc_banked_call
      001F64 AE 82            [24] 7039 	mov	r6,dpl
      001F66 AF 83            [24] 7040 	mov	r7,dph
      001F68 BE FF 05         [24] 7041 	cjne	r6,#0xFF,01271$
      001F6B BF FF 02         [24] 7042 	cjne	r7,#0xFF,01271$
      001F6E 80 03            [24] 7043 	sjmp	01272$
      001F70                       7044 01271$:
      001F70 02r3Br87         [24] 7045 	ljmp	00482$
      001F73                       7046 01272$:
                                   7047 ;	../../../../core/net/uip6.c:1572: if(UIP_TCP_BUF->destport == 0 || UIP_TCP_BUF->srcport == 0) {
      001F73 7Er33            [12] 7048 	mov	r6,#(_uip_aligned_buf + 0x0028)
      001F75 7Fs00            [12] 7049 	mov	r7,#((_uip_aligned_buf + 0x0028) >> 8)
      001F77 8E 82            [24] 7050 	mov	dpl,r6
      001F79 8F 83            [24] 7051 	mov	dph,r7
      001F7B A3               [24] 7052 	inc	dptr
      001F7C A3               [24] 7053 	inc	dptr
      001F7D E0               [24] 7054 	movx	a,@dptr
      001F7E FE               [12] 7055 	mov	r6,a
      001F7F A3               [24] 7056 	inc	dptr
      001F80 E0               [24] 7057 	movx	a,@dptr
      001F81 FF               [12] 7058 	mov	r7,a
      001F82 4E               [12] 7059 	orl	a,r6
      001F83 70 03            [24] 7060 	jnz	01273$
      001F85 02r3Br87         [24] 7061 	ljmp	00482$
      001F88                       7062 01273$:
      001F88 90r00r33         [24] 7063 	mov	dptr,#(_uip_aligned_buf + 0x0028)
      001F8B E0               [24] 7064 	movx	a,@dptr
      001F8C FE               [12] 7065 	mov	r6,a
      001F8D A3               [24] 7066 	inc	dptr
      001F8E E0               [24] 7067 	movx	a,@dptr
      001F8F FF               [12] 7068 	mov	r7,a
      001F90 4E               [12] 7069 	orl	a,r6
      001F91 70 03            [24] 7070 	jnz	01274$
      001F93 02r3Br87         [24] 7071 	ljmp	00482$
      001F96                       7072 01274$:
                                   7073 ;	../../../../core/net/uip6.c:1579: for(uip_connr = &uip_conns[0]; uip_connr <= &uip_conns[UIP_CONNS - 1];
      001F96 A8 81            [24] 7074 	mov	r0,sp
      001F98 18               [12] 7075 	dec	r0
      001F99 18               [12] 7076 	dec	r0
      001F9A 76r0C            [12] 7077 	mov	@r0,#_uip_conns
      001F9C 08               [12] 7078 	inc	r0
      001F9D 76s01            [12] 7079 	mov	@r0,#(_uip_conns >> 8)
      001F9F 08               [12] 7080 	inc	r0
      001FA0 76 00            [12] 7081 	mov	@r0,#0x00
      001FA2 A8 81            [24] 7082 	mov	r0,sp
      001FA4 18               [12] 7083 	dec	r0
      001FA5 18               [12] 7084 	dec	r0
      001FA6 86 05            [24] 7085 	mov	ar5,@r0
      001FA8 08               [12] 7086 	inc	r0
      001FA9 86 06            [24] 7087 	mov	ar6,@r0
      001FAB 08               [12] 7088 	inc	r0
      001FAC 86 07            [24] 7089 	mov	ar7,@r0
      001FAE                       7090 00487$:
      001FAE C0 05            [24] 7091 	push	ar5
      001FB0 C0 06            [24] 7092 	push	ar6
      001FB2 C0 07            [24] 7093 	push	ar7
      001FB4 90r02rAA         [24] 7094 	mov	dptr,#(_uip_conns + 0x019e)
      001FB7 75 F0 00         [24] 7095 	mov	b,#0x00
      001FBA 12r00r00         [24] 7096 	lcall	___gptr_cmp
      001FBD 15 81            [12] 7097 	dec	sp
      001FBF 15 81            [12] 7098 	dec	sp
      001FC1 15 81            [12] 7099 	dec	sp
      001FC3 50 03            [24] 7100 	jnc	01275$
      001FC5 02r20rEC         [24] 7101 	ljmp	00307$
      001FC8                       7102 01275$:
                                   7103 ;	../../../../core/net/uip6.c:1581: if(uip_connr->tcpstateflags != UIP_CLOSED &&
      001FC8 74 25            [12] 7104 	mov	a,#0x25
      001FCA 2D               [12] 7105 	add	a,r5
      001FCB FA               [12] 7106 	mov	r2,a
      001FCC E4               [12] 7107 	clr	a
      001FCD 3E               [12] 7108 	addc	a,r6
      001FCE FB               [12] 7109 	mov	r3,a
      001FCF 8F 04            [24] 7110 	mov	ar4,r7
      001FD1 8A 82            [24] 7111 	mov	dpl,r2
      001FD3 8B 83            [24] 7112 	mov	dph,r3
      001FD5 8C F0            [24] 7113 	mov	b,r4
      001FD7 12r00r00         [24] 7114 	lcall	__gptrget
      001FDA 70 03            [24] 7115 	jnz	01276$
      001FDC 02r20rD6         [24] 7116 	ljmp	00488$
      001FDF                       7117 01276$:
                                   7118 ;	../../../../core/net/uip6.c:1582: UIP_TCP_BUF->destport == uip_connr->lport &&
      001FDF C0 02            [24] 7119 	push	ar2
      001FE1 C0 03            [24] 7120 	push	ar3
      001FE3 C0 04            [24] 7121 	push	ar4
      001FE5 7Br33            [12] 7122 	mov	r3,#(_uip_aligned_buf + 0x0028)
      001FE7 7Cs00            [12] 7123 	mov	r4,#((_uip_aligned_buf + 0x0028) >> 8)
      001FE9 8B 82            [24] 7124 	mov	dpl,r3
      001FEB 8C 83            [24] 7125 	mov	dph,r4
      001FED A3               [24] 7126 	inc	dptr
      001FEE A3               [24] 7127 	inc	dptr
      001FEF E5 81            [12] 7128 	mov	a,sp
      001FF1 24 F9            [12] 7129 	add	a,#0xf9
      001FF3 F8               [12] 7130 	mov	r0,a
      001FF4 E0               [24] 7131 	movx	a,@dptr
      001FF5 F6               [12] 7132 	mov	@r0,a
      001FF6 A3               [24] 7133 	inc	dptr
      001FF7 E0               [24] 7134 	movx	a,@dptr
      001FF8 08               [12] 7135 	inc	r0
      001FF9 F6               [12] 7136 	mov	@r0,a
      001FFA 74 10            [12] 7137 	mov	a,#0x10
      001FFC 2D               [12] 7138 	add	a,r5
      001FFD FA               [12] 7139 	mov	r2,a
      001FFE E4               [12] 7140 	clr	a
      001FFF 3E               [12] 7141 	addc	a,r6
      002000 FB               [12] 7142 	mov	r3,a
      002001 8F 04            [24] 7143 	mov	ar4,r7
      002003 8A 82            [24] 7144 	mov	dpl,r2
      002005 8B 83            [24] 7145 	mov	dph,r3
      002007 8C F0            [24] 7146 	mov	b,r4
      002009 12r00r00         [24] 7147 	lcall	__gptrget
      00200C FA               [12] 7148 	mov	r2,a
      00200D A3               [24] 7149 	inc	dptr
      00200E 12r00r00         [24] 7150 	lcall	__gptrget
      002011 FB               [12] 7151 	mov	r3,a
      002012 E5 81            [12] 7152 	mov	a,sp
      002014 24 F9            [12] 7153 	add	a,#0xf9
      002016 F8               [12] 7154 	mov	r0,a
      002017 E6               [12] 7155 	mov	a,@r0
      002018 B5 02 07         [24] 7156 	cjne	a,ar2,01277$
      00201B 08               [12] 7157 	inc	r0
      00201C E6               [12] 7158 	mov	a,@r0
      00201D B5 03 02         [24] 7159 	cjne	a,ar3,01277$
      002020 80 09            [24] 7160 	sjmp	01278$
      002022                       7161 01277$:
      002022 D0 04            [24] 7162 	pop	ar4
      002024 D0 03            [24] 7163 	pop	ar3
      002026 D0 02            [24] 7164 	pop	ar2
      002028 02r20rD6         [24] 7165 	ljmp	00488$
      00202B                       7166 01278$:
                                   7167 ;	../../../../core/net/uip6.c:1583: UIP_TCP_BUF->srcport == uip_connr->rport &&
      00202B 90r00r33         [24] 7168 	mov	dptr,#(_uip_aligned_buf + 0x0028)
      00202E E5 81            [12] 7169 	mov	a,sp
      002030 24 F9            [12] 7170 	add	a,#0xf9
      002032 F8               [12] 7171 	mov	r0,a
      002033 E0               [24] 7172 	movx	a,@dptr
      002034 F6               [12] 7173 	mov	@r0,a
      002035 A3               [24] 7174 	inc	dptr
      002036 E0               [24] 7175 	movx	a,@dptr
      002037 08               [12] 7176 	inc	r0
      002038 F6               [12] 7177 	mov	@r0,a
      002039 74 12            [12] 7178 	mov	a,#0x12
      00203B 2D               [12] 7179 	add	a,r5
      00203C FA               [12] 7180 	mov	r2,a
      00203D E4               [12] 7181 	clr	a
      00203E 3E               [12] 7182 	addc	a,r6
      00203F FB               [12] 7183 	mov	r3,a
      002040 8F 04            [24] 7184 	mov	ar4,r7
      002042 8A 82            [24] 7185 	mov	dpl,r2
      002044 8B 83            [24] 7186 	mov	dph,r3
      002046 8C F0            [24] 7187 	mov	b,r4
      002048 12r00r00         [24] 7188 	lcall	__gptrget
      00204B FA               [12] 7189 	mov	r2,a
      00204C A3               [24] 7190 	inc	dptr
      00204D 12r00r00         [24] 7191 	lcall	__gptrget
      002050 FB               [12] 7192 	mov	r3,a
      002051 E5 81            [12] 7193 	mov	a,sp
      002053 24 F9            [12] 7194 	add	a,#0xf9
      002055 F8               [12] 7195 	mov	r0,a
      002056 E6               [12] 7196 	mov	a,@r0
      002057 B5 02 07         [24] 7197 	cjne	a,ar2,01279$
      00205A 08               [12] 7198 	inc	r0
      00205B E6               [12] 7199 	mov	a,@r0
      00205C B5 03 02         [24] 7200 	cjne	a,ar3,01279$
      00205F 80 08            [24] 7201 	sjmp	01280$
      002061                       7202 01279$:
      002061 D0 04            [24] 7203 	pop	ar4
      002063 D0 03            [24] 7204 	pop	ar3
      002065 D0 02            [24] 7205 	pop	ar2
      002067 80 6D            [24] 7206 	sjmp	00488$
      002069                       7207 01280$:
                                   7208 ;	../../../../core/net/uip6.c:1584: uip_ipaddr_cmp(&UIP_IP_BUF->srcipaddr, &uip_connr->ripaddr)) {
      002069 8D 02            [24] 7209 	mov	ar2,r5
      00206B 8E 03            [24] 7210 	mov	ar3,r6
      00206D 8F 04            [24] 7211 	mov	ar4,r7
      00206F E5 81            [12] 7212 	mov	a,sp
      002071 24 F6            [12] 7213 	add	a,#0xf6
      002073 F8               [12] 7214 	mov	r0,a
      002074 A6 02            [24] 7215 	mov	@r0,ar2
      002076 08               [12] 7216 	inc	r0
      002077 A6 03            [24] 7217 	mov	@r0,ar3
      002079 08               [12] 7218 	inc	r0
      00207A A6 04            [24] 7219 	mov	@r0,ar4
      00207C 7Br0B            [12] 7220 	mov	r3,#_uip_aligned_buf
      00207E 7Cs00            [12] 7221 	mov	r4,#(_uip_aligned_buf >> 8)
      002080 74 08            [12] 7222 	mov	a,#0x08
      002082 2B               [12] 7223 	add	a,r3
      002083 FB               [12] 7224 	mov	r3,a
      002084 E4               [12] 7225 	clr	a
      002085 3C               [12] 7226 	addc	a,r4
      002086 FC               [12] 7227 	mov	r4,a
      002087 7A 00            [12] 7228 	mov	r2,#0x00
      002089 C0 07            [24] 7229 	push	ar7
      00208B C0 06            [24] 7230 	push	ar6
      00208D C0 05            [24] 7231 	push	ar5
      00208F C0 02            [24] 7232 	push	ar2
      002091 74 10            [12] 7233 	mov	a,#0x10
      002093 C0 E0            [24] 7234 	push	acc
      002095 E4               [12] 7235 	clr	a
      002096 C0 E0            [24] 7236 	push	acc
      002098 E5 81            [12] 7237 	mov	a,sp
      00209A 24 F0            [12] 7238 	add	a,#0xf0
      00209C F8               [12] 7239 	mov	r0,a
      00209D E6               [12] 7240 	mov	a,@r0
      00209E C0 E0            [24] 7241 	push	acc
      0020A0 08               [12] 7242 	inc	r0
      0020A1 E6               [12] 7243 	mov	a,@r0
      0020A2 C0 E0            [24] 7244 	push	acc
      0020A4 08               [12] 7245 	inc	r0
      0020A5 E6               [12] 7246 	mov	a,@r0
      0020A6 C0 E0            [24] 7247 	push	acc
      0020A8 8B 82            [24] 7248 	mov	dpl,r3
      0020AA 8C 83            [24] 7249 	mov	dph,r4
      0020AC 8A F0            [24] 7250 	mov	b,r2
      0020AE 78r00            [12] 7251 	mov	r0,#_memcmp
      0020B0 79s00            [12] 7252 	mov	r1,#(_memcmp >> 8)
      0020B2 7As00            [12] 7253 	mov	r2,#(_memcmp >> 16)
      0020B4 12r00r00         [24] 7254 	lcall	__sdcc_banked_call
      0020B7 AB 82            [24] 7255 	mov	r3,dpl
      0020B9 AC 83            [24] 7256 	mov	r4,dph
      0020BB E5 81            [12] 7257 	mov	a,sp
      0020BD 24 FB            [12] 7258 	add	a,#0xfb
      0020BF F5 81            [12] 7259 	mov	sp,a
      0020C1 D0 02            [24] 7260 	pop	ar2
      0020C3 D0 05            [24] 7261 	pop	ar5
      0020C5 D0 06            [24] 7262 	pop	ar6
      0020C7 D0 07            [24] 7263 	pop	ar7
      0020C9 EB               [12] 7264 	mov	a,r3
      0020CA 4C               [12] 7265 	orl	a,r4
      0020CB D0 04            [24] 7266 	pop	ar4
      0020CD D0 03            [24] 7267 	pop	ar3
      0020CF D0 02            [24] 7268 	pop	ar2
      0020D1 70 03            [24] 7269 	jnz	01281$
      0020D3 02r29r03         [24] 7270 	ljmp	00350$
      0020D6                       7271 01281$:
                                   7272 ;	../../../../core/net/uip6.c:1585: goto found;
      0020D6                       7273 00488$:
                                   7274 ;	../../../../core/net/uip6.c:1580: ++uip_connr) {
      0020D6 74 2E            [12] 7275 	mov	a,#0x2E
      0020D8 2D               [12] 7276 	add	a,r5
      0020D9 FD               [12] 7277 	mov	r5,a
      0020DA E4               [12] 7278 	clr	a
      0020DB 3E               [12] 7279 	addc	a,r6
      0020DC FE               [12] 7280 	mov	r6,a
      0020DD A8 81            [24] 7281 	mov	r0,sp
      0020DF 18               [12] 7282 	dec	r0
      0020E0 18               [12] 7283 	dec	r0
      0020E1 A6 05            [24] 7284 	mov	@r0,ar5
      0020E3 08               [12] 7285 	inc	r0
      0020E4 A6 06            [24] 7286 	mov	@r0,ar6
      0020E6 08               [12] 7287 	inc	r0
      0020E7 A6 07            [24] 7288 	mov	@r0,ar7
      0020E9 02r1FrAE         [24] 7289 	ljmp	00487$
      0020EC                       7290 00307$:
                                   7291 ;	../../../../core/net/uip6.c:1593: if((UIP_TCP_BUF->flags & TCP_CTL) != TCP_SYN) {
      0020EC 7Er33            [12] 7292 	mov	r6,#(_uip_aligned_buf + 0x0028)
      0020EE 7Fs00            [12] 7293 	mov	r7,#((_uip_aligned_buf + 0x0028) >> 8)
      0020F0 74 0D            [12] 7294 	mov	a,#0x0D
      0020F2 2E               [12] 7295 	add	a,r6
      0020F3 F5 82            [12] 7296 	mov	dpl,a
      0020F5 E4               [12] 7297 	clr	a
      0020F6 3F               [12] 7298 	addc	a,r7
      0020F7 F5 83            [12] 7299 	mov	dph,a
      0020F9 E0               [24] 7300 	movx	a,@dptr
      0020FA FF               [12] 7301 	mov	r7,a
      0020FB 53 07 3F         [24] 7302 	anl	ar7,#0x3F
      0020FE BF 02 4F         [24] 7303 	cjne	r7,#0x02,00313$
                                   7304 ;	../../../../core/net/uip6.c:1597: tmp16 = UIP_TCP_BUF->destport;
      002101 7Er33            [12] 7305 	mov	r6,#(_uip_aligned_buf + 0x0028)
      002103 7Fs00            [12] 7306 	mov	r7,#((_uip_aligned_buf + 0x0028) >> 8)
      002105 8E 82            [24] 7307 	mov	dpl,r6
      002107 8F 83            [24] 7308 	mov	dph,r7
      002109 A3               [24] 7309 	inc	dptr
      00210A A3               [24] 7310 	inc	dptr
      00210B E0               [24] 7311 	movx	a,@dptr
      00210C FC               [12] 7312 	mov	r4,a
      00210D A3               [24] 7313 	inc	dptr
      00210E E0               [24] 7314 	movx	a,@dptr
      00210F FB               [12] 7315 	mov	r3,a
      002110 90r03r09         [24] 7316 	mov	dptr,#_tmp16
      002113 EC               [12] 7317 	mov	a,r4
      002114 F0               [24] 7318 	movx	@dptr,a
      002115 EB               [12] 7319 	mov	a,r3
      002116 A3               [24] 7320 	inc	dptr
      002117 F0               [24] 7321 	movx	@dptr,a
                                   7322 ;	../../../../core/net/uip6.c:1599: for(c = 0; c < UIP_LISTENPORTS; ++c) {
      002118 90r01r09         [24] 7323 	mov	dptr,#_c
      00211B E4               [12] 7324 	clr	a
      00211C F0               [24] 7325 	movx	@dptr,a
      00211D                       7326 00489$:
                                   7327 ;	../../../../core/net/uip6.c:1600: if(tmp16 == uip_listenports[c]) {
      00211D 90r01r09         [24] 7328 	mov	dptr,#_c
      002120 E0               [24] 7329 	movx	a,@dptr
      002121 FD               [12] 7330 	mov	r5,a
      002122 75 F0 02         [24] 7331 	mov	b,#0x02
      002125 A4               [48] 7332 	mul	ab
      002126 24rD8            [12] 7333 	add	a,#_uip_listenports
      002128 F5 82            [12] 7334 	mov	dpl,a
      00212A 74s02            [12] 7335 	mov	a,#(_uip_listenports >> 8)
      00212C 35 F0            [12] 7336 	addc	a,b
      00212E F5 83            [12] 7337 	mov	dph,a
      002130 E0               [24] 7338 	movx	a,@dptr
      002131 FE               [12] 7339 	mov	r6,a
      002132 A3               [24] 7340 	inc	dptr
      002133 E0               [24] 7341 	movx	a,@dptr
      002134 FF               [12] 7342 	mov	r7,a
      002135 EC               [12] 7343 	mov	a,r4
      002136 B5 06 07         [24] 7344 	cjne	a,ar6,01284$
      002139 EB               [12] 7345 	mov	a,r3
      00213A B5 07 03         [24] 7346 	cjne	a,ar7,01284$
      00213D 02r23rA1         [24] 7347 	ljmp	00322$
      002140                       7348 01284$:
                                   7349 ;	../../../../core/net/uip6.c:1599: for(c = 0; c < UIP_LISTENPORTS; ++c) {
      002140 90r01r09         [24] 7350 	mov	dptr,#_c
      002143 ED               [12] 7351 	mov	a,r5
      002144 04               [12] 7352 	inc	a
      002145 F0               [24] 7353 	movx	@dptr,a
      002146 90r01r09         [24] 7354 	mov	dptr,#_c
      002149 E0               [24] 7355 	movx	a,@dptr
      00214A FF               [12] 7356 	mov	r7,a
      00214B BF 14 00         [24] 7357 	cjne	r7,#0x14,01285$
      00214E                       7358 01285$:
      00214E 40 CD            [24] 7359 	jc	00489$
                                   7360 ;	../../../../core/net/uip6.c:1608: reset:
      002150                       7361 00313$:
                                   7362 ;	../../../../core/net/uip6.c:1611: if(UIP_TCP_BUF->flags & TCP_RST) {
      002150 7Er33            [12] 7363 	mov	r6,#(_uip_aligned_buf + 0x0028)
      002152 7Fs00            [12] 7364 	mov	r7,#((_uip_aligned_buf + 0x0028) >> 8)
      002154 74 0D            [12] 7365 	mov	a,#0x0D
      002156 2E               [12] 7366 	add	a,r6
      002157 F5 82            [12] 7367 	mov	dpl,a
      002159 E4               [12] 7368 	clr	a
      00215A 3F               [12] 7369 	addc	a,r7
      00215B F5 83            [12] 7370 	mov	dph,a
      00215D E0               [24] 7371 	movx	a,@dptr
      00215E FF               [12] 7372 	mov	r7,a
      00215F 30 E2 03         [24] 7373 	jnb	acc.2,01287$
      002162 02r3Br87         [24] 7374 	ljmp	00482$
      002165                       7375 01287$:
                                   7376 ;	../../../../core/net/uip6.c:1617: UIP_TCP_BUF->flags = TCP_RST | TCP_ACK;
      002165 7Er33            [12] 7377 	mov	r6,#(_uip_aligned_buf + 0x0028)
      002167 7Fs00            [12] 7378 	mov	r7,#((_uip_aligned_buf + 0x0028) >> 8)
      002169 74 0D            [12] 7379 	mov	a,#0x0D
      00216B 2E               [12] 7380 	add	a,r6
      00216C F5 82            [12] 7381 	mov	dpl,a
      00216E E4               [12] 7382 	clr	a
      00216F 3F               [12] 7383 	addc	a,r7
      002170 F5 83            [12] 7384 	mov	dph,a
      002172 74 14            [12] 7385 	mov	a,#0x14
      002174 F0               [24] 7386 	movx	@dptr,a
                                   7387 ;	../../../../core/net/uip6.c:1618: uip_len = UIP_IPTCPH_LEN;
      002175 90r01r01         [24] 7388 	mov	dptr,#_uip_len
      002178 74 3C            [12] 7389 	mov	a,#0x3C
      00217A F0               [24] 7390 	movx	@dptr,a
      00217B E4               [12] 7391 	clr	a
      00217C A3               [24] 7392 	inc	dptr
      00217D F0               [24] 7393 	movx	@dptr,a
                                   7394 ;	../../../../core/net/uip6.c:1619: UIP_TCP_BUF->tcpoffset = 5 << 4;
      00217E 7Er33            [12] 7395 	mov	r6,#(_uip_aligned_buf + 0x0028)
      002180 7Fs00            [12] 7396 	mov	r7,#((_uip_aligned_buf + 0x0028) >> 8)
      002182 74 0C            [12] 7397 	mov	a,#0x0C
      002184 2E               [12] 7398 	add	a,r6
      002185 F5 82            [12] 7399 	mov	dpl,a
      002187 E4               [12] 7400 	clr	a
      002188 3F               [12] 7401 	addc	a,r7
      002189 F5 83            [12] 7402 	mov	dph,a
      00218B 74 50            [12] 7403 	mov	a,#0x50
      00218D F0               [24] 7404 	movx	@dptr,a
                                   7405 ;	../../../../core/net/uip6.c:1622: c = UIP_TCP_BUF->seqno[3];
      00218E 7Er33            [12] 7406 	mov	r6,#(_uip_aligned_buf + 0x0028)
      002190 7Fs00            [12] 7407 	mov	r7,#((_uip_aligned_buf + 0x0028) >> 8)
      002192 74 07            [12] 7408 	mov	a,#0x07
      002194 2E               [12] 7409 	add	a,r6
      002195 F5 82            [12] 7410 	mov	dpl,a
      002197 E4               [12] 7411 	clr	a
      002198 3F               [12] 7412 	addc	a,r7
      002199 F5 83            [12] 7413 	mov	dph,a
      00219B E0               [24] 7414 	movx	a,@dptr
      00219C FC               [12] 7415 	mov	r4,a
                                   7416 ;	../../../../core/net/uip6.c:1623: UIP_TCP_BUF->seqno[3] = UIP_TCP_BUF->ackno[3];
      00219D 7Dr33            [12] 7417 	mov	r5,#(_uip_aligned_buf + 0x0028)
      00219F 7Es00            [12] 7418 	mov	r6,#((_uip_aligned_buf + 0x0028) >> 8)
      0021A1 74 07            [12] 7419 	mov	a,#0x07
      0021A3 2D               [12] 7420 	add	a,r5
      0021A4 FD               [12] 7421 	mov	r5,a
      0021A5 E4               [12] 7422 	clr	a
      0021A6 3E               [12] 7423 	addc	a,r6
      0021A7 FB               [12] 7424 	mov	r3,a
      0021A8 7Er33            [12] 7425 	mov	r6,#(_uip_aligned_buf + 0x0028)
      0021AA 7Fs00            [12] 7426 	mov	r7,#((_uip_aligned_buf + 0x0028) >> 8)
      0021AC 74 0B            [12] 7427 	mov	a,#0x0B
      0021AE 2E               [12] 7428 	add	a,r6
      0021AF F5 82            [12] 7429 	mov	dpl,a
      0021B1 E4               [12] 7430 	clr	a
      0021B2 3F               [12] 7431 	addc	a,r7
      0021B3 F5 83            [12] 7432 	mov	dph,a
      0021B5 E0               [24] 7433 	movx	a,@dptr
      0021B6 8D 82            [24] 7434 	mov	dpl,r5
      0021B8 8B 83            [24] 7435 	mov	dph,r3
      0021BA F0               [24] 7436 	movx	@dptr,a
                                   7437 ;	../../../../core/net/uip6.c:1624: UIP_TCP_BUF->ackno[3] = c;
      0021BB 7Er33            [12] 7438 	mov	r6,#(_uip_aligned_buf + 0x0028)
      0021BD 7Fs00            [12] 7439 	mov	r7,#((_uip_aligned_buf + 0x0028) >> 8)
      0021BF 74 0B            [12] 7440 	mov	a,#0x0B
      0021C1 2E               [12] 7441 	add	a,r6
      0021C2 F5 82            [12] 7442 	mov	dpl,a
      0021C4 E4               [12] 7443 	clr	a
      0021C5 3F               [12] 7444 	addc	a,r7
      0021C6 F5 83            [12] 7445 	mov	dph,a
      0021C8 EC               [12] 7446 	mov	a,r4
      0021C9 F0               [24] 7447 	movx	@dptr,a
                                   7448 ;	../../../../core/net/uip6.c:1626: c = UIP_TCP_BUF->seqno[2];
      0021CA 7Er33            [12] 7449 	mov	r6,#(_uip_aligned_buf + 0x0028)
      0021CC 7Fs00            [12] 7450 	mov	r7,#((_uip_aligned_buf + 0x0028) >> 8)
      0021CE 74 06            [12] 7451 	mov	a,#0x06
      0021D0 2E               [12] 7452 	add	a,r6
      0021D1 F5 82            [12] 7453 	mov	dpl,a
      0021D3 E4               [12] 7454 	clr	a
      0021D4 3F               [12] 7455 	addc	a,r7
      0021D5 F5 83            [12] 7456 	mov	dph,a
      0021D7 E0               [24] 7457 	movx	a,@dptr
      0021D8 FC               [12] 7458 	mov	r4,a
                                   7459 ;	../../../../core/net/uip6.c:1627: UIP_TCP_BUF->seqno[2] = UIP_TCP_BUF->ackno[2];
      0021D9 7Dr33            [12] 7460 	mov	r5,#(_uip_aligned_buf + 0x0028)
      0021DB 7Es00            [12] 7461 	mov	r6,#((_uip_aligned_buf + 0x0028) >> 8)
      0021DD 74 06            [12] 7462 	mov	a,#0x06
      0021DF 2D               [12] 7463 	add	a,r5
      0021E0 FD               [12] 7464 	mov	r5,a
      0021E1 E4               [12] 7465 	clr	a
      0021E2 3E               [12] 7466 	addc	a,r6
      0021E3 FB               [12] 7467 	mov	r3,a
      0021E4 7Er33            [12] 7468 	mov	r6,#(_uip_aligned_buf + 0x0028)
      0021E6 7Fs00            [12] 7469 	mov	r7,#((_uip_aligned_buf + 0x0028) >> 8)
      0021E8 74 0A            [12] 7470 	mov	a,#0x0A
      0021EA 2E               [12] 7471 	add	a,r6
      0021EB F5 82            [12] 7472 	mov	dpl,a
      0021ED E4               [12] 7473 	clr	a
      0021EE 3F               [12] 7474 	addc	a,r7
      0021EF F5 83            [12] 7475 	mov	dph,a
      0021F1 E0               [24] 7476 	movx	a,@dptr
      0021F2 8D 82            [24] 7477 	mov	dpl,r5
      0021F4 8B 83            [24] 7478 	mov	dph,r3
      0021F6 F0               [24] 7479 	movx	@dptr,a
                                   7480 ;	../../../../core/net/uip6.c:1628: UIP_TCP_BUF->ackno[2] = c;
      0021F7 7Er33            [12] 7481 	mov	r6,#(_uip_aligned_buf + 0x0028)
      0021F9 7Fs00            [12] 7482 	mov	r7,#((_uip_aligned_buf + 0x0028) >> 8)
      0021FB 74 0A            [12] 7483 	mov	a,#0x0A
      0021FD 2E               [12] 7484 	add	a,r6
      0021FE F5 82            [12] 7485 	mov	dpl,a
      002200 E4               [12] 7486 	clr	a
      002201 3F               [12] 7487 	addc	a,r7
      002202 F5 83            [12] 7488 	mov	dph,a
      002204 EC               [12] 7489 	mov	a,r4
      002205 F0               [24] 7490 	movx	@dptr,a
                                   7491 ;	../../../../core/net/uip6.c:1630: c = UIP_TCP_BUF->seqno[1];
      002206 7Er33            [12] 7492 	mov	r6,#(_uip_aligned_buf + 0x0028)
      002208 7Fs00            [12] 7493 	mov	r7,#((_uip_aligned_buf + 0x0028) >> 8)
      00220A 8E 82            [24] 7494 	mov	dpl,r6
      00220C 8F 83            [24] 7495 	mov	dph,r7
      00220E A3               [24] 7496 	inc	dptr
      00220F A3               [24] 7497 	inc	dptr
      002210 A3               [24] 7498 	inc	dptr
      002211 A3               [24] 7499 	inc	dptr
      002212 A3               [24] 7500 	inc	dptr
      002213 E0               [24] 7501 	movx	a,@dptr
      002214 FC               [12] 7502 	mov	r4,a
                                   7503 ;	../../../../core/net/uip6.c:1631: UIP_TCP_BUF->seqno[1] = UIP_TCP_BUF->ackno[1];
      002215 7Dr33            [12] 7504 	mov	r5,#(_uip_aligned_buf + 0x0028)
      002217 7Es00            [12] 7505 	mov	r6,#((_uip_aligned_buf + 0x0028) >> 8)
      002219 74 05            [12] 7506 	mov	a,#0x05
      00221B 2D               [12] 7507 	add	a,r5
      00221C FD               [12] 7508 	mov	r5,a
      00221D E4               [12] 7509 	clr	a
      00221E 3E               [12] 7510 	addc	a,r6
      00221F FB               [12] 7511 	mov	r3,a
      002220 7Er33            [12] 7512 	mov	r6,#(_uip_aligned_buf + 0x0028)
      002222 7Fs00            [12] 7513 	mov	r7,#((_uip_aligned_buf + 0x0028) >> 8)
      002224 74 09            [12] 7514 	mov	a,#0x09
      002226 2E               [12] 7515 	add	a,r6
      002227 F5 82            [12] 7516 	mov	dpl,a
      002229 E4               [12] 7517 	clr	a
      00222A 3F               [12] 7518 	addc	a,r7
      00222B F5 83            [12] 7519 	mov	dph,a
      00222D E0               [24] 7520 	movx	a,@dptr
      00222E 8D 82            [24] 7521 	mov	dpl,r5
      002230 8B 83            [24] 7522 	mov	dph,r3
      002232 F0               [24] 7523 	movx	@dptr,a
                                   7524 ;	../../../../core/net/uip6.c:1632: UIP_TCP_BUF->ackno[1] = c;
      002233 7Er33            [12] 7525 	mov	r6,#(_uip_aligned_buf + 0x0028)
      002235 7Fs00            [12] 7526 	mov	r7,#((_uip_aligned_buf + 0x0028) >> 8)
      002237 74 09            [12] 7527 	mov	a,#0x09
      002239 2E               [12] 7528 	add	a,r6
      00223A F5 82            [12] 7529 	mov	dpl,a
      00223C E4               [12] 7530 	clr	a
      00223D 3F               [12] 7531 	addc	a,r7
      00223E F5 83            [12] 7532 	mov	dph,a
      002240 EC               [12] 7533 	mov	a,r4
      002241 F0               [24] 7534 	movx	@dptr,a
                                   7535 ;	../../../../core/net/uip6.c:1634: c = UIP_TCP_BUF->seqno[0];
      002242 7Er33            [12] 7536 	mov	r6,#(_uip_aligned_buf + 0x0028)
      002244 7Fs00            [12] 7537 	mov	r7,#((_uip_aligned_buf + 0x0028) >> 8)
      002246 8E 82            [24] 7538 	mov	dpl,r6
      002248 8F 83            [24] 7539 	mov	dph,r7
      00224A A3               [24] 7540 	inc	dptr
      00224B A3               [24] 7541 	inc	dptr
      00224C A3               [24] 7542 	inc	dptr
      00224D A3               [24] 7543 	inc	dptr
      00224E E0               [24] 7544 	movx	a,@dptr
      00224F FF               [12] 7545 	mov	r7,a
      002250 90r01r09         [24] 7546 	mov	dptr,#_c
      002253 F0               [24] 7547 	movx	@dptr,a
                                   7548 ;	../../../../core/net/uip6.c:1635: UIP_TCP_BUF->seqno[0] = UIP_TCP_BUF->ackno[0];
      002254 7Dr33            [12] 7549 	mov	r5,#(_uip_aligned_buf + 0x0028)
      002256 7Es00            [12] 7550 	mov	r6,#((_uip_aligned_buf + 0x0028) >> 8)
      002258 74 04            [12] 7551 	mov	a,#0x04
      00225A 2D               [12] 7552 	add	a,r5
      00225B FC               [12] 7553 	mov	r4,a
      00225C E4               [12] 7554 	clr	a
      00225D 3E               [12] 7555 	addc	a,r6
      00225E FB               [12] 7556 	mov	r3,a
      00225F 7Dr33            [12] 7557 	mov	r5,#(_uip_aligned_buf + 0x0028)
      002261 7Es00            [12] 7558 	mov	r6,#((_uip_aligned_buf + 0x0028) >> 8)
      002263 74 08            [12] 7559 	mov	a,#0x08
      002265 2D               [12] 7560 	add	a,r5
      002266 F5 82            [12] 7561 	mov	dpl,a
      002268 E4               [12] 7562 	clr	a
      002269 3E               [12] 7563 	addc	a,r6
      00226A F5 83            [12] 7564 	mov	dph,a
      00226C E0               [24] 7565 	movx	a,@dptr
      00226D 8C 82            [24] 7566 	mov	dpl,r4
      00226F 8B 83            [24] 7567 	mov	dph,r3
      002271 F0               [24] 7568 	movx	@dptr,a
                                   7569 ;	../../../../core/net/uip6.c:1636: UIP_TCP_BUF->ackno[0] = c;
      002272 7Dr33            [12] 7570 	mov	r5,#(_uip_aligned_buf + 0x0028)
      002274 7Es00            [12] 7571 	mov	r6,#((_uip_aligned_buf + 0x0028) >> 8)
      002276 74 08            [12] 7572 	mov	a,#0x08
      002278 2D               [12] 7573 	add	a,r5
      002279 F5 82            [12] 7574 	mov	dpl,a
      00227B E4               [12] 7575 	clr	a
      00227C 3E               [12] 7576 	addc	a,r6
      00227D F5 83            [12] 7577 	mov	dph,a
      00227F EF               [12] 7578 	mov	a,r7
      002280 F0               [24] 7579 	movx	@dptr,a
                                   7580 ;	../../../../core/net/uip6.c:1641: if(++UIP_TCP_BUF->ackno[3] == 0) {
      002281 7Er33            [12] 7581 	mov	r6,#(_uip_aligned_buf + 0x0028)
      002283 7Fs00            [12] 7582 	mov	r7,#((_uip_aligned_buf + 0x0028) >> 8)
      002285 74 0B            [12] 7583 	mov	a,#0x0B
      002287 2E               [12] 7584 	add	a,r6
      002288 FE               [12] 7585 	mov	r6,a
      002289 E4               [12] 7586 	clr	a
      00228A 3F               [12] 7587 	addc	a,r7
      00228B FF               [12] 7588 	mov	r7,a
      00228C 8E 82            [24] 7589 	mov	dpl,r6
      00228E 8F 83            [24] 7590 	mov	dph,r7
      002290 E0               [24] 7591 	movx	a,@dptr
      002291 FD               [12] 7592 	mov	r5,a
      002292 0D               [12] 7593 	inc	r5
      002293 8E 82            [24] 7594 	mov	dpl,r6
      002295 8F 83            [24] 7595 	mov	dph,r7
      002297 ED               [12] 7596 	mov	a,r5
      002298 F0               [24] 7597 	movx	@dptr,a
      002299 ED               [12] 7598 	mov	a,r5
      00229A 70 4E            [24] 7599 	jnz	00321$
                                   7600 ;	../../../../core/net/uip6.c:1642: if(++UIP_TCP_BUF->ackno[2] == 0) {
      00229C 7Er33            [12] 7601 	mov	r6,#(_uip_aligned_buf + 0x0028)
      00229E 7Fs00            [12] 7602 	mov	r7,#((_uip_aligned_buf + 0x0028) >> 8)
      0022A0 74 0A            [12] 7603 	mov	a,#0x0A
      0022A2 2E               [12] 7604 	add	a,r6
      0022A3 FE               [12] 7605 	mov	r6,a
      0022A4 E4               [12] 7606 	clr	a
      0022A5 3F               [12] 7607 	addc	a,r7
      0022A6 FF               [12] 7608 	mov	r7,a
      0022A7 8E 82            [24] 7609 	mov	dpl,r6
      0022A9 8F 83            [24] 7610 	mov	dph,r7
      0022AB E0               [24] 7611 	movx	a,@dptr
      0022AC FD               [12] 7612 	mov	r5,a
      0022AD 0D               [12] 7613 	inc	r5
      0022AE 8E 82            [24] 7614 	mov	dpl,r6
      0022B0 8F 83            [24] 7615 	mov	dph,r7
      0022B2 ED               [12] 7616 	mov	a,r5
      0022B3 F0               [24] 7617 	movx	@dptr,a
      0022B4 ED               [12] 7618 	mov	a,r5
      0022B5 70 33            [24] 7619 	jnz	00321$
                                   7620 ;	../../../../core/net/uip6.c:1643: if(++UIP_TCP_BUF->ackno[1] == 0) {
      0022B7 7Er33            [12] 7621 	mov	r6,#(_uip_aligned_buf + 0x0028)
      0022B9 7Fs00            [12] 7622 	mov	r7,#((_uip_aligned_buf + 0x0028) >> 8)
      0022BB 74 09            [12] 7623 	mov	a,#0x09
      0022BD 2E               [12] 7624 	add	a,r6
      0022BE FE               [12] 7625 	mov	r6,a
      0022BF E4               [12] 7626 	clr	a
      0022C0 3F               [12] 7627 	addc	a,r7
      0022C1 FF               [12] 7628 	mov	r7,a
      0022C2 8E 82            [24] 7629 	mov	dpl,r6
      0022C4 8F 83            [24] 7630 	mov	dph,r7
      0022C6 E0               [24] 7631 	movx	a,@dptr
      0022C7 FD               [12] 7632 	mov	r5,a
      0022C8 0D               [12] 7633 	inc	r5
      0022C9 8E 82            [24] 7634 	mov	dpl,r6
      0022CB 8F 83            [24] 7635 	mov	dph,r7
      0022CD ED               [12] 7636 	mov	a,r5
      0022CE F0               [24] 7637 	movx	@dptr,a
      0022CF ED               [12] 7638 	mov	a,r5
      0022D0 70 18            [24] 7639 	jnz	00321$
                                   7640 ;	../../../../core/net/uip6.c:1644: ++UIP_TCP_BUF->ackno[0];
      0022D2 7Er33            [12] 7641 	mov	r6,#(_uip_aligned_buf + 0x0028)
      0022D4 7Fs00            [12] 7642 	mov	r7,#((_uip_aligned_buf + 0x0028) >> 8)
      0022D6 74 08            [12] 7643 	mov	a,#0x08
      0022D8 2E               [12] 7644 	add	a,r6
      0022D9 FE               [12] 7645 	mov	r6,a
      0022DA E4               [12] 7646 	clr	a
      0022DB 3F               [12] 7647 	addc	a,r7
      0022DC FF               [12] 7648 	mov	r7,a
      0022DD 8E 82            [24] 7649 	mov	dpl,r6
      0022DF 8F 83            [24] 7650 	mov	dph,r7
      0022E1 E0               [24] 7651 	movx	a,@dptr
      0022E2 FD               [12] 7652 	mov	r5,a
      0022E3 0D               [12] 7653 	inc	r5
      0022E4 8E 82            [24] 7654 	mov	dpl,r6
      0022E6 8F 83            [24] 7655 	mov	dph,r7
      0022E8 ED               [12] 7656 	mov	a,r5
      0022E9 F0               [24] 7657 	movx	@dptr,a
      0022EA                       7658 00321$:
                                   7659 ;	../../../../core/net/uip6.c:1650: tmp16 = UIP_TCP_BUF->srcport;
      0022EA 90r00r33         [24] 7660 	mov	dptr,#(_uip_aligned_buf + 0x0028)
      0022ED E0               [24] 7661 	movx	a,@dptr
      0022EE FD               [12] 7662 	mov	r5,a
      0022EF A3               [24] 7663 	inc	dptr
      0022F0 E0               [24] 7664 	movx	a,@dptr
      0022F1 FC               [12] 7665 	mov	r4,a
      0022F2 90r03r09         [24] 7666 	mov	dptr,#_tmp16
      0022F5 ED               [12] 7667 	mov	a,r5
      0022F6 F0               [24] 7668 	movx	@dptr,a
      0022F7 EC               [12] 7669 	mov	a,r4
      0022F8 A3               [24] 7670 	inc	dptr
      0022F9 F0               [24] 7671 	movx	@dptr,a
                                   7672 ;	../../../../core/net/uip6.c:1651: UIP_TCP_BUF->srcport = UIP_TCP_BUF->destport;
      0022FA 7Br33            [12] 7673 	mov	r3,#(_uip_aligned_buf + 0x0028)
      0022FC 7As00            [12] 7674 	mov	r2,#((_uip_aligned_buf + 0x0028) >> 8)
      0022FE 7Er33            [12] 7675 	mov	r6,#(_uip_aligned_buf + 0x0028)
      002300 7Fs00            [12] 7676 	mov	r7,#((_uip_aligned_buf + 0x0028) >> 8)
      002302 8E 82            [24] 7677 	mov	dpl,r6
      002304 8F 83            [24] 7678 	mov	dph,r7
      002306 A3               [24] 7679 	inc	dptr
      002307 A3               [24] 7680 	inc	dptr
      002308 E0               [24] 7681 	movx	a,@dptr
      002309 FE               [12] 7682 	mov	r6,a
      00230A A3               [24] 7683 	inc	dptr
      00230B E0               [24] 7684 	movx	a,@dptr
      00230C FF               [12] 7685 	mov	r7,a
      00230D 8B 82            [24] 7686 	mov	dpl,r3
      00230F 8A 83            [24] 7687 	mov	dph,r2
      002311 EE               [12] 7688 	mov	a,r6
      002312 F0               [24] 7689 	movx	@dptr,a
      002313 EF               [12] 7690 	mov	a,r7
      002314 A3               [24] 7691 	inc	dptr
      002315 F0               [24] 7692 	movx	@dptr,a
                                   7693 ;	../../../../core/net/uip6.c:1652: UIP_TCP_BUF->destport = tmp16;
      002316 7Er33            [12] 7694 	mov	r6,#(_uip_aligned_buf + 0x0028)
      002318 7Fs00            [12] 7695 	mov	r7,#((_uip_aligned_buf + 0x0028) >> 8)
      00231A 8E 82            [24] 7696 	mov	dpl,r6
      00231C 8F 83            [24] 7697 	mov	dph,r7
      00231E A3               [24] 7698 	inc	dptr
      00231F A3               [24] 7699 	inc	dptr
      002320 ED               [12] 7700 	mov	a,r5
      002321 F0               [24] 7701 	movx	@dptr,a
      002322 EC               [12] 7702 	mov	a,r4
      002323 A3               [24] 7703 	inc	dptr
      002324 F0               [24] 7704 	movx	@dptr,a
                                   7705 ;	../../../../core/net/uip6.c:1655: uip_ipaddr_copy(&UIP_IP_BUF->destipaddr, &UIP_IP_BUF->srcipaddr);
      002325 7Er0B            [12] 7706 	mov	r6,#_uip_aligned_buf
      002327 7Fs00            [12] 7707 	mov	r7,#(_uip_aligned_buf >> 8)
      002329 74 08            [12] 7708 	mov	a,#0x08
      00232B 2E               [12] 7709 	add	a,r6
      00232C FE               [12] 7710 	mov	r6,a
      00232D E4               [12] 7711 	clr	a
      00232E 3F               [12] 7712 	addc	a,r7
      00232F FF               [12] 7713 	mov	r7,a
      002330 8E 04            [24] 7714 	mov	ar4,r6
      002332 8F 03            [24] 7715 	mov	ar3,r7
      002334 7A 00            [12] 7716 	mov	r2,#0x00
      002336 7Er0B            [12] 7717 	mov	r6,#_uip_aligned_buf
      002338 7Fs00            [12] 7718 	mov	r7,#(_uip_aligned_buf >> 8)
      00233A 74 18            [12] 7719 	mov	a,#0x18
      00233C 2E               [12] 7720 	add	a,r6
      00233D FE               [12] 7721 	mov	r6,a
      00233E E4               [12] 7722 	clr	a
      00233F 3F               [12] 7723 	addc	a,r7
      002340 FF               [12] 7724 	mov	r7,a
      002341 7D 00            [12] 7725 	mov	r5,#0x00
      002343 74 10            [12] 7726 	mov	a,#0x10
      002345 C0 E0            [24] 7727 	push	acc
      002347 E4               [12] 7728 	clr	a
      002348 C0 E0            [24] 7729 	push	acc
      00234A C0 04            [24] 7730 	push	ar4
      00234C C0 03            [24] 7731 	push	ar3
      00234E C0 02            [24] 7732 	push	ar2
      002350 8E 82            [24] 7733 	mov	dpl,r6
      002352 8F 83            [24] 7734 	mov	dph,r7
      002354 8D F0            [24] 7735 	mov	b,r5
      002356 78r00            [12] 7736 	mov	r0,#_memcpy
      002358 79s00            [12] 7737 	mov	r1,#(_memcpy >> 8)
      00235A 7As00            [12] 7738 	mov	r2,#(_memcpy >> 16)
      00235C 12r00r00         [24] 7739 	lcall	__sdcc_banked_call
      00235F E5 81            [12] 7740 	mov	a,sp
      002361 24 FB            [12] 7741 	add	a,#0xfb
      002363 F5 81            [12] 7742 	mov	sp,a
                                   7743 ;	../../../../core/net/uip6.c:1656: uip_ds6_select_src(&UIP_IP_BUF->srcipaddr, &UIP_IP_BUF->destipaddr);
      002365 7Er0B            [12] 7744 	mov	r6,#_uip_aligned_buf
      002367 7Fs00            [12] 7745 	mov	r7,#(_uip_aligned_buf >> 8)
      002369 74 18            [12] 7746 	mov	a,#0x18
      00236B 2E               [12] 7747 	add	a,r6
      00236C FE               [12] 7748 	mov	r6,a
      00236D E4               [12] 7749 	clr	a
      00236E 3F               [12] 7750 	addc	a,r7
      00236F FF               [12] 7751 	mov	r7,a
      002370 8E 04            [24] 7752 	mov	ar4,r6
      002372 8F 03            [24] 7753 	mov	ar3,r7
      002374 7A 00            [12] 7754 	mov	r2,#0x00
      002376 7Er0B            [12] 7755 	mov	r6,#_uip_aligned_buf
      002378 7Fs00            [12] 7756 	mov	r7,#(_uip_aligned_buf >> 8)
      00237A 74 08            [12] 7757 	mov	a,#0x08
      00237C 2E               [12] 7758 	add	a,r6
      00237D FE               [12] 7759 	mov	r6,a
      00237E E4               [12] 7760 	clr	a
      00237F 3F               [12] 7761 	addc	a,r7
      002380 FF               [12] 7762 	mov	r7,a
      002381 7D 00            [12] 7763 	mov	r5,#0x00
      002383 C0 04            [24] 7764 	push	ar4
      002385 C0 03            [24] 7765 	push	ar3
      002387 C0 02            [24] 7766 	push	ar2
      002389 8E 82            [24] 7767 	mov	dpl,r6
      00238B 8F 83            [24] 7768 	mov	dph,r7
      00238D 8D F0            [24] 7769 	mov	b,r5
      00238F 78r00            [12] 7770 	mov	r0,#_uip_ds6_select_src
      002391 79s00            [12] 7771 	mov	r1,#(_uip_ds6_select_src >> 8)
      002393 7As00            [12] 7772 	mov	r2,#(_uip_ds6_select_src >> 16)
      002395 12r00r00         [24] 7773 	lcall	__sdcc_banked_call
      002398 15 81            [12] 7774 	dec	sp
      00239A 15 81            [12] 7775 	dec	sp
      00239C 15 81            [12] 7776 	dec	sp
                                   7777 ;	../../../../core/net/uip6.c:1658: goto tcp_send_noconn;
      00239E 02r3ArB3         [24] 7778 	ljmp	00479$
                                   7779 ;	../../../../core/net/uip6.c:1663: found_listen:
      0023A1                       7780 00322$:
                                   7781 ;	../../../../core/net/uip6.c:1671: uip_connr = 0;
      0023A1 A8 81            [24] 7782 	mov	r0,sp
      0023A3 18               [12] 7783 	dec	r0
      0023A4 18               [12] 7784 	dec	r0
      0023A5 E4               [12] 7785 	clr	a
      0023A6 F6               [12] 7786 	mov	@r0,a
      0023A7 08               [12] 7787 	inc	r0
      0023A8 F6               [12] 7788 	mov	@r0,a
      0023A9 08               [12] 7789 	inc	r0
      0023AA 76 00            [12] 7790 	mov	@r0,#0x00
                                   7791 ;	../../../../core/net/uip6.c:1672: for(c = 0; c < UIP_CONNS; ++c) {
      0023AC 90r01r09         [24] 7792 	mov	dptr,#_c
      0023AF E4               [12] 7793 	clr	a
      0023B0 F0               [24] 7794 	movx	@dptr,a
      0023B1                       7795 00491$:
                                   7796 ;	../../../../core/net/uip6.c:1673: if(uip_conns[c].tcpstateflags == UIP_CLOSED) {
      0023B1 90r01r09         [24] 7797 	mov	dptr,#_c
      0023B4 E0               [24] 7798 	movx	a,@dptr
      0023B5 FF               [12] 7799 	mov	r7,a
      0023B6 75 F0 2E         [24] 7800 	mov	b,#0x2E
      0023B9 A4               [48] 7801 	mul	ab
      0023BA 24r0C            [12] 7802 	add	a,#_uip_conns
      0023BC FC               [12] 7803 	mov	r4,a
      0023BD 74s01            [12] 7804 	mov	a,#(_uip_conns >> 8)
      0023BF 35 F0            [12] 7805 	addc	a,b
      0023C1 FB               [12] 7806 	mov	r3,a
      0023C2 74 25            [12] 7807 	mov	a,#0x25
      0023C4 2C               [12] 7808 	add	a,r4
      0023C5 F5 82            [12] 7809 	mov	dpl,a
      0023C7 E4               [12] 7810 	clr	a
      0023C8 3B               [12] 7811 	addc	a,r3
      0023C9 F5 83            [12] 7812 	mov	dph,a
      0023CB E0               [24] 7813 	movx	a,@dptr
      0023CC FD               [12] 7814 	mov	r5,a
      0023CD 70 12            [24] 7815 	jnz	00324$
                                   7816 ;	../../../../core/net/uip6.c:1674: uip_connr = &uip_conns[c];
      0023CF 8C 06            [24] 7817 	mov	ar6,r4
      0023D1 8B 07            [24] 7818 	mov	ar7,r3
      0023D3 A8 81            [24] 7819 	mov	r0,sp
      0023D5 18               [12] 7820 	dec	r0
      0023D6 18               [12] 7821 	dec	r0
      0023D7 A6 06            [24] 7822 	mov	@r0,ar6
      0023D9 08               [12] 7823 	inc	r0
      0023DA A6 07            [24] 7824 	mov	@r0,ar7
      0023DC 08               [12] 7825 	inc	r0
      0023DD 76 00            [12] 7826 	mov	@r0,#0x00
                                   7827 ;	../../../../core/net/uip6.c:1675: break;
      0023DF 80 64            [24] 7828 	sjmp	00330$
      0023E1                       7829 00324$:
                                   7830 ;	../../../../core/net/uip6.c:1677: if(uip_conns[c].tcpstateflags == UIP_TIME_WAIT) {
      0023E1 BD 07 4D         [24] 7831 	cjne	r5,#0x07,00492$
                                   7832 ;	../../../../core/net/uip6.c:1678: if(uip_connr == 0 ||
      0023E4 A8 81            [24] 7833 	mov	r0,sp
      0023E6 18               [12] 7834 	dec	r0
      0023E7 18               [12] 7835 	dec	r0
      0023E8 E6               [12] 7836 	mov	a,@r0
      0023E9 08               [12] 7837 	inc	r0
      0023EA 46               [12] 7838 	orl	a,@r0
      0023EB 60 28            [24] 7839 	jz	00325$
                                   7840 ;	../../../../core/net/uip6.c:1679: uip_conns[c].timer > uip_connr->timer) {
      0023ED 74 26            [12] 7841 	mov	a,#0x26
      0023EF 2C               [12] 7842 	add	a,r4
      0023F0 F5 82            [12] 7843 	mov	dpl,a
      0023F2 E4               [12] 7844 	clr	a
      0023F3 3B               [12] 7845 	addc	a,r3
      0023F4 F5 83            [12] 7846 	mov	dph,a
      0023F6 E0               [24] 7847 	movx	a,@dptr
      0023F7 FC               [12] 7848 	mov	r4,a
      0023F8 A8 81            [24] 7849 	mov	r0,sp
      0023FA 18               [12] 7850 	dec	r0
      0023FB 18               [12] 7851 	dec	r0
      0023FC 74 26            [12] 7852 	mov	a,#0x26
      0023FE 26               [12] 7853 	add	a,@r0
      0023FF FD               [12] 7854 	mov	r5,a
      002400 E4               [12] 7855 	clr	a
      002401 08               [12] 7856 	inc	r0
      002402 36               [12] 7857 	addc	a,@r0
      002403 FE               [12] 7858 	mov	r6,a
      002404 08               [12] 7859 	inc	r0
      002405 86 07            [24] 7860 	mov	ar7,@r0
      002407 8D 82            [24] 7861 	mov	dpl,r5
      002409 8E 83            [24] 7862 	mov	dph,r6
      00240B 8F F0            [24] 7863 	mov	b,r7
      00240D 12r00r00         [24] 7864 	lcall	__gptrget
      002410 FD               [12] 7865 	mov	r5,a
      002411 C3               [12] 7866 	clr	c
      002412 9C               [12] 7867 	subb	a,r4
      002413 50 1C            [24] 7868 	jnc	00492$
      002415                       7869 00325$:
                                   7870 ;	../../../../core/net/uip6.c:1680: uip_connr = &uip_conns[c];
      002415 90r01r09         [24] 7871 	mov	dptr,#_c
      002418 E0               [24] 7872 	movx	a,@dptr
      002419 75 F0 2E         [24] 7873 	mov	b,#0x2E
      00241C A4               [48] 7874 	mul	ab
      00241D 24r0C            [12] 7875 	add	a,#_uip_conns
      00241F FE               [12] 7876 	mov	r6,a
      002420 74s01            [12] 7877 	mov	a,#(_uip_conns >> 8)
      002422 35 F0            [12] 7878 	addc	a,b
      002424 FF               [12] 7879 	mov	r7,a
      002425 A8 81            [24] 7880 	mov	r0,sp
      002427 18               [12] 7881 	dec	r0
      002428 18               [12] 7882 	dec	r0
      002429 A6 06            [24] 7883 	mov	@r0,ar6
      00242B 08               [12] 7884 	inc	r0
      00242C A6 07            [24] 7885 	mov	@r0,ar7
      00242E 08               [12] 7886 	inc	r0
      00242F 76 00            [12] 7887 	mov	@r0,#0x00
      002431                       7888 00492$:
                                   7889 ;	../../../../core/net/uip6.c:1672: for(c = 0; c < UIP_CONNS; ++c) {
      002431 90r01r09         [24] 7890 	mov	dptr,#_c
      002434 E0               [24] 7891 	movx	a,@dptr
      002435 24 01            [12] 7892 	add	a,#0x01
      002437 F0               [24] 7893 	movx	@dptr,a
      002438 90r01r09         [24] 7894 	mov	dptr,#_c
      00243B E0               [24] 7895 	movx	a,@dptr
      00243C FF               [12] 7896 	mov	r7,a
      00243D BF 0A 00         [24] 7897 	cjne	r7,#0x0A,01296$
      002440                       7898 01296$:
      002440 50 03            [24] 7899 	jnc	01297$
      002442 02r23rB1         [24] 7900 	ljmp	00491$
      002445                       7901 01297$:
      002445                       7902 00330$:
                                   7903 ;	../../../../core/net/uip6.c:1685: if(uip_connr == 0) {
      002445 A8 81            [24] 7904 	mov	r0,sp
      002447 18               [12] 7905 	dec	r0
      002448 18               [12] 7906 	dec	r0
      002449 E6               [12] 7907 	mov	a,@r0
      00244A 08               [12] 7908 	inc	r0
      00244B 46               [12] 7909 	orl	a,@r0
      00244C 70 03            [24] 7910 	jnz	01298$
      00244E 02r3Br87         [24] 7911 	ljmp	00482$
      002451                       7912 01298$:
                                   7913 ;	../../../../core/net/uip6.c:1693: uip_conn = uip_connr;
      002451 A8 81            [24] 7914 	mov	r0,sp
      002453 18               [12] 7915 	dec	r0
      002454 18               [12] 7916 	dec	r0
      002455 90r01r06         [24] 7917 	mov	dptr,#_uip_conn
      002458 E6               [12] 7918 	mov	a,@r0
      002459 F0               [24] 7919 	movx	@dptr,a
      00245A 08               [12] 7920 	inc	r0
      00245B E6               [12] 7921 	mov	a,@r0
      00245C A3               [24] 7922 	inc	dptr
      00245D F0               [24] 7923 	movx	@dptr,a
      00245E 08               [12] 7924 	inc	r0
      00245F E6               [12] 7925 	mov	a,@r0
      002460 A3               [24] 7926 	inc	dptr
      002461 F0               [24] 7927 	movx	@dptr,a
                                   7928 ;	../../../../core/net/uip6.c:1696: uip_connr->rto = uip_connr->timer = UIP_RTO;
      002462 A8 81            [24] 7929 	mov	r0,sp
      002464 18               [12] 7930 	dec	r0
      002465 18               [12] 7931 	dec	r0
      002466 74 24            [12] 7932 	mov	a,#0x24
      002468 26               [12] 7933 	add	a,@r0
      002469 FC               [12] 7934 	mov	r4,a
      00246A E4               [12] 7935 	clr	a
      00246B 08               [12] 7936 	inc	r0
      00246C 36               [12] 7937 	addc	a,@r0
      00246D FB               [12] 7938 	mov	r3,a
      00246E 08               [12] 7939 	inc	r0
      00246F 86 02            [24] 7940 	mov	ar2,@r0
      002471 A8 81            [24] 7941 	mov	r0,sp
      002473 18               [12] 7942 	dec	r0
      002474 18               [12] 7943 	dec	r0
      002475 74 26            [12] 7944 	mov	a,#0x26
      002477 26               [12] 7945 	add	a,@r0
      002478 FD               [12] 7946 	mov	r5,a
      002479 E4               [12] 7947 	clr	a
      00247A 08               [12] 7948 	inc	r0
      00247B 36               [12] 7949 	addc	a,@r0
      00247C FE               [12] 7950 	mov	r6,a
      00247D 08               [12] 7951 	inc	r0
      00247E 86 07            [24] 7952 	mov	ar7,@r0
      002480 8D 82            [24] 7953 	mov	dpl,r5
      002482 8E 83            [24] 7954 	mov	dph,r6
      002484 8F F0            [24] 7955 	mov	b,r7
      002486 74 03            [12] 7956 	mov	a,#0x03
      002488 12r00r00         [24] 7957 	lcall	__gptrput
      00248B 8C 82            [24] 7958 	mov	dpl,r4
      00248D 8B 83            [24] 7959 	mov	dph,r3
      00248F 8A F0            [24] 7960 	mov	b,r2
      002491 74 03            [12] 7961 	mov	a,#0x03
      002493 12r00r00         [24] 7962 	lcall	__gptrput
                                   7963 ;	../../../../core/net/uip6.c:1697: uip_connr->sa = 0;
      002496 A8 81            [24] 7964 	mov	r0,sp
      002498 18               [12] 7965 	dec	r0
      002499 18               [12] 7966 	dec	r0
      00249A 74 22            [12] 7967 	mov	a,#0x22
      00249C 26               [12] 7968 	add	a,@r0
      00249D FD               [12] 7969 	mov	r5,a
      00249E E4               [12] 7970 	clr	a
      00249F 08               [12] 7971 	inc	r0
      0024A0 36               [12] 7972 	addc	a,@r0
      0024A1 FE               [12] 7973 	mov	r6,a
      0024A2 08               [12] 7974 	inc	r0
      0024A3 86 07            [24] 7975 	mov	ar7,@r0
      0024A5 8D 82            [24] 7976 	mov	dpl,r5
      0024A7 8E 83            [24] 7977 	mov	dph,r6
      0024A9 8F F0            [24] 7978 	mov	b,r7
      0024AB E4               [12] 7979 	clr	a
      0024AC 12r00r00         [24] 7980 	lcall	__gptrput
                                   7981 ;	../../../../core/net/uip6.c:1698: uip_connr->sv = 4;
      0024AF A8 81            [24] 7982 	mov	r0,sp
      0024B1 18               [12] 7983 	dec	r0
      0024B2 18               [12] 7984 	dec	r0
      0024B3 74 23            [12] 7985 	mov	a,#0x23
      0024B5 26               [12] 7986 	add	a,@r0
      0024B6 FD               [12] 7987 	mov	r5,a
      0024B7 E4               [12] 7988 	clr	a
      0024B8 08               [12] 7989 	inc	r0
      0024B9 36               [12] 7990 	addc	a,@r0
      0024BA FE               [12] 7991 	mov	r6,a
      0024BB 08               [12] 7992 	inc	r0
      0024BC 86 07            [24] 7993 	mov	ar7,@r0
      0024BE 8D 82            [24] 7994 	mov	dpl,r5
      0024C0 8E 83            [24] 7995 	mov	dph,r6
      0024C2 8F F0            [24] 7996 	mov	b,r7
      0024C4 74 04            [12] 7997 	mov	a,#0x04
      0024C6 12r00r00         [24] 7998 	lcall	__gptrput
                                   7999 ;	../../../../core/net/uip6.c:1699: uip_connr->nrtx = 0;
      0024C9 A8 81            [24] 8000 	mov	r0,sp
      0024CB 18               [12] 8001 	dec	r0
      0024CC 18               [12] 8002 	dec	r0
      0024CD 74 27            [12] 8003 	mov	a,#0x27
      0024CF 26               [12] 8004 	add	a,@r0
      0024D0 FD               [12] 8005 	mov	r5,a
      0024D1 E4               [12] 8006 	clr	a
      0024D2 08               [12] 8007 	inc	r0
      0024D3 36               [12] 8008 	addc	a,@r0
      0024D4 FE               [12] 8009 	mov	r6,a
      0024D5 08               [12] 8010 	inc	r0
      0024D6 86 07            [24] 8011 	mov	ar7,@r0
      0024D8 8D 82            [24] 8012 	mov	dpl,r5
      0024DA 8E 83            [24] 8013 	mov	dph,r6
      0024DC 8F F0            [24] 8014 	mov	b,r7
      0024DE E4               [12] 8015 	clr	a
      0024DF 12r00r00         [24] 8016 	lcall	__gptrput
                                   8017 ;	../../../../core/net/uip6.c:1700: uip_connr->lport = UIP_TCP_BUF->destport;
      0024E2 A8 81            [24] 8018 	mov	r0,sp
      0024E4 18               [12] 8019 	dec	r0
      0024E5 18               [12] 8020 	dec	r0
      0024E6 74 10            [12] 8021 	mov	a,#0x10
      0024E8 26               [12] 8022 	add	a,@r0
      0024E9 FD               [12] 8023 	mov	r5,a
      0024EA E4               [12] 8024 	clr	a
      0024EB 08               [12] 8025 	inc	r0
      0024EC 36               [12] 8026 	addc	a,@r0
      0024ED FC               [12] 8027 	mov	r4,a
      0024EE 08               [12] 8028 	inc	r0
      0024EF 86 03            [24] 8029 	mov	ar3,@r0
      0024F1 7Er33            [12] 8030 	mov	r6,#(_uip_aligned_buf + 0x0028)
      0024F3 7Fs00            [12] 8031 	mov	r7,#((_uip_aligned_buf + 0x0028) >> 8)
      0024F5 8E 82            [24] 8032 	mov	dpl,r6
      0024F7 8F 83            [24] 8033 	mov	dph,r7
      0024F9 A3               [24] 8034 	inc	dptr
      0024FA A3               [24] 8035 	inc	dptr
      0024FB E0               [24] 8036 	movx	a,@dptr
      0024FC FE               [12] 8037 	mov	r6,a
      0024FD A3               [24] 8038 	inc	dptr
      0024FE E0               [24] 8039 	movx	a,@dptr
      0024FF FF               [12] 8040 	mov	r7,a
      002500 8D 82            [24] 8041 	mov	dpl,r5
      002502 8C 83            [24] 8042 	mov	dph,r4
      002504 8B F0            [24] 8043 	mov	b,r3
      002506 EE               [12] 8044 	mov	a,r6
      002507 12r00r00         [24] 8045 	lcall	__gptrput
      00250A A3               [24] 8046 	inc	dptr
      00250B EF               [12] 8047 	mov	a,r7
      00250C 12r00r00         [24] 8048 	lcall	__gptrput
                                   8049 ;	../../../../core/net/uip6.c:1701: uip_connr->rport = UIP_TCP_BUF->srcport;
      00250F A8 81            [24] 8050 	mov	r0,sp
      002511 18               [12] 8051 	dec	r0
      002512 18               [12] 8052 	dec	r0
      002513 74 12            [12] 8053 	mov	a,#0x12
      002515 26               [12] 8054 	add	a,@r0
      002516 FD               [12] 8055 	mov	r5,a
      002517 E4               [12] 8056 	clr	a
      002518 08               [12] 8057 	inc	r0
      002519 36               [12] 8058 	addc	a,@r0
      00251A FC               [12] 8059 	mov	r4,a
      00251B 08               [12] 8060 	inc	r0
      00251C 86 03            [24] 8061 	mov	ar3,@r0
      00251E 90r00r33         [24] 8062 	mov	dptr,#(_uip_aligned_buf + 0x0028)
      002521 E0               [24] 8063 	movx	a,@dptr
      002522 FE               [12] 8064 	mov	r6,a
      002523 A3               [24] 8065 	inc	dptr
      002524 E0               [24] 8066 	movx	a,@dptr
      002525 FF               [12] 8067 	mov	r7,a
      002526 8D 82            [24] 8068 	mov	dpl,r5
      002528 8C 83            [24] 8069 	mov	dph,r4
      00252A 8B F0            [24] 8070 	mov	b,r3
      00252C EE               [12] 8071 	mov	a,r6
      00252D 12r00r00         [24] 8072 	lcall	__gptrput
      002530 A3               [24] 8073 	inc	dptr
      002531 EF               [12] 8074 	mov	a,r7
      002532 12r00r00         [24] 8075 	lcall	__gptrput
                                   8076 ;	../../../../core/net/uip6.c:1702: uip_ipaddr_copy(&uip_connr->ripaddr, &UIP_IP_BUF->srcipaddr);
      002535 7Er0B            [12] 8077 	mov	r6,#_uip_aligned_buf
      002537 7Fs00            [12] 8078 	mov	r7,#(_uip_aligned_buf >> 8)
      002539 74 08            [12] 8079 	mov	a,#0x08
      00253B 2E               [12] 8080 	add	a,r6
      00253C FE               [12] 8081 	mov	r6,a
      00253D E4               [12] 8082 	clr	a
      00253E 3F               [12] 8083 	addc	a,r7
      00253F FF               [12] 8084 	mov	r7,a
      002540 8E 04            [24] 8085 	mov	ar4,r6
      002542 8F 03            [24] 8086 	mov	ar3,r7
      002544 7A 00            [12] 8087 	mov	r2,#0x00
      002546 A8 81            [24] 8088 	mov	r0,sp
      002548 18               [12] 8089 	dec	r0
      002549 18               [12] 8090 	dec	r0
      00254A 86 05            [24] 8091 	mov	ar5,@r0
      00254C 08               [12] 8092 	inc	r0
      00254D 86 06            [24] 8093 	mov	ar6,@r0
      00254F 08               [12] 8094 	inc	r0
      002550 86 07            [24] 8095 	mov	ar7,@r0
      002552 74 10            [12] 8096 	mov	a,#0x10
      002554 C0 E0            [24] 8097 	push	acc
      002556 E4               [12] 8098 	clr	a
      002557 C0 E0            [24] 8099 	push	acc
      002559 C0 04            [24] 8100 	push	ar4
      00255B C0 03            [24] 8101 	push	ar3
      00255D C0 02            [24] 8102 	push	ar2
      00255F 8D 82            [24] 8103 	mov	dpl,r5
      002561 8E 83            [24] 8104 	mov	dph,r6
      002563 8F F0            [24] 8105 	mov	b,r7
      002565 78r00            [12] 8106 	mov	r0,#_memcpy
      002567 79s00            [12] 8107 	mov	r1,#(_memcpy >> 8)
      002569 7As00            [12] 8108 	mov	r2,#(_memcpy >> 16)
      00256B 12r00r00         [24] 8109 	lcall	__sdcc_banked_call
      00256E E5 81            [12] 8110 	mov	a,sp
      002570 24 FB            [12] 8111 	add	a,#0xfb
      002572 F5 81            [12] 8112 	mov	sp,a
                                   8113 ;	../../../../core/net/uip6.c:1703: uip_connr->tcpstateflags = UIP_SYN_RCVD;
      002574 A8 81            [24] 8114 	mov	r0,sp
      002576 18               [12] 8115 	dec	r0
      002577 18               [12] 8116 	dec	r0
      002578 74 25            [12] 8117 	mov	a,#0x25
      00257A 26               [12] 8118 	add	a,@r0
      00257B FD               [12] 8119 	mov	r5,a
      00257C E4               [12] 8120 	clr	a
      00257D 08               [12] 8121 	inc	r0
      00257E 36               [12] 8122 	addc	a,@r0
      00257F FE               [12] 8123 	mov	r6,a
      002580 08               [12] 8124 	inc	r0
      002581 86 07            [24] 8125 	mov	ar7,@r0
      002583 8D 82            [24] 8126 	mov	dpl,r5
      002585 8E 83            [24] 8127 	mov	dph,r6
      002587 8F F0            [24] 8128 	mov	b,r7
      002589 74 01            [12] 8129 	mov	a,#0x01
      00258B 12r00r00         [24] 8130 	lcall	__gptrput
                                   8131 ;	../../../../core/net/uip6.c:1705: uip_connr->snd_nxt[0] = iss[0];
      00258E A8 81            [24] 8132 	mov	r0,sp
      002590 18               [12] 8133 	dec	r0
      002591 18               [12] 8134 	dec	r0
      002592 74 18            [12] 8135 	mov	a,#0x18
      002594 26               [12] 8136 	add	a,@r0
      002595 FE               [12] 8137 	mov	r6,a
      002596 E4               [12] 8138 	clr	a
      002597 08               [12] 8139 	inc	r0
      002598 36               [12] 8140 	addc	a,@r0
      002599 FD               [12] 8141 	mov	r5,a
      00259A 08               [12] 8142 	inc	r0
      00259B 86 04            [24] 8143 	mov	ar4,@r0
      00259D 90r03r00         [24] 8144 	mov	dptr,#_iss
      0025A0 E0               [24] 8145 	movx	a,@dptr
      0025A1 8E 82            [24] 8146 	mov	dpl,r6
      0025A3 8D 83            [24] 8147 	mov	dph,r5
      0025A5 8C F0            [24] 8148 	mov	b,r4
      0025A7 12r00r00         [24] 8149 	lcall	__gptrput
                                   8150 ;	../../../../core/net/uip6.c:1706: uip_connr->snd_nxt[1] = iss[1];
      0025AA A8 81            [24] 8151 	mov	r0,sp
      0025AC 18               [12] 8152 	dec	r0
      0025AD 18               [12] 8153 	dec	r0
      0025AE 74 18            [12] 8154 	mov	a,#0x18
      0025B0 26               [12] 8155 	add	a,@r0
      0025B1 FE               [12] 8156 	mov	r6,a
      0025B2 E4               [12] 8157 	clr	a
      0025B3 08               [12] 8158 	inc	r0
      0025B4 36               [12] 8159 	addc	a,@r0
      0025B5 FD               [12] 8160 	mov	r5,a
      0025B6 08               [12] 8161 	inc	r0
      0025B7 86 04            [24] 8162 	mov	ar4,@r0
      0025B9 E5 81            [12] 8163 	mov	a,sp
      0025BB 24 F6            [12] 8164 	add	a,#0xf6
      0025BD F8               [12] 8165 	mov	r0,a
      0025BE 74 01            [12] 8166 	mov	a,#0x01
      0025C0 2E               [12] 8167 	add	a,r6
      0025C1 F6               [12] 8168 	mov	@r0,a
      0025C2 E4               [12] 8169 	clr	a
      0025C3 3D               [12] 8170 	addc	a,r5
      0025C4 08               [12] 8171 	inc	r0
      0025C5 F6               [12] 8172 	mov	@r0,a
      0025C6 08               [12] 8173 	inc	r0
      0025C7 A6 04            [24] 8174 	mov	@r0,ar4
      0025C9 90r03r01         [24] 8175 	mov	dptr,#(_iss + 0x0001)
      0025CC E0               [24] 8176 	movx	a,@dptr
      0025CD FF               [12] 8177 	mov	r7,a
      0025CE E5 81            [12] 8178 	mov	a,sp
      0025D0 24 F6            [12] 8179 	add	a,#0xf6
      0025D2 F8               [12] 8180 	mov	r0,a
      0025D3 86 82            [24] 8181 	mov	dpl,@r0
      0025D5 08               [12] 8182 	inc	r0
      0025D6 86 83            [24] 8183 	mov	dph,@r0
      0025D8 08               [12] 8184 	inc	r0
      0025D9 86 F0            [24] 8185 	mov	b,@r0
      0025DB EF               [12] 8186 	mov	a,r7
      0025DC 12r00r00         [24] 8187 	lcall	__gptrput
                                   8188 ;	../../../../core/net/uip6.c:1707: uip_connr->snd_nxt[2] = iss[2];
      0025DF E5 81            [12] 8189 	mov	a,sp
      0025E1 24 F6            [12] 8190 	add	a,#0xf6
      0025E3 F8               [12] 8191 	mov	r0,a
      0025E4 74 02            [12] 8192 	mov	a,#0x02
      0025E6 2E               [12] 8193 	add	a,r6
      0025E7 F6               [12] 8194 	mov	@r0,a
      0025E8 E4               [12] 8195 	clr	a
      0025E9 3D               [12] 8196 	addc	a,r5
      0025EA 08               [12] 8197 	inc	r0
      0025EB F6               [12] 8198 	mov	@r0,a
      0025EC 08               [12] 8199 	inc	r0
      0025ED A6 04            [24] 8200 	mov	@r0,ar4
      0025EF 90r03r02         [24] 8201 	mov	dptr,#(_iss + 0x0002)
      0025F2 E0               [24] 8202 	movx	a,@dptr
      0025F3 FF               [12] 8203 	mov	r7,a
      0025F4 E5 81            [12] 8204 	mov	a,sp
      0025F6 24 F6            [12] 8205 	add	a,#0xf6
      0025F8 F8               [12] 8206 	mov	r0,a
      0025F9 86 82            [24] 8207 	mov	dpl,@r0
      0025FB 08               [12] 8208 	inc	r0
      0025FC 86 83            [24] 8209 	mov	dph,@r0
      0025FE 08               [12] 8210 	inc	r0
      0025FF 86 F0            [24] 8211 	mov	b,@r0
      002601 EF               [12] 8212 	mov	a,r7
      002602 12r00r00         [24] 8213 	lcall	__gptrput
                                   8214 ;	../../../../core/net/uip6.c:1708: uip_connr->snd_nxt[3] = iss[3];
      002605 74 03            [12] 8215 	mov	a,#0x03
      002607 2E               [12] 8216 	add	a,r6
      002608 FE               [12] 8217 	mov	r6,a
      002609 E4               [12] 8218 	clr	a
      00260A 3D               [12] 8219 	addc	a,r5
      00260B FD               [12] 8220 	mov	r5,a
      00260C 90r03r03         [24] 8221 	mov	dptr,#(_iss + 0x0003)
      00260F E0               [24] 8222 	movx	a,@dptr
      002610 8E 82            [24] 8223 	mov	dpl,r6
      002612 8D 83            [24] 8224 	mov	dph,r5
      002614 8C F0            [24] 8225 	mov	b,r4
      002616 12r00r00         [24] 8226 	lcall	__gptrput
                                   8227 ;	../../../../core/net/uip6.c:1709: uip_connr->len = 1;
      002619 A8 81            [24] 8228 	mov	r0,sp
      00261B 18               [12] 8229 	dec	r0
      00261C 18               [12] 8230 	dec	r0
      00261D 74 1C            [12] 8231 	mov	a,#0x1C
      00261F 26               [12] 8232 	add	a,@r0
      002620 FD               [12] 8233 	mov	r5,a
      002621 E4               [12] 8234 	clr	a
      002622 08               [12] 8235 	inc	r0
      002623 36               [12] 8236 	addc	a,@r0
      002624 FE               [12] 8237 	mov	r6,a
      002625 08               [12] 8238 	inc	r0
      002626 86 07            [24] 8239 	mov	ar7,@r0
      002628 8D 82            [24] 8240 	mov	dpl,r5
      00262A 8E 83            [24] 8241 	mov	dph,r6
      00262C 8F F0            [24] 8242 	mov	b,r7
      00262E 74 01            [12] 8243 	mov	a,#0x01
      002630 12r00r00         [24] 8244 	lcall	__gptrput
      002633 A3               [24] 8245 	inc	dptr
      002634 E4               [12] 8246 	clr	a
      002635 12r00r00         [24] 8247 	lcall	__gptrput
                                   8248 ;	../../../../core/net/uip6.c:1712: uip_connr->rcv_nxt[3] = UIP_TCP_BUF->seqno[3];
      002638 A8 81            [24] 8249 	mov	r0,sp
      00263A 18               [12] 8250 	dec	r0
      00263B 18               [12] 8251 	dec	r0
      00263C 74 14            [12] 8252 	mov	a,#0x14
      00263E 26               [12] 8253 	add	a,@r0
      00263F FD               [12] 8254 	mov	r5,a
      002640 E4               [12] 8255 	clr	a
      002641 08               [12] 8256 	inc	r0
      002642 36               [12] 8257 	addc	a,@r0
      002643 FC               [12] 8258 	mov	r4,a
      002644 08               [12] 8259 	inc	r0
      002645 86 03            [24] 8260 	mov	ar3,@r0
      002647 E5 81            [12] 8261 	mov	a,sp
      002649 24 F6            [12] 8262 	add	a,#0xf6
      00264B F8               [12] 8263 	mov	r0,a
      00264C 74 03            [12] 8264 	mov	a,#0x03
      00264E 2D               [12] 8265 	add	a,r5
      00264F F6               [12] 8266 	mov	@r0,a
      002650 E4               [12] 8267 	clr	a
      002651 3C               [12] 8268 	addc	a,r4
      002652 08               [12] 8269 	inc	r0
      002653 F6               [12] 8270 	mov	@r0,a
      002654 08               [12] 8271 	inc	r0
      002655 A6 03            [24] 8272 	mov	@r0,ar3
      002657 7Er33            [12] 8273 	mov	r6,#(_uip_aligned_buf + 0x0028)
      002659 7Fs00            [12] 8274 	mov	r7,#((_uip_aligned_buf + 0x0028) >> 8)
      00265B 74 07            [12] 8275 	mov	a,#0x07
      00265D 2E               [12] 8276 	add	a,r6
      00265E F5 82            [12] 8277 	mov	dpl,a
      002660 E4               [12] 8278 	clr	a
      002661 3F               [12] 8279 	addc	a,r7
      002662 F5 83            [12] 8280 	mov	dph,a
      002664 E0               [24] 8281 	movx	a,@dptr
      002665 FF               [12] 8282 	mov	r7,a
      002666 E5 81            [12] 8283 	mov	a,sp
      002668 24 F6            [12] 8284 	add	a,#0xf6
      00266A F8               [12] 8285 	mov	r0,a
      00266B 86 82            [24] 8286 	mov	dpl,@r0
      00266D 08               [12] 8287 	inc	r0
      00266E 86 83            [24] 8288 	mov	dph,@r0
      002670 08               [12] 8289 	inc	r0
      002671 86 F0            [24] 8290 	mov	b,@r0
      002673 EF               [12] 8291 	mov	a,r7
      002674 12r00r00         [24] 8292 	lcall	__gptrput
                                   8293 ;	../../../../core/net/uip6.c:1713: uip_connr->rcv_nxt[2] = UIP_TCP_BUF->seqno[2];
      002677 E5 81            [12] 8294 	mov	a,sp
      002679 24 F6            [12] 8295 	add	a,#0xf6
      00267B F8               [12] 8296 	mov	r0,a
      00267C 74 02            [12] 8297 	mov	a,#0x02
      00267E 2D               [12] 8298 	add	a,r5
      00267F F6               [12] 8299 	mov	@r0,a
      002680 E4               [12] 8300 	clr	a
      002681 3C               [12] 8301 	addc	a,r4
      002682 08               [12] 8302 	inc	r0
      002683 F6               [12] 8303 	mov	@r0,a
      002684 08               [12] 8304 	inc	r0
      002685 A6 03            [24] 8305 	mov	@r0,ar3
      002687 7Er33            [12] 8306 	mov	r6,#(_uip_aligned_buf + 0x0028)
      002689 7Fs00            [12] 8307 	mov	r7,#((_uip_aligned_buf + 0x0028) >> 8)
      00268B 74 06            [12] 8308 	mov	a,#0x06
      00268D 2E               [12] 8309 	add	a,r6
      00268E F5 82            [12] 8310 	mov	dpl,a
      002690 E4               [12] 8311 	clr	a
      002691 3F               [12] 8312 	addc	a,r7
      002692 F5 83            [12] 8313 	mov	dph,a
      002694 E0               [24] 8314 	movx	a,@dptr
      002695 FF               [12] 8315 	mov	r7,a
      002696 E5 81            [12] 8316 	mov	a,sp
      002698 24 F6            [12] 8317 	add	a,#0xf6
      00269A F8               [12] 8318 	mov	r0,a
      00269B 86 82            [24] 8319 	mov	dpl,@r0
      00269D 08               [12] 8320 	inc	r0
      00269E 86 83            [24] 8321 	mov	dph,@r0
      0026A0 08               [12] 8322 	inc	r0
      0026A1 86 F0            [24] 8323 	mov	b,@r0
      0026A3 EF               [12] 8324 	mov	a,r7
      0026A4 12r00r00         [24] 8325 	lcall	__gptrput
                                   8326 ;	../../../../core/net/uip6.c:1714: uip_connr->rcv_nxt[1] = UIP_TCP_BUF->seqno[1];
      0026A7 E5 81            [12] 8327 	mov	a,sp
      0026A9 24 F6            [12] 8328 	add	a,#0xf6
      0026AB F8               [12] 8329 	mov	r0,a
      0026AC 74 01            [12] 8330 	mov	a,#0x01
      0026AE 2D               [12] 8331 	add	a,r5
      0026AF F6               [12] 8332 	mov	@r0,a
      0026B0 E4               [12] 8333 	clr	a
      0026B1 3C               [12] 8334 	addc	a,r4
      0026B2 08               [12] 8335 	inc	r0
      0026B3 F6               [12] 8336 	mov	@r0,a
      0026B4 08               [12] 8337 	inc	r0
      0026B5 A6 03            [24] 8338 	mov	@r0,ar3
      0026B7 7Er33            [12] 8339 	mov	r6,#(_uip_aligned_buf + 0x0028)
      0026B9 7Fs00            [12] 8340 	mov	r7,#((_uip_aligned_buf + 0x0028) >> 8)
      0026BB 8E 82            [24] 8341 	mov	dpl,r6
      0026BD 8F 83            [24] 8342 	mov	dph,r7
      0026BF A3               [24] 8343 	inc	dptr
      0026C0 A3               [24] 8344 	inc	dptr
      0026C1 A3               [24] 8345 	inc	dptr
      0026C2 A3               [24] 8346 	inc	dptr
      0026C3 A3               [24] 8347 	inc	dptr
      0026C4 E0               [24] 8348 	movx	a,@dptr
      0026C5 FF               [12] 8349 	mov	r7,a
      0026C6 E5 81            [12] 8350 	mov	a,sp
      0026C8 24 F6            [12] 8351 	add	a,#0xf6
      0026CA F8               [12] 8352 	mov	r0,a
      0026CB 86 82            [24] 8353 	mov	dpl,@r0
      0026CD 08               [12] 8354 	inc	r0
      0026CE 86 83            [24] 8355 	mov	dph,@r0
      0026D0 08               [12] 8356 	inc	r0
      0026D1 86 F0            [24] 8357 	mov	b,@r0
      0026D3 EF               [12] 8358 	mov	a,r7
      0026D4 12r00r00         [24] 8359 	lcall	__gptrput
                                   8360 ;	../../../../core/net/uip6.c:1715: uip_connr->rcv_nxt[0] = UIP_TCP_BUF->seqno[0];
      0026D7 7Er33            [12] 8361 	mov	r6,#(_uip_aligned_buf + 0x0028)
      0026D9 7Fs00            [12] 8362 	mov	r7,#((_uip_aligned_buf + 0x0028) >> 8)
      0026DB 8E 82            [24] 8363 	mov	dpl,r6
      0026DD 8F 83            [24] 8364 	mov	dph,r7
      0026DF A3               [24] 8365 	inc	dptr
      0026E0 A3               [24] 8366 	inc	dptr
      0026E1 A3               [24] 8367 	inc	dptr
      0026E2 A3               [24] 8368 	inc	dptr
      0026E3 E0               [24] 8369 	movx	a,@dptr
      0026E4 8D 82            [24] 8370 	mov	dpl,r5
      0026E6 8C 83            [24] 8371 	mov	dph,r4
      0026E8 8B F0            [24] 8372 	mov	b,r3
      0026EA 12r00r00         [24] 8373 	lcall	__gptrput
                                   8374 ;	../../../../core/net/uip6.c:1716: uip_add_rcv_nxt(1);
      0026ED 90 00 01         [24] 8375 	mov	dptr,#0x0001
      0026F0 78r77            [12] 8376 	mov	r0,#_uip_add_rcv_nxt
      0026F2 79s0C            [12] 8377 	mov	r1,#(_uip_add_rcv_nxt >> 8)
      0026F4 7As00            [12] 8378 	mov	r2,#(_uip_add_rcv_nxt >> 16)
      0026F6 12r00r00         [24] 8379 	lcall	__sdcc_banked_call
                                   8380 ;	../../../../core/net/uip6.c:1719: if((UIP_TCP_BUF->tcpoffset & 0xf0) > 0x50) {
      0026F9 7Er33            [12] 8381 	mov	r6,#(_uip_aligned_buf + 0x0028)
      0026FB 7Fs00            [12] 8382 	mov	r7,#((_uip_aligned_buf + 0x0028) >> 8)
      0026FD 74 0C            [12] 8383 	mov	a,#0x0C
      0026FF 2E               [12] 8384 	add	a,r6
      002700 F5 82            [12] 8385 	mov	dpl,a
      002702 E4               [12] 8386 	clr	a
      002703 3F               [12] 8387 	addc	a,r7
      002704 F5 83            [12] 8388 	mov	dph,a
      002706 E0               [24] 8389 	movx	a,@dptr
      002707 54 F0            [12] 8390 	anl	a,#0xF0
      002709 FF               [12] 8391 	mov	r7,a
      00270A 24 AF            [12] 8392 	add	a,#0xff - 0x50
      00270C 40 03            [24] 8393 	jc	01299$
      00270E 02r28r75         [24] 8394 	ljmp	00348$
      002711                       8395 01299$:
                                   8396 ;	../../../../core/net/uip6.c:1720: for(c = 0; c < ((UIP_TCP_BUF->tcpoffset >> 4) - 5) << 2 ;) {
      002711 90r01r09         [24] 8397 	mov	dptr,#_c
      002714 E4               [12] 8398 	clr	a
      002715 F0               [24] 8399 	movx	@dptr,a
      002716                       8400 00494$:
      002716 7Er33            [12] 8401 	mov	r6,#(_uip_aligned_buf + 0x0028)
      002718 7Fs00            [12] 8402 	mov	r7,#((_uip_aligned_buf + 0x0028) >> 8)
      00271A 74 0C            [12] 8403 	mov	a,#0x0C
      00271C 2E               [12] 8404 	add	a,r6
      00271D F5 82            [12] 8405 	mov	dpl,a
      00271F E4               [12] 8406 	clr	a
      002720 3F               [12] 8407 	addc	a,r7
      002721 F5 83            [12] 8408 	mov	dph,a
      002723 E0               [24] 8409 	movx	a,@dptr
      002724 C4               [12] 8410 	swap	a
      002725 54 0F            [12] 8411 	anl	a,#0x0F
      002727 7E 00            [12] 8412 	mov	r6,#0x00
      002729 24 FB            [12] 8413 	add	a,#0xFB
      00272B FF               [12] 8414 	mov	r7,a
      00272C EE               [12] 8415 	mov	a,r6
      00272D 34 FF            [12] 8416 	addc	a,#0xFF
      00272F 8F 04            [24] 8417 	mov	ar4,r7
      002731 CC               [12] 8418 	xch	a,r4
      002732 25 E0            [12] 8419 	add	a,acc
      002734 CC               [12] 8420 	xch	a,r4
      002735 33               [12] 8421 	rlc	a
      002736 CC               [12] 8422 	xch	a,r4
      002737 25 E0            [12] 8423 	add	a,acc
      002739 CC               [12] 8424 	xch	a,r4
      00273A 33               [12] 8425 	rlc	a
      00273B FB               [12] 8426 	mov	r3,a
      00273C 90r01r09         [24] 8427 	mov	dptr,#_c
      00273F E0               [24] 8428 	movx	a,@dptr
      002740 FD               [12] 8429 	mov	r5,a
      002741 FE               [12] 8430 	mov	r6,a
      002742 7F 00            [12] 8431 	mov	r7,#0x00
      002744 C3               [12] 8432 	clr	c
      002745 EE               [12] 8433 	mov	a,r6
      002746 9C               [12] 8434 	subb	a,r4
      002747 EF               [12] 8435 	mov	a,r7
      002748 64 80            [12] 8436 	xrl	a,#0x80
      00274A 8B F0            [24] 8437 	mov	b,r3
      00274C 63 F0 80         [24] 8438 	xrl	b,#0x80
      00274F 95 F0            [12] 8439 	subb	a,b
      002751 40 03            [24] 8440 	jc	01300$
      002753 02r28r75         [24] 8441 	ljmp	00348$
      002756                       8442 01300$:
                                   8443 ;	../../../../core/net/uip6.c:1721: opt = uip_buf[UIP_TCPIP_HLEN + UIP_LLH_LEN + c];
      002756 74 3C            [12] 8444 	mov	a,#0x3C
      002758 2D               [12] 8445 	add	a,r5
      002759 24r0B            [12] 8446 	add	a,#_uip_aligned_buf
      00275B F5 82            [12] 8447 	mov	dpl,a
      00275D E4               [12] 8448 	clr	a
      00275E 34s00            [12] 8449 	addc	a,#(_uip_aligned_buf >> 8)
      002760 F5 83            [12] 8450 	mov	dph,a
      002762 E0               [24] 8451 	movx	a,@dptr
      002763 FF               [12] 8452 	mov	r7,a
      002764 90r03r08         [24] 8453 	mov	dptr,#_opt
      002767 F0               [24] 8454 	movx	@dptr,a
                                   8455 ;	../../../../core/net/uip6.c:1722: if(opt == TCP_OPT_END) {
      002768 EF               [12] 8456 	mov	a,r7
      002769 70 03            [24] 8457 	jnz	01301$
      00276B 02r28r75         [24] 8458 	ljmp	00348$
      00276E                       8459 01301$:
                                   8460 ;	../../../../core/net/uip6.c:1725: } else if(opt == TCP_OPT_NOOP) {
      00276E BF 01 08         [24] 8461 	cjne	r7,#0x01,00340$
                                   8462 ;	../../../../core/net/uip6.c:1726: ++c;
      002771 90r01r09         [24] 8463 	mov	dptr,#_c
      002774 ED               [12] 8464 	mov	a,r5
      002775 04               [12] 8465 	inc	a
      002776 F0               [24] 8466 	movx	@dptr,a
      002777 80 9D            [24] 8467 	sjmp	00494$
      002779                       8468 00340$:
                                   8469 ;	../../../../core/net/uip6.c:1728: } else if(opt == TCP_OPT_MSS &&
      002779 BF 02 02         [24] 8470 	cjne	r7,#0x02,01304$
      00277C 80 03            [24] 8471 	sjmp	01305$
      00277E                       8472 01304$:
      00277E 02r28r4A         [24] 8473 	ljmp	00336$
      002781                       8474 01305$:
                                   8475 ;	../../../../core/net/uip6.c:1729: uip_buf[UIP_TCPIP_HLEN + UIP_LLH_LEN + 1 + c] == TCP_OPT_MSS_LEN) {
      002781 74 3D            [12] 8476 	mov	a,#0x3D
      002783 2D               [12] 8477 	add	a,r5
      002784 24r0B            [12] 8478 	add	a,#_uip_aligned_buf
      002786 F5 82            [12] 8479 	mov	dpl,a
      002788 E4               [12] 8480 	clr	a
      002789 34s00            [12] 8481 	addc	a,#(_uip_aligned_buf >> 8)
      00278B F5 83            [12] 8482 	mov	dph,a
      00278D E0               [24] 8483 	movx	a,@dptr
      00278E FF               [12] 8484 	mov	r7,a
      00278F BF 04 02         [24] 8485 	cjne	r7,#0x04,01306$
      002792 80 03            [24] 8486 	sjmp	01307$
      002794                       8487 01306$:
      002794 02r28r4A         [24] 8488 	ljmp	00336$
      002797                       8489 01307$:
                                   8490 ;	../../../../core/net/uip6.c:1731: tmp16 = ((uint16_t)uip_buf[UIP_TCPIP_HLEN + UIP_LLH_LEN + 2 + c] << 8) |
      002797 74 3E            [12] 8491 	mov	a,#0x3E
      002799 2D               [12] 8492 	add	a,r5
      00279A 24r0B            [12] 8493 	add	a,#_uip_aligned_buf
      00279C F5 82            [12] 8494 	mov	dpl,a
      00279E E4               [12] 8495 	clr	a
      00279F 34s00            [12] 8496 	addc	a,#(_uip_aligned_buf >> 8)
      0027A1 F5 83            [12] 8497 	mov	dph,a
      0027A3 E0               [24] 8498 	movx	a,@dptr
      0027A4 FF               [12] 8499 	mov	r7,a
      0027A5 E5 81            [12] 8500 	mov	a,sp
      0027A7 24 FC            [12] 8501 	add	a,#0xfc
      0027A9 F8               [12] 8502 	mov	r0,a
      0027AA 08               [12] 8503 	inc	r0
      0027AB A6 07            [24] 8504 	mov	@r0,ar7
      0027AD 18               [12] 8505 	dec	r0
      0027AE 76 00            [12] 8506 	mov	@r0,#0x00
                                   8507 ;	../../../../core/net/uip6.c:1732: (uint16_t)uip_buf[UIP_IPTCPH_LEN + UIP_LLH_LEN + 3 + c];
      0027B0 74 3F            [12] 8508 	mov	a,#0x3F
      0027B2 2D               [12] 8509 	add	a,r5
      0027B3 24r0B            [12] 8510 	add	a,#_uip_aligned_buf
      0027B5 F5 82            [12] 8511 	mov	dpl,a
      0027B7 E4               [12] 8512 	clr	a
      0027B8 34s00            [12] 8513 	addc	a,#(_uip_aligned_buf >> 8)
      0027BA F5 83            [12] 8514 	mov	dph,a
      0027BC E0               [24] 8515 	movx	a,@dptr
      0027BD FD               [12] 8516 	mov	r5,a
      0027BE 7F 00            [12] 8517 	mov	r7,#0x00
      0027C0 E5 81            [12] 8518 	mov	a,sp
      0027C2 24 FC            [12] 8519 	add	a,#0xfc
      0027C4 F8               [12] 8520 	mov	r0,a
      0027C5 ED               [12] 8521 	mov	a,r5
      0027C6 46               [12] 8522 	orl	a,@r0
      0027C7 FE               [12] 8523 	mov	r6,a
      0027C8 EF               [12] 8524 	mov	a,r7
      0027C9 08               [12] 8525 	inc	r0
      0027CA 46               [12] 8526 	orl	a,@r0
      0027CB FF               [12] 8527 	mov	r7,a
      0027CC 90r03r09         [24] 8528 	mov	dptr,#_tmp16
      0027CF EE               [12] 8529 	mov	a,r6
      0027D0 F0               [24] 8530 	movx	@dptr,a
      0027D1 EF               [12] 8531 	mov	a,r7
      0027D2 A3               [24] 8532 	inc	dptr
      0027D3 F0               [24] 8533 	movx	@dptr,a
                                   8534 ;	../../../../core/net/uip6.c:1733: uip_connr->initialmss = uip_connr->mss =
      0027D4 A8 81            [24] 8535 	mov	r0,sp
      0027D6 18               [12] 8536 	dec	r0
      0027D7 18               [12] 8537 	dec	r0
      0027D8 74 20            [12] 8538 	mov	a,#0x20
      0027DA 26               [12] 8539 	add	a,@r0
      0027DB FD               [12] 8540 	mov	r5,a
      0027DC E4               [12] 8541 	clr	a
      0027DD 08               [12] 8542 	inc	r0
      0027DE 36               [12] 8543 	addc	a,@r0
      0027DF FC               [12] 8544 	mov	r4,a
      0027E0 08               [12] 8545 	inc	r0
      0027E1 86 03            [24] 8546 	mov	ar3,@r0
      0027E3 A8 81            [24] 8547 	mov	r0,sp
      0027E5 18               [12] 8548 	dec	r0
      0027E6 18               [12] 8549 	dec	r0
      0027E7 E5 81            [12] 8550 	mov	a,sp
      0027E9 24 F6            [12] 8551 	add	a,#0xf6
      0027EB F9               [12] 8552 	mov	r1,a
      0027EC 74 1E            [12] 8553 	mov	a,#0x1E
      0027EE 26               [12] 8554 	add	a,@r0
      0027EF F7               [12] 8555 	mov	@r1,a
      0027F0 E4               [12] 8556 	clr	a
      0027F1 08               [12] 8557 	inc	r0
      0027F2 36               [12] 8558 	addc	a,@r0
      0027F3 09               [12] 8559 	inc	r1
      0027F4 F7               [12] 8560 	mov	@r1,a
      0027F5 08               [12] 8561 	inc	r0
      0027F6 09               [12] 8562 	inc	r1
      0027F7 E6               [12] 8563 	mov	a,@r0
      0027F8 F7               [12] 8564 	mov	@r1,a
                                   8565 ;	../../../../core/net/uip6.c:1734: tmp16 > UIP_TCP_MSS? UIP_TCP_MSS: tmp16;
      0027F9 C3               [12] 8566 	clr	c
      0027FA 74 B4            [12] 8567 	mov	a,#0xB4
      0027FC 9E               [12] 8568 	subb	a,r6
      0027FD E4               [12] 8569 	clr	a
      0027FE 9F               [12] 8570 	subb	a,r7
      0027FF 50 0C            [24] 8571 	jnc	00503$
      002801 E5 81            [12] 8572 	mov	a,sp
      002803 24 FC            [12] 8573 	add	a,#0xfc
      002805 F8               [12] 8574 	mov	r0,a
      002806 76 B4            [12] 8575 	mov	@r0,#0xB4
      002808 08               [12] 8576 	inc	r0
      002809 76 00            [12] 8577 	mov	@r0,#0x00
      00280B 80 0A            [24] 8578 	sjmp	00504$
      00280D                       8579 00503$:
      00280D E5 81            [12] 8580 	mov	a,sp
      00280F 24 FC            [12] 8581 	add	a,#0xfc
      002811 F8               [12] 8582 	mov	r0,a
      002812 A6 06            [24] 8583 	mov	@r0,ar6
      002814 08               [12] 8584 	inc	r0
      002815 A6 07            [24] 8585 	mov	@r0,ar7
      002817                       8586 00504$:
      002817 E5 81            [12] 8587 	mov	a,sp
      002819 24 F6            [12] 8588 	add	a,#0xf6
      00281B F8               [12] 8589 	mov	r0,a
      00281C 86 82            [24] 8590 	mov	dpl,@r0
      00281E 08               [12] 8591 	inc	r0
      00281F 86 83            [24] 8592 	mov	dph,@r0
      002821 08               [12] 8593 	inc	r0
      002822 86 F0            [24] 8594 	mov	b,@r0
      002824 E5 81            [12] 8595 	mov	a,sp
      002826 24 FC            [12] 8596 	add	a,#0xfc
      002828 F9               [12] 8597 	mov	r1,a
      002829 E7               [12] 8598 	mov	a,@r1
      00282A 12r00r00         [24] 8599 	lcall	__gptrput
      00282D A3               [24] 8600 	inc	dptr
      00282E 09               [12] 8601 	inc	r1
      00282F E7               [12] 8602 	mov	a,@r1
      002830 12r00r00         [24] 8603 	lcall	__gptrput
      002833 8D 82            [24] 8604 	mov	dpl,r5
      002835 8C 83            [24] 8605 	mov	dph,r4
      002837 8B F0            [24] 8606 	mov	b,r3
      002839 E5 81            [12] 8607 	mov	a,sp
      00283B 24 FC            [12] 8608 	add	a,#0xfc
      00283D F8               [12] 8609 	mov	r0,a
      00283E E6               [12] 8610 	mov	a,@r0
      00283F 12r00r00         [24] 8611 	lcall	__gptrput
      002842 A3               [24] 8612 	inc	dptr
      002843 08               [12] 8613 	inc	r0
      002844 E6               [12] 8614 	mov	a,@r0
      002845 12r00r00         [24] 8615 	lcall	__gptrput
                                   8616 ;	../../../../core/net/uip6.c:1737: break;
      002848 80 2B            [24] 8617 	sjmp	00348$
      00284A                       8618 00336$:
                                   8619 ;	../../../../core/net/uip6.c:1741: if(uip_buf[UIP_TCPIP_HLEN + UIP_LLH_LEN + 1 + c] == 0) {
      00284A 90r01r09         [24] 8620 	mov	dptr,#_c
      00284D E0               [24] 8621 	movx	a,@dptr
      00284E FF               [12] 8622 	mov	r7,a
      00284F 24 3D            [12] 8623 	add	a,#0x3D
      002851 24r0B            [12] 8624 	add	a,#_uip_aligned_buf
      002853 FD               [12] 8625 	mov	r5,a
      002854 E4               [12] 8626 	clr	a
      002855 34s00            [12] 8627 	addc	a,#(_uip_aligned_buf >> 8)
      002857 FE               [12] 8628 	mov	r6,a
      002858 8D 82            [24] 8629 	mov	dpl,r5
      00285A 8E 83            [24] 8630 	mov	dph,r6
      00285C E0               [24] 8631 	movx	a,@dptr
      00285D 60 16            [24] 8632 	jz	00348$
                                   8633 ;	../../../../core/net/uip6.c:1746: c += uip_buf[UIP_TCPIP_HLEN + UIP_LLH_LEN + 1 + c];
      00285F 74 3D            [12] 8634 	mov	a,#0x3D
      002861 2F               [12] 8635 	add	a,r7
      002862 24r0B            [12] 8636 	add	a,#_uip_aligned_buf
      002864 F5 82            [12] 8637 	mov	dpl,a
      002866 E4               [12] 8638 	clr	a
      002867 34s00            [12] 8639 	addc	a,#(_uip_aligned_buf >> 8)
      002869 F5 83            [12] 8640 	mov	dph,a
      00286B E0               [24] 8641 	movx	a,@dptr
      00286C FE               [12] 8642 	mov	r6,a
      00286D 90r01r09         [24] 8643 	mov	dptr,#_c
      002870 2F               [12] 8644 	add	a,r7
      002871 F0               [24] 8645 	movx	@dptr,a
      002872 02r27r16         [24] 8646 	ljmp	00494$
                                   8647 ;	../../../../core/net/uip6.c:1753: tcp_send_synack:
      002875                       8648 00348$:
                                   8649 ;	../../../../core/net/uip6.c:1754: UIP_TCP_BUF->flags = TCP_ACK;
      002875 7Er33            [12] 8650 	mov	r6,#(_uip_aligned_buf + 0x0028)
      002877 7Fs00            [12] 8651 	mov	r7,#((_uip_aligned_buf + 0x0028) >> 8)
      002879 74 0D            [12] 8652 	mov	a,#0x0D
      00287B 2E               [12] 8653 	add	a,r6
      00287C F5 82            [12] 8654 	mov	dpl,a
      00287E E4               [12] 8655 	clr	a
      00287F 3F               [12] 8656 	addc	a,r7
      002880 F5 83            [12] 8657 	mov	dph,a
      002882 74 10            [12] 8658 	mov	a,#0x10
      002884 F0               [24] 8659 	movx	@dptr,a
                                   8660 ;	../../../../core/net/uip6.c:1756: tcp_send_syn:
      002885                       8661 00349$:
                                   8662 ;	../../../../core/net/uip6.c:1757: UIP_TCP_BUF->flags |= TCP_SYN;
      002885 7Er33            [12] 8663 	mov	r6,#(_uip_aligned_buf + 0x0028)
      002887 7Fs00            [12] 8664 	mov	r7,#((_uip_aligned_buf + 0x0028) >> 8)
      002889 74 0D            [12] 8665 	mov	a,#0x0D
      00288B 2E               [12] 8666 	add	a,r6
      00288C FE               [12] 8667 	mov	r6,a
      00288D E4               [12] 8668 	clr	a
      00288E 3F               [12] 8669 	addc	a,r7
      00288F FC               [12] 8670 	mov	r4,a
      002890 7Dr33            [12] 8671 	mov	r5,#(_uip_aligned_buf + 0x0028)
      002892 7Fs00            [12] 8672 	mov	r7,#((_uip_aligned_buf + 0x0028) >> 8)
      002894 74 0D            [12] 8673 	mov	a,#0x0D
      002896 2D               [12] 8674 	add	a,r5
      002897 F5 82            [12] 8675 	mov	dpl,a
      002899 E4               [12] 8676 	clr	a
      00289A 3F               [12] 8677 	addc	a,r7
      00289B F5 83            [12] 8678 	mov	dph,a
      00289D E0               [24] 8679 	movx	a,@dptr
      00289E FF               [12] 8680 	mov	r7,a
      00289F 43 07 02         [24] 8681 	orl	ar7,#0x02
      0028A2 8E 82            [24] 8682 	mov	dpl,r6
      0028A4 8C 83            [24] 8683 	mov	dph,r4
      0028A6 EF               [12] 8684 	mov	a,r7
      0028A7 F0               [24] 8685 	movx	@dptr,a
                                   8686 ;	../../../../core/net/uip6.c:1765: UIP_TCP_BUF->optdata[0] = TCP_OPT_MSS;
      0028A8 7Er33            [12] 8687 	mov	r6,#(_uip_aligned_buf + 0x0028)
      0028AA 7Fs00            [12] 8688 	mov	r7,#((_uip_aligned_buf + 0x0028) >> 8)
      0028AC 74 14            [12] 8689 	mov	a,#0x14
      0028AE 2E               [12] 8690 	add	a,r6
      0028AF F5 82            [12] 8691 	mov	dpl,a
      0028B1 E4               [12] 8692 	clr	a
      0028B2 3F               [12] 8693 	addc	a,r7
      0028B3 F5 83            [12] 8694 	mov	dph,a
      0028B5 74 02            [12] 8695 	mov	a,#0x02
      0028B7 F0               [24] 8696 	movx	@dptr,a
                                   8697 ;	../../../../core/net/uip6.c:1766: UIP_TCP_BUF->optdata[1] = TCP_OPT_MSS_LEN;
      0028B8 7Er33            [12] 8698 	mov	r6,#(_uip_aligned_buf + 0x0028)
      0028BA 7Fs00            [12] 8699 	mov	r7,#((_uip_aligned_buf + 0x0028) >> 8)
      0028BC 74 15            [12] 8700 	mov	a,#0x15
      0028BE 2E               [12] 8701 	add	a,r6
      0028BF F5 82            [12] 8702 	mov	dpl,a
      0028C1 E4               [12] 8703 	clr	a
      0028C2 3F               [12] 8704 	addc	a,r7
      0028C3 F5 83            [12] 8705 	mov	dph,a
      0028C5 74 04            [12] 8706 	mov	a,#0x04
      0028C7 F0               [24] 8707 	movx	@dptr,a
                                   8708 ;	../../../../core/net/uip6.c:1767: UIP_TCP_BUF->optdata[2] = (UIP_TCP_MSS) / 256;
      0028C8 7Er33            [12] 8709 	mov	r6,#(_uip_aligned_buf + 0x0028)
      0028CA 7Fs00            [12] 8710 	mov	r7,#((_uip_aligned_buf + 0x0028) >> 8)
      0028CC 74 16            [12] 8711 	mov	a,#0x16
      0028CE 2E               [12] 8712 	add	a,r6
      0028CF F5 82            [12] 8713 	mov	dpl,a
      0028D1 E4               [12] 8714 	clr	a
      0028D2 3F               [12] 8715 	addc	a,r7
      0028D3 F5 83            [12] 8716 	mov	dph,a
      0028D5 E4               [12] 8717 	clr	a
      0028D6 F0               [24] 8718 	movx	@dptr,a
                                   8719 ;	../../../../core/net/uip6.c:1768: UIP_TCP_BUF->optdata[3] = (UIP_TCP_MSS) & 255;
      0028D7 7Er33            [12] 8720 	mov	r6,#(_uip_aligned_buf + 0x0028)
      0028D9 7Fs00            [12] 8721 	mov	r7,#((_uip_aligned_buf + 0x0028) >> 8)
      0028DB 74 17            [12] 8722 	mov	a,#0x17
      0028DD 2E               [12] 8723 	add	a,r6
      0028DE F5 82            [12] 8724 	mov	dpl,a
      0028E0 E4               [12] 8725 	clr	a
      0028E1 3F               [12] 8726 	addc	a,r7
      0028E2 F5 83            [12] 8727 	mov	dph,a
      0028E4 74 B4            [12] 8728 	mov	a,#0xB4
      0028E6 F0               [24] 8729 	movx	@dptr,a
                                   8730 ;	../../../../core/net/uip6.c:1769: uip_len = UIP_IPTCPH_LEN + TCP_OPT_MSS_LEN;
      0028E7 90r01r01         [24] 8731 	mov	dptr,#_uip_len
      0028EA 74 40            [12] 8732 	mov	a,#0x40
      0028EC F0               [24] 8733 	movx	@dptr,a
      0028ED E4               [12] 8734 	clr	a
      0028EE A3               [24] 8735 	inc	dptr
      0028EF F0               [24] 8736 	movx	@dptr,a
                                   8737 ;	../../../../core/net/uip6.c:1770: UIP_TCP_BUF->tcpoffset = ((UIP_TCPH_LEN + TCP_OPT_MSS_LEN) / 4) << 4;
      0028F0 7Er33            [12] 8738 	mov	r6,#(_uip_aligned_buf + 0x0028)
      0028F2 7Fs00            [12] 8739 	mov	r7,#((_uip_aligned_buf + 0x0028) >> 8)
      0028F4 74 0C            [12] 8740 	mov	a,#0x0C
      0028F6 2E               [12] 8741 	add	a,r6
      0028F7 F5 82            [12] 8742 	mov	dpl,a
      0028F9 E4               [12] 8743 	clr	a
      0028FA 3F               [12] 8744 	addc	a,r7
      0028FB F5 83            [12] 8745 	mov	dph,a
      0028FD 74 60            [12] 8746 	mov	a,#0x60
      0028FF F0               [24] 8747 	movx	@dptr,a
                                   8748 ;	../../../../core/net/uip6.c:1771: goto tcp_send;
      002900 02r38r29         [24] 8749 	ljmp	00475$
                                   8750 ;	../../../../core/net/uip6.c:1774: found:
      002903                       8751 00350$:
                                   8752 ;	../../../../core/net/uip6.c:1776: uip_conn = uip_connr;
      002903 A8 81            [24] 8753 	mov	r0,sp
      002905 18               [12] 8754 	dec	r0
      002906 18               [12] 8755 	dec	r0
      002907 90r01r06         [24] 8756 	mov	dptr,#_uip_conn
      00290A E6               [12] 8757 	mov	a,@r0
      00290B F0               [24] 8758 	movx	@dptr,a
      00290C 08               [12] 8759 	inc	r0
      00290D E6               [12] 8760 	mov	a,@r0
      00290E A3               [24] 8761 	inc	dptr
      00290F F0               [24] 8762 	movx	@dptr,a
      002910 08               [12] 8763 	inc	r0
      002911 E6               [12] 8764 	mov	a,@r0
      002912 A3               [24] 8765 	inc	dptr
      002913 F0               [24] 8766 	movx	@dptr,a
                                   8767 ;	../../../../core/net/uip6.c:1777: uip_flags = 0;
      002914 90r01r05         [24] 8768 	mov	dptr,#_uip_flags
      002917 E4               [12] 8769 	clr	a
      002918 F0               [24] 8770 	movx	@dptr,a
                                   8771 ;	../../../../core/net/uip6.c:1782: if(UIP_TCP_BUF->flags & TCP_RST) {
      002919 7Er33            [12] 8772 	mov	r6,#(_uip_aligned_buf + 0x0028)
      00291B 7Fs00            [12] 8773 	mov	r7,#((_uip_aligned_buf + 0x0028) >> 8)
      00291D 74 0D            [12] 8774 	mov	a,#0x0D
      00291F 2E               [12] 8775 	add	a,r6
      002920 F5 82            [12] 8776 	mov	dpl,a
      002922 E4               [12] 8777 	clr	a
      002923 3F               [12] 8778 	addc	a,r7
      002924 F5 83            [12] 8779 	mov	dph,a
      002926 E0               [24] 8780 	movx	a,@dptr
      002927 FF               [12] 8781 	mov	r7,a
      002928 30 E2 1C         [24] 8782 	jnb	acc.2,00352$
                                   8783 ;	../../../../core/net/uip6.c:1783: uip_connr->tcpstateflags = UIP_CLOSED;
      00292B 8A 82            [24] 8784 	mov	dpl,r2
      00292D 8B 83            [24] 8785 	mov	dph,r3
      00292F 8C F0            [24] 8786 	mov	b,r4
      002931 E4               [12] 8787 	clr	a
      002932 12r00r00         [24] 8788 	lcall	__gptrput
                                   8789 ;	../../../../core/net/uip6.c:1785: uip_flags = UIP_ABORT;
      002935 90r01r05         [24] 8790 	mov	dptr,#_uip_flags
      002938 74 20            [12] 8791 	mov	a,#0x20
      00293A F0               [24] 8792 	movx	@dptr,a
                                   8793 ;	../../../../core/net/uip6.c:1786: UIP_APPCALL();
      00293B 78r00            [12] 8794 	mov	r0,#_tcpip_uipcall
      00293D 79s00            [12] 8795 	mov	r1,#(_tcpip_uipcall >> 8)
      00293F 7As00            [12] 8796 	mov	r2,#(_tcpip_uipcall >> 16)
      002941 12r00r00         [24] 8797 	lcall	__sdcc_banked_call
                                   8798 ;	../../../../core/net/uip6.c:1787: goto drop;
      002944 02r3Br87         [24] 8799 	ljmp	00482$
      002947                       8800 00352$:
                                   8801 ;	../../../../core/net/uip6.c:1791: c = (UIP_TCP_BUF->tcpoffset >> 4) << 2;
      002947 7Er33            [12] 8802 	mov	r6,#(_uip_aligned_buf + 0x0028)
      002949 7Fs00            [12] 8803 	mov	r7,#((_uip_aligned_buf + 0x0028) >> 8)
      00294B 74 0C            [12] 8804 	mov	a,#0x0C
      00294D 2E               [12] 8805 	add	a,r6
      00294E F5 82            [12] 8806 	mov	dpl,a
      002950 E4               [12] 8807 	clr	a
      002951 3F               [12] 8808 	addc	a,r7
      002952 F5 83            [12] 8809 	mov	dph,a
      002954 E0               [24] 8810 	movx	a,@dptr
      002955 C4               [12] 8811 	swap	a
      002956 54 0F            [12] 8812 	anl	a,#0x0F
      002958 25 E0            [12] 8813 	add	a,acc
      00295A 25 E0            [12] 8814 	add	a,acc
      00295C FF               [12] 8815 	mov	r7,a
      00295D 90r01r09         [24] 8816 	mov	dptr,#_c
      002960 F0               [24] 8817 	movx	@dptr,a
                                   8818 ;	../../../../core/net/uip6.c:1795: uip_len = uip_len - c - UIP_IPH_LEN;
      002961 8F 06            [24] 8819 	mov	ar6,r7
      002963 7F 00            [12] 8820 	mov	r7,#0x00
      002965 90r01r01         [24] 8821 	mov	dptr,#_uip_len
      002968 E5 81            [12] 8822 	mov	a,sp
      00296A 24 F9            [12] 8823 	add	a,#0xf9
      00296C F8               [12] 8824 	mov	r0,a
      00296D E0               [24] 8825 	movx	a,@dptr
      00296E F6               [12] 8826 	mov	@r0,a
      00296F A3               [24] 8827 	inc	dptr
      002970 E0               [24] 8828 	movx	a,@dptr
      002971 08               [12] 8829 	inc	r0
      002972 F6               [12] 8830 	mov	@r0,a
      002973 E5 81            [12] 8831 	mov	a,sp
      002975 24 F9            [12] 8832 	add	a,#0xf9
      002977 F8               [12] 8833 	mov	r0,a
      002978 E6               [12] 8834 	mov	a,@r0
      002979 C3               [12] 8835 	clr	c
      00297A 9E               [12] 8836 	subb	a,r6
      00297B FE               [12] 8837 	mov	r6,a
      00297C 08               [12] 8838 	inc	r0
      00297D E6               [12] 8839 	mov	a,@r0
      00297E 9F               [12] 8840 	subb	a,r7
      00297F FF               [12] 8841 	mov	r7,a
      002980 EE               [12] 8842 	mov	a,r6
      002981 24 D8            [12] 8843 	add	a,#0xD8
      002983 FE               [12] 8844 	mov	r6,a
      002984 EF               [12] 8845 	mov	a,r7
      002985 34 FF            [12] 8846 	addc	a,#0xFF
      002987 FF               [12] 8847 	mov	r7,a
      002988 90r01r01         [24] 8848 	mov	dptr,#_uip_len
      00298B EE               [12] 8849 	mov	a,r6
      00298C F0               [24] 8850 	movx	@dptr,a
      00298D EF               [12] 8851 	mov	a,r7
      00298E A3               [24] 8852 	inc	dptr
      00298F F0               [24] 8853 	movx	@dptr,a
                                   8854 ;	../../../../core/net/uip6.c:1802: if(!((((uip_connr->tcpstateflags & UIP_TS_MASK) == UIP_SYN_SENT) &&
      002990 8A 82            [24] 8855 	mov	dpl,r2
      002992 8B 83            [24] 8856 	mov	dph,r3
      002994 8C F0            [24] 8857 	mov	b,r4
      002996 12r00r00         [24] 8858 	lcall	__gptrget
      002999 FA               [12] 8859 	mov	r2,a
      00299A 53 02 0F         [24] 8860 	anl	ar2,#0x0F
      00299D BA 02 18         [24] 8861 	cjne	r2,#0x02,00366$
                                   8862 ;	../../../../core/net/uip6.c:1803: ((UIP_TCP_BUF->flags & TCP_CTL) == (TCP_SYN | TCP_ACK))) ||
      0029A0 7Er33            [12] 8863 	mov	r6,#(_uip_aligned_buf + 0x0028)
      0029A2 7Fs00            [12] 8864 	mov	r7,#((_uip_aligned_buf + 0x0028) >> 8)
      0029A4 74 0D            [12] 8865 	mov	a,#0x0D
      0029A6 2E               [12] 8866 	add	a,r6
      0029A7 F5 82            [12] 8867 	mov	dpl,a
      0029A9 E4               [12] 8868 	clr	a
      0029AA 3F               [12] 8869 	addc	a,r7
      0029AB F5 83            [12] 8870 	mov	dph,a
      0029AD E0               [24] 8871 	movx	a,@dptr
      0029AE FF               [12] 8872 	mov	r7,a
      0029AF 53 07 3F         [24] 8873 	anl	ar7,#0x3F
      0029B2 BF 12 03         [24] 8874 	cjne	r7,#0x12,01313$
      0029B5 02r2ArFA         [24] 8875 	ljmp	00363$
      0029B8                       8876 01313$:
      0029B8                       8877 00366$:
                                   8878 ;	../../../../core/net/uip6.c:1804: (((uip_connr->tcpstateflags & UIP_TS_MASK) == UIP_SYN_RCVD) &&
      0029B8 A8 81            [24] 8879 	mov	r0,sp
      0029BA 18               [12] 8880 	dec	r0
      0029BB 18               [12] 8881 	dec	r0
      0029BC 74 25            [12] 8882 	mov	a,#0x25
      0029BE 26               [12] 8883 	add	a,@r0
      0029BF FD               [12] 8884 	mov	r5,a
      0029C0 E4               [12] 8885 	clr	a
      0029C1 08               [12] 8886 	inc	r0
      0029C2 36               [12] 8887 	addc	a,@r0
      0029C3 FE               [12] 8888 	mov	r6,a
      0029C4 08               [12] 8889 	inc	r0
      0029C5 86 07            [24] 8890 	mov	ar7,@r0
      0029C7 8D 82            [24] 8891 	mov	dpl,r5
      0029C9 8E 83            [24] 8892 	mov	dph,r6
      0029CB 8F F0            [24] 8893 	mov	b,r7
      0029CD 12r00r00         [24] 8894 	lcall	__gptrget
      0029D0 FD               [12] 8895 	mov	r5,a
      0029D1 53 05 0F         [24] 8896 	anl	ar5,#0x0F
      0029D4 BD 01 18         [24] 8897 	cjne	r5,#0x01,00362$
                                   8898 ;	../../../../core/net/uip6.c:1805: ((UIP_TCP_BUF->flags & TCP_CTL) == TCP_SYN)))) {
      0029D7 7Er33            [12] 8899 	mov	r6,#(_uip_aligned_buf + 0x0028)
      0029D9 7Fs00            [12] 8900 	mov	r7,#((_uip_aligned_buf + 0x0028) >> 8)
      0029DB 74 0D            [12] 8901 	mov	a,#0x0D
      0029DD 2E               [12] 8902 	add	a,r6
      0029DE F5 82            [12] 8903 	mov	dpl,a
      0029E0 E4               [12] 8904 	clr	a
      0029E1 3F               [12] 8905 	addc	a,r7
      0029E2 F5 83            [12] 8906 	mov	dph,a
      0029E4 E0               [24] 8907 	movx	a,@dptr
      0029E5 FF               [12] 8908 	mov	r7,a
      0029E6 53 07 3F         [24] 8909 	anl	ar7,#0x3F
      0029E9 BF 02 03         [24] 8910 	cjne	r7,#0x02,01316$
      0029EC 02r2ArFA         [24] 8911 	ljmp	00363$
      0029EF                       8912 01316$:
      0029EF                       8913 00362$:
                                   8914 ;	../../../../core/net/uip6.c:1806: if((uip_len > 0 || ((UIP_TCP_BUF->flags & (TCP_SYN | TCP_FIN)) != 0)) &&
      0029EF 90r01r01         [24] 8915 	mov	dptr,#_uip_len
      0029F2 E0               [24] 8916 	movx	a,@dptr
      0029F3 FE               [12] 8917 	mov	r6,a
      0029F4 A3               [24] 8918 	inc	dptr
      0029F5 E0               [24] 8919 	movx	a,@dptr
      0029F6 FF               [12] 8920 	mov	r7,a
      0029F7 4E               [12] 8921 	orl	a,r6
      0029F8 70 16            [24] 8922 	jnz	00361$
      0029FA 7Er33            [12] 8923 	mov	r6,#(_uip_aligned_buf + 0x0028)
      0029FC 7Fs00            [12] 8924 	mov	r7,#((_uip_aligned_buf + 0x0028) >> 8)
      0029FE 74 0D            [12] 8925 	mov	a,#0x0D
      002A00 2E               [12] 8926 	add	a,r6
      002A01 F5 82            [12] 8927 	mov	dpl,a
      002A03 E4               [12] 8928 	clr	a
      002A04 3F               [12] 8929 	addc	a,r7
      002A05 F5 83            [12] 8930 	mov	dph,a
      002A07 E0               [24] 8931 	movx	a,@dptr
      002A08 FF               [12] 8932 	mov	r7,a
      002A09 54 03            [12] 8933 	anl	a,#0x03
      002A0B 70 03            [24] 8934 	jnz	01318$
      002A0D 02r2ArFA         [24] 8935 	ljmp	00363$
      002A10                       8936 01318$:
      002A10                       8937 00361$:
                                   8938 ;	../../../../core/net/uip6.c:1807: (UIP_TCP_BUF->seqno[0] != uip_connr->rcv_nxt[0] ||
      002A10 7Er33            [12] 8939 	mov	r6,#(_uip_aligned_buf + 0x0028)
      002A12 7Fs00            [12] 8940 	mov	r7,#((_uip_aligned_buf + 0x0028) >> 8)
      002A14 74 04            [12] 8941 	mov	a,#0x04
      002A16 2E               [12] 8942 	add	a,r6
      002A17 FE               [12] 8943 	mov	r6,a
      002A18 E4               [12] 8944 	clr	a
      002A19 3F               [12] 8945 	addc	a,r7
      002A1A FF               [12] 8946 	mov	r7,a
      002A1B A8 81            [24] 8947 	mov	r0,sp
      002A1D 18               [12] 8948 	dec	r0
      002A1E 18               [12] 8949 	dec	r0
      002A1F 74 14            [12] 8950 	mov	a,#0x14
      002A21 26               [12] 8951 	add	a,@r0
      002A22 FB               [12] 8952 	mov	r3,a
      002A23 E4               [12] 8953 	clr	a
      002A24 08               [12] 8954 	inc	r0
      002A25 36               [12] 8955 	addc	a,@r0
      002A26 FC               [12] 8956 	mov	r4,a
      002A27 08               [12] 8957 	inc	r0
      002A28 86 05            [24] 8958 	mov	ar5,@r0
      002A2A 8E 82            [24] 8959 	mov	dpl,r6
      002A2C 8F 83            [24] 8960 	mov	dph,r7
      002A2E E0               [24] 8961 	movx	a,@dptr
      002A2F FE               [12] 8962 	mov	r6,a
      002A30 8B 82            [24] 8963 	mov	dpl,r3
      002A32 8C 83            [24] 8964 	mov	dph,r4
      002A34 8D F0            [24] 8965 	mov	b,r5
      002A36 12r00r00         [24] 8966 	lcall	__gptrget
      002A39 FB               [12] 8967 	mov	r3,a
      002A3A EE               [12] 8968 	mov	a,r6
      002A3B B5 03 02         [24] 8969 	cjne	a,ar3,01319$
      002A3E 80 03            [24] 8970 	sjmp	01320$
      002A40                       8971 01319$:
      002A40 02r2ArE2         [24] 8972 	ljmp	00355$
      002A43                       8973 01320$:
                                   8974 ;	../../../../core/net/uip6.c:1808: UIP_TCP_BUF->seqno[1] != uip_connr->rcv_nxt[1] ||
      002A43 7Er33            [12] 8975 	mov	r6,#(_uip_aligned_buf + 0x0028)
      002A45 7Fs00            [12] 8976 	mov	r7,#((_uip_aligned_buf + 0x0028) >> 8)
      002A47 74 05            [12] 8977 	mov	a,#0x05
      002A49 2E               [12] 8978 	add	a,r6
      002A4A FE               [12] 8979 	mov	r6,a
      002A4B E4               [12] 8980 	clr	a
      002A4C 3F               [12] 8981 	addc	a,r7
      002A4D FF               [12] 8982 	mov	r7,a
      002A4E A8 81            [24] 8983 	mov	r0,sp
      002A50 18               [12] 8984 	dec	r0
      002A51 18               [12] 8985 	dec	r0
      002A52 74 14            [12] 8986 	mov	a,#0x14
      002A54 26               [12] 8987 	add	a,@r0
      002A55 FB               [12] 8988 	mov	r3,a
      002A56 E4               [12] 8989 	clr	a
      002A57 08               [12] 8990 	inc	r0
      002A58 36               [12] 8991 	addc	a,@r0
      002A59 FC               [12] 8992 	mov	r4,a
      002A5A 08               [12] 8993 	inc	r0
      002A5B 86 05            [24] 8994 	mov	ar5,@r0
      002A5D 0B               [12] 8995 	inc	r3
      002A5E BB 00 01         [24] 8996 	cjne	r3,#0x00,01321$
      002A61 0C               [12] 8997 	inc	r4
      002A62                       8998 01321$:
      002A62 8E 82            [24] 8999 	mov	dpl,r6
      002A64 8F 83            [24] 9000 	mov	dph,r7
      002A66 E0               [24] 9001 	movx	a,@dptr
      002A67 FE               [12] 9002 	mov	r6,a
      002A68 8B 82            [24] 9003 	mov	dpl,r3
      002A6A 8C 83            [24] 9004 	mov	dph,r4
      002A6C 8D F0            [24] 9005 	mov	b,r5
      002A6E 12r00r00         [24] 9006 	lcall	__gptrget
      002A71 FB               [12] 9007 	mov	r3,a
      002A72 EE               [12] 9008 	mov	a,r6
      002A73 B5 03 6C         [24] 9009 	cjne	a,ar3,00355$
                                   9010 ;	../../../../core/net/uip6.c:1809: UIP_TCP_BUF->seqno[2] != uip_connr->rcv_nxt[2] ||
      002A76 7Er33            [12] 9011 	mov	r6,#(_uip_aligned_buf + 0x0028)
      002A78 7Fs00            [12] 9012 	mov	r7,#((_uip_aligned_buf + 0x0028) >> 8)
      002A7A 74 06            [12] 9013 	mov	a,#0x06
      002A7C 2E               [12] 9014 	add	a,r6
      002A7D FE               [12] 9015 	mov	r6,a
      002A7E E4               [12] 9016 	clr	a
      002A7F 3F               [12] 9017 	addc	a,r7
      002A80 FF               [12] 9018 	mov	r7,a
      002A81 A8 81            [24] 9019 	mov	r0,sp
      002A83 18               [12] 9020 	dec	r0
      002A84 18               [12] 9021 	dec	r0
      002A85 74 14            [12] 9022 	mov	a,#0x14
      002A87 26               [12] 9023 	add	a,@r0
      002A88 FB               [12] 9024 	mov	r3,a
      002A89 E4               [12] 9025 	clr	a
      002A8A 08               [12] 9026 	inc	r0
      002A8B 36               [12] 9027 	addc	a,@r0
      002A8C FC               [12] 9028 	mov	r4,a
      002A8D 08               [12] 9029 	inc	r0
      002A8E 86 05            [24] 9030 	mov	ar5,@r0
      002A90 74 02            [12] 9031 	mov	a,#0x02
      002A92 2B               [12] 9032 	add	a,r3
      002A93 FB               [12] 9033 	mov	r3,a
      002A94 E4               [12] 9034 	clr	a
      002A95 3C               [12] 9035 	addc	a,r4
      002A96 FC               [12] 9036 	mov	r4,a
      002A97 8E 82            [24] 9037 	mov	dpl,r6
      002A99 8F 83            [24] 9038 	mov	dph,r7
      002A9B E0               [24] 9039 	movx	a,@dptr
      002A9C FE               [12] 9040 	mov	r6,a
      002A9D 8B 82            [24] 9041 	mov	dpl,r3
      002A9F 8C 83            [24] 9042 	mov	dph,r4
      002AA1 8D F0            [24] 9043 	mov	b,r5
      002AA3 12r00r00         [24] 9044 	lcall	__gptrget
      002AA6 FB               [12] 9045 	mov	r3,a
      002AA7 EE               [12] 9046 	mov	a,r6
      002AA8 B5 03 37         [24] 9047 	cjne	a,ar3,00355$
                                   9048 ;	../../../../core/net/uip6.c:1810: UIP_TCP_BUF->seqno[3] != uip_connr->rcv_nxt[3])) {
      002AAB 7Er33            [12] 9049 	mov	r6,#(_uip_aligned_buf + 0x0028)
      002AAD 7Fs00            [12] 9050 	mov	r7,#((_uip_aligned_buf + 0x0028) >> 8)
      002AAF 74 07            [12] 9051 	mov	a,#0x07
      002AB1 2E               [12] 9052 	add	a,r6
      002AB2 FE               [12] 9053 	mov	r6,a
      002AB3 E4               [12] 9054 	clr	a
      002AB4 3F               [12] 9055 	addc	a,r7
      002AB5 FF               [12] 9056 	mov	r7,a
      002AB6 A8 81            [24] 9057 	mov	r0,sp
      002AB8 18               [12] 9058 	dec	r0
      002AB9 18               [12] 9059 	dec	r0
      002ABA 74 14            [12] 9060 	mov	a,#0x14
      002ABC 26               [12] 9061 	add	a,@r0
      002ABD FB               [12] 9062 	mov	r3,a
      002ABE E4               [12] 9063 	clr	a
      002ABF 08               [12] 9064 	inc	r0
      002AC0 36               [12] 9065 	addc	a,@r0
      002AC1 FC               [12] 9066 	mov	r4,a
      002AC2 08               [12] 9067 	inc	r0
      002AC3 86 05            [24] 9068 	mov	ar5,@r0
      002AC5 74 03            [12] 9069 	mov	a,#0x03
      002AC7 2B               [12] 9070 	add	a,r3
      002AC8 FB               [12] 9071 	mov	r3,a
      002AC9 E4               [12] 9072 	clr	a
      002ACA 3C               [12] 9073 	addc	a,r4
      002ACB FC               [12] 9074 	mov	r4,a
      002ACC 8E 82            [24] 9075 	mov	dpl,r6
      002ACE 8F 83            [24] 9076 	mov	dph,r7
      002AD0 E0               [24] 9077 	movx	a,@dptr
      002AD1 FE               [12] 9078 	mov	r6,a
      002AD2 8B 82            [24] 9079 	mov	dpl,r3
      002AD4 8C 83            [24] 9080 	mov	dph,r4
      002AD6 8D F0            [24] 9081 	mov	b,r5
      002AD8 12r00r00         [24] 9082 	lcall	__gptrget
      002ADB FB               [12] 9083 	mov	r3,a
      002ADC EE               [12] 9084 	mov	a,r6
      002ADD B5 03 02         [24] 9085 	cjne	a,ar3,01326$
      002AE0 80 18            [24] 9086 	sjmp	00363$
      002AE2                       9087 01326$:
      002AE2                       9088 00355$:
                                   9089 ;	../../../../core/net/uip6.c:1812: if(UIP_TCP_BUF->flags & TCP_SYN) {
      002AE2 7Er33            [12] 9090 	mov	r6,#(_uip_aligned_buf + 0x0028)
      002AE4 7Fs00            [12] 9091 	mov	r7,#((_uip_aligned_buf + 0x0028) >> 8)
      002AE6 74 0D            [12] 9092 	mov	a,#0x0D
      002AE8 2E               [12] 9093 	add	a,r6
      002AE9 F5 82            [12] 9094 	mov	dpl,a
      002AEB E4               [12] 9095 	clr	a
      002AEC 3F               [12] 9096 	addc	a,r7
      002AED F5 83            [12] 9097 	mov	dph,a
      002AEF E0               [24] 9098 	movx	a,@dptr
      002AF0 FF               [12] 9099 	mov	r7,a
      002AF1 20 E1 03         [24] 9100 	jb	acc.1,01327$
      002AF4 02r38r00         [24] 9101 	ljmp	00472$
      002AF7                       9102 01327$:
                                   9103 ;	../../../../core/net/uip6.c:1813: goto tcp_send_synack;
      002AF7 02r28r75         [24] 9104 	ljmp	00348$
                                   9105 ;	../../../../core/net/uip6.c:1815: goto tcp_send_ack;
      002AFA                       9106 00363$:
                                   9107 ;	../../../../core/net/uip6.c:1823: if((UIP_TCP_BUF->flags & TCP_ACK) && uip_outstanding(uip_connr)) {
      002AFA 7Er33            [12] 9108 	mov	r6,#(_uip_aligned_buf + 0x0028)
      002AFC 7Fs00            [12] 9109 	mov	r7,#((_uip_aligned_buf + 0x0028) >> 8)
      002AFE 74 0D            [12] 9110 	mov	a,#0x0D
      002B00 2E               [12] 9111 	add	a,r6
      002B01 F5 82            [12] 9112 	mov	dpl,a
      002B03 E4               [12] 9113 	clr	a
      002B04 3F               [12] 9114 	addc	a,r7
      002B05 F5 83            [12] 9115 	mov	dph,a
      002B07 E0               [24] 9116 	movx	a,@dptr
      002B08 FF               [12] 9117 	mov	r7,a
      002B09 20 E4 03         [24] 9118 	jb	acc.4,01328$
      002B0C 02r2Er11         [24] 9119 	ljmp	00377$
      002B0F                       9120 01328$:
      002B0F A8 81            [24] 9121 	mov	r0,sp
      002B11 18               [12] 9122 	dec	r0
      002B12 18               [12] 9123 	dec	r0
      002B13 74 1C            [12] 9124 	mov	a,#0x1C
      002B15 26               [12] 9125 	add	a,@r0
      002B16 FD               [12] 9126 	mov	r5,a
      002B17 E4               [12] 9127 	clr	a
      002B18 08               [12] 9128 	inc	r0
      002B19 36               [12] 9129 	addc	a,@r0
      002B1A FE               [12] 9130 	mov	r6,a
      002B1B 08               [12] 9131 	inc	r0
      002B1C 86 07            [24] 9132 	mov	ar7,@r0
      002B1E 8D 82            [24] 9133 	mov	dpl,r5
      002B20 8E 83            [24] 9134 	mov	dph,r6
      002B22 8F F0            [24] 9135 	mov	b,r7
      002B24 12r00r00         [24] 9136 	lcall	__gptrget
      002B27 FB               [12] 9137 	mov	r3,a
      002B28 A3               [24] 9138 	inc	dptr
      002B29 12r00r00         [24] 9139 	lcall	__gptrget
      002B2C FC               [12] 9140 	mov	r4,a
      002B2D 4B               [12] 9141 	orl	a,r3
      002B2E 70 03            [24] 9142 	jnz	01329$
      002B30 02r2Er11         [24] 9143 	ljmp	00377$
      002B33                       9144 01329$:
                                   9145 ;	../../../../core/net/uip6.c:1824: uip_add32(uip_connr->snd_nxt, uip_connr->len);
      002B33 C0 05            [24] 9146 	push	ar5
      002B35 C0 06            [24] 9147 	push	ar6
      002B37 C0 07            [24] 9148 	push	ar7
      002B39 E5 81            [12] 9149 	mov	a,sp
      002B3B 24 FB            [12] 9150 	add	a,#0xfb
      002B3D F8               [12] 9151 	mov	r0,a
      002B3E 74 18            [12] 9152 	mov	a,#0x18
      002B40 26               [12] 9153 	add	a,@r0
      002B41 FA               [12] 9154 	mov	r2,a
      002B42 E4               [12] 9155 	clr	a
      002B43 08               [12] 9156 	inc	r0
      002B44 36               [12] 9157 	addc	a,@r0
      002B45 FE               [12] 9158 	mov	r6,a
      002B46 08               [12] 9159 	inc	r0
      002B47 86 07            [24] 9160 	mov	ar7,@r0
      002B49 C0 07            [24] 9161 	push	ar7
      002B4B C0 06            [24] 9162 	push	ar6
      002B4D C0 05            [24] 9163 	push	ar5
      002B4F C0 03            [24] 9164 	push	ar3
      002B51 C0 04            [24] 9165 	push	ar4
      002B53 8A 82            [24] 9166 	mov	dpl,r2
      002B55 8E 83            [24] 9167 	mov	dph,r6
      002B57 8F F0            [24] 9168 	mov	b,r7
      002B59 78r00            [12] 9169 	mov	r0,#_uip_add32
      002B5B 79s00            [12] 9170 	mov	r1,#(_uip_add32 >> 8)
      002B5D 7As00            [12] 9171 	mov	r2,#(_uip_add32 >> 16)
      002B5F 12r00r00         [24] 9172 	lcall	__sdcc_banked_call
      002B62 15 81            [12] 9173 	dec	sp
      002B64 15 81            [12] 9174 	dec	sp
      002B66 D0 05            [24] 9175 	pop	ar5
      002B68 D0 06            [24] 9176 	pop	ar6
      002B6A D0 07            [24] 9177 	pop	ar7
                                   9178 ;	../../../../core/net/uip6.c:1826: if(UIP_TCP_BUF->ackno[0] == uip_acc32[0] &&
      002B6C 7Er33            [12] 9179 	mov	r6,#(_uip_aligned_buf + 0x0028)
      002B6E 7Fs00            [12] 9180 	mov	r7,#((_uip_aligned_buf + 0x0028) >> 8)
      002B70 74 08            [12] 9181 	mov	a,#0x08
      002B72 2E               [12] 9182 	add	a,r6
      002B73 FE               [12] 9183 	mov	r6,a
      002B74 E4               [12] 9184 	clr	a
      002B75 3F               [12] 9185 	addc	a,r7
      002B76 FF               [12] 9186 	mov	r7,a
      002B77 90r03r04         [24] 9187 	mov	dptr,#_uip_acc32
      002B7A E5 81            [12] 9188 	mov	a,sp
      002B7C 24 F9            [12] 9189 	add	a,#0xf9
      002B7E F8               [12] 9190 	mov	r0,a
      002B7F E0               [24] 9191 	movx	a,@dptr
      002B80 F6               [12] 9192 	mov	@r0,a
      002B81 8E 82            [24] 9193 	mov	dpl,r6
      002B83 8F 83            [24] 9194 	mov	dph,r7
      002B85 E0               [24] 9195 	movx	a,@dptr
      002B86 FE               [12] 9196 	mov	r6,a
      002B87 E5 81            [12] 9197 	mov	a,sp
      002B89 24 F9            [12] 9198 	add	a,#0xf9
      002B8B F8               [12] 9199 	mov	r0,a
      002B8C E6               [12] 9200 	mov	a,@r0
      002B8D B5 06 02         [24] 9201 	cjne	a,ar6,01330$
      002B90 80 09            [24] 9202 	sjmp	01331$
      002B92                       9203 01330$:
      002B92 D0 07            [24] 9204 	pop	ar7
      002B94 D0 06            [24] 9205 	pop	ar6
      002B96 D0 05            [24] 9206 	pop	ar5
      002B98 02r2Er11         [24] 9207 	ljmp	00377$
      002B9B                       9208 01331$:
      002B9B D0 07            [24] 9209 	pop	ar7
      002B9D D0 06            [24] 9210 	pop	ar6
      002B9F D0 05            [24] 9211 	pop	ar5
                                   9212 ;	../../../../core/net/uip6.c:1827: UIP_TCP_BUF->ackno[1] == uip_acc32[1] &&
      002BA1 7Br33            [12] 9213 	mov	r3,#(_uip_aligned_buf + 0x0028)
      002BA3 7Cs00            [12] 9214 	mov	r4,#((_uip_aligned_buf + 0x0028) >> 8)
      002BA5 74 09            [12] 9215 	mov	a,#0x09
      002BA7 2B               [12] 9216 	add	a,r3
      002BA8 FB               [12] 9217 	mov	r3,a
      002BA9 E4               [12] 9218 	clr	a
      002BAA 3C               [12] 9219 	addc	a,r4
      002BAB FC               [12] 9220 	mov	r4,a
      002BAC 90r03r05         [24] 9221 	mov	dptr,#(_uip_acc32 + 0x0001)
      002BAF E0               [24] 9222 	movx	a,@dptr
      002BB0 FA               [12] 9223 	mov	r2,a
      002BB1 8B 82            [24] 9224 	mov	dpl,r3
      002BB3 8C 83            [24] 9225 	mov	dph,r4
      002BB5 E0               [24] 9226 	movx	a,@dptr
      002BB6 FB               [12] 9227 	mov	r3,a
      002BB7 B5 02 02         [24] 9228 	cjne	a,ar2,01332$
      002BBA 80 03            [24] 9229 	sjmp	01333$
      002BBC                       9230 01332$:
      002BBC 02r2Er11         [24] 9231 	ljmp	00377$
      002BBF                       9232 01333$:
                                   9233 ;	../../../../core/net/uip6.c:1828: UIP_TCP_BUF->ackno[2] == uip_acc32[2] &&
      002BBF 7Br33            [12] 9234 	mov	r3,#(_uip_aligned_buf + 0x0028)
      002BC1 7Cs00            [12] 9235 	mov	r4,#((_uip_aligned_buf + 0x0028) >> 8)
      002BC3 74 0A            [12] 9236 	mov	a,#0x0A
      002BC5 2B               [12] 9237 	add	a,r3
      002BC6 FB               [12] 9238 	mov	r3,a
      002BC7 E4               [12] 9239 	clr	a
      002BC8 3C               [12] 9240 	addc	a,r4
      002BC9 FC               [12] 9241 	mov	r4,a
      002BCA 90r03r06         [24] 9242 	mov	dptr,#(_uip_acc32 + 0x0002)
      002BCD E0               [24] 9243 	movx	a,@dptr
      002BCE FA               [12] 9244 	mov	r2,a
      002BCF 8B 82            [24] 9245 	mov	dpl,r3
      002BD1 8C 83            [24] 9246 	mov	dph,r4
      002BD3 E0               [24] 9247 	movx	a,@dptr
      002BD4 FB               [12] 9248 	mov	r3,a
      002BD5 B5 02 02         [24] 9249 	cjne	a,ar2,01334$
      002BD8 80 03            [24] 9250 	sjmp	01335$
      002BDA                       9251 01334$:
      002BDA 02r2Er11         [24] 9252 	ljmp	00377$
      002BDD                       9253 01335$:
                                   9254 ;	../../../../core/net/uip6.c:1829: UIP_TCP_BUF->ackno[3] == uip_acc32[3]) {
      002BDD 7Br33            [12] 9255 	mov	r3,#(_uip_aligned_buf + 0x0028)
      002BDF 7Cs00            [12] 9256 	mov	r4,#((_uip_aligned_buf + 0x0028) >> 8)
      002BE1 74 0B            [12] 9257 	mov	a,#0x0B
      002BE3 2B               [12] 9258 	add	a,r3
      002BE4 FB               [12] 9259 	mov	r3,a
      002BE5 E4               [12] 9260 	clr	a
      002BE6 3C               [12] 9261 	addc	a,r4
      002BE7 FC               [12] 9262 	mov	r4,a
      002BE8 90r03r07         [24] 9263 	mov	dptr,#(_uip_acc32 + 0x0003)
      002BEB E0               [24] 9264 	movx	a,@dptr
      002BEC FA               [12] 9265 	mov	r2,a
      002BED 8B 82            [24] 9266 	mov	dpl,r3
      002BEF 8C 83            [24] 9267 	mov	dph,r4
      002BF1 E0               [24] 9268 	movx	a,@dptr
      002BF2 FB               [12] 9269 	mov	r3,a
      002BF3 B5 02 02         [24] 9270 	cjne	a,ar2,01336$
      002BF6 80 03            [24] 9271 	sjmp	01337$
      002BF8                       9272 01336$:
      002BF8 02r2Er11         [24] 9273 	ljmp	00377$
      002BFB                       9274 01337$:
                                   9275 ;	../../../../core/net/uip6.c:1831: uip_connr->snd_nxt[0] = uip_acc32[0];
      002BFB C0 05            [24] 9276 	push	ar5
      002BFD C0 06            [24] 9277 	push	ar6
      002BFF C0 07            [24] 9278 	push	ar7
      002C01 E5 81            [12] 9279 	mov	a,sp
      002C03 24 FB            [12] 9280 	add	a,#0xfb
      002C05 F8               [12] 9281 	mov	r0,a
      002C06 74 18            [12] 9282 	mov	a,#0x18
      002C08 26               [12] 9283 	add	a,@r0
      002C09 FA               [12] 9284 	mov	r2,a
      002C0A E4               [12] 9285 	clr	a
      002C0B 08               [12] 9286 	inc	r0
      002C0C 36               [12] 9287 	addc	a,@r0
      002C0D FB               [12] 9288 	mov	r3,a
      002C0E 08               [12] 9289 	inc	r0
      002C0F 86 04            [24] 9290 	mov	ar4,@r0
      002C11 8A 82            [24] 9291 	mov	dpl,r2
      002C13 8B 83            [24] 9292 	mov	dph,r3
      002C15 8C F0            [24] 9293 	mov	b,r4
      002C17 E5 81            [12] 9294 	mov	a,sp
      002C19 24 F9            [12] 9295 	add	a,#0xf9
      002C1B F8               [12] 9296 	mov	r0,a
      002C1C E6               [12] 9297 	mov	a,@r0
      002C1D 12r00r00         [24] 9298 	lcall	__gptrput
                                   9299 ;	../../../../core/net/uip6.c:1832: uip_connr->snd_nxt[1] = uip_acc32[1];
      002C20 E5 81            [12] 9300 	mov	a,sp
      002C22 24 FB            [12] 9301 	add	a,#0xfb
      002C24 F8               [12] 9302 	mov	r0,a
      002C25 74 18            [12] 9303 	mov	a,#0x18
      002C27 26               [12] 9304 	add	a,@r0
      002C28 FA               [12] 9305 	mov	r2,a
      002C29 E4               [12] 9306 	clr	a
      002C2A 08               [12] 9307 	inc	r0
      002C2B 36               [12] 9308 	addc	a,@r0
      002C2C FB               [12] 9309 	mov	r3,a
      002C2D 08               [12] 9310 	inc	r0
      002C2E 86 04            [24] 9311 	mov	ar4,@r0
      002C30 E5 81            [12] 9312 	mov	a,sp
      002C32 24 F6            [12] 9313 	add	a,#0xf6
      002C34 F8               [12] 9314 	mov	r0,a
      002C35 74 01            [12] 9315 	mov	a,#0x01
      002C37 2A               [12] 9316 	add	a,r2
      002C38 F6               [12] 9317 	mov	@r0,a
      002C39 E4               [12] 9318 	clr	a
      002C3A 3B               [12] 9319 	addc	a,r3
      002C3B 08               [12] 9320 	inc	r0
      002C3C F6               [12] 9321 	mov	@r0,a
      002C3D 08               [12] 9322 	inc	r0
      002C3E A6 04            [24] 9323 	mov	@r0,ar4
      002C40 90r03r05         [24] 9324 	mov	dptr,#(_uip_acc32 + 0x0001)
      002C43 E0               [24] 9325 	movx	a,@dptr
      002C44 FF               [12] 9326 	mov	r7,a
      002C45 E5 81            [12] 9327 	mov	a,sp
      002C47 24 F6            [12] 9328 	add	a,#0xf6
      002C49 F8               [12] 9329 	mov	r0,a
      002C4A 86 82            [24] 9330 	mov	dpl,@r0
      002C4C 08               [12] 9331 	inc	r0
      002C4D 86 83            [24] 9332 	mov	dph,@r0
      002C4F 08               [12] 9333 	inc	r0
      002C50 86 F0            [24] 9334 	mov	b,@r0
      002C52 EF               [12] 9335 	mov	a,r7
      002C53 12r00r00         [24] 9336 	lcall	__gptrput
                                   9337 ;	../../../../core/net/uip6.c:1833: uip_connr->snd_nxt[2] = uip_acc32[2];
      002C56 E5 81            [12] 9338 	mov	a,sp
      002C58 24 F6            [12] 9339 	add	a,#0xf6
      002C5A F8               [12] 9340 	mov	r0,a
      002C5B 74 02            [12] 9341 	mov	a,#0x02
      002C5D 2A               [12] 9342 	add	a,r2
      002C5E F6               [12] 9343 	mov	@r0,a
      002C5F E4               [12] 9344 	clr	a
      002C60 3B               [12] 9345 	addc	a,r3
      002C61 08               [12] 9346 	inc	r0
      002C62 F6               [12] 9347 	mov	@r0,a
      002C63 08               [12] 9348 	inc	r0
      002C64 A6 04            [24] 9349 	mov	@r0,ar4
      002C66 90r03r06         [24] 9350 	mov	dptr,#(_uip_acc32 + 0x0002)
      002C69 E0               [24] 9351 	movx	a,@dptr
      002C6A FF               [12] 9352 	mov	r7,a
      002C6B E5 81            [12] 9353 	mov	a,sp
      002C6D 24 F6            [12] 9354 	add	a,#0xf6
      002C6F F8               [12] 9355 	mov	r0,a
      002C70 86 82            [24] 9356 	mov	dpl,@r0
      002C72 08               [12] 9357 	inc	r0
      002C73 86 83            [24] 9358 	mov	dph,@r0
      002C75 08               [12] 9359 	inc	r0
      002C76 86 F0            [24] 9360 	mov	b,@r0
      002C78 EF               [12] 9361 	mov	a,r7
      002C79 12r00r00         [24] 9362 	lcall	__gptrput
                                   9363 ;	../../../../core/net/uip6.c:1834: uip_connr->snd_nxt[3] = uip_acc32[3];
      002C7C 74 03            [12] 9364 	mov	a,#0x03
      002C7E 2A               [12] 9365 	add	a,r2
      002C7F FA               [12] 9366 	mov	r2,a
      002C80 E4               [12] 9367 	clr	a
      002C81 3B               [12] 9368 	addc	a,r3
      002C82 FB               [12] 9369 	mov	r3,a
      002C83 90r03r07         [24] 9370 	mov	dptr,#(_uip_acc32 + 0x0003)
      002C86 E0               [24] 9371 	movx	a,@dptr
      002C87 8A 82            [24] 9372 	mov	dpl,r2
      002C89 8B 83            [24] 9373 	mov	dph,r3
      002C8B 8C F0            [24] 9374 	mov	b,r4
      002C8D 12r00r00         [24] 9375 	lcall	__gptrput
                                   9376 ;	../../../../core/net/uip6.c:1837: if(uip_connr->nrtx == 0) {
      002C90 E5 81            [12] 9377 	mov	a,sp
      002C92 24 FB            [12] 9378 	add	a,#0xfb
      002C94 F8               [12] 9379 	mov	r0,a
      002C95 74 27            [12] 9380 	mov	a,#0x27
      002C97 26               [12] 9381 	add	a,@r0
      002C98 FD               [12] 9382 	mov	r5,a
      002C99 E4               [12] 9383 	clr	a
      002C9A 08               [12] 9384 	inc	r0
      002C9B 36               [12] 9385 	addc	a,@r0
      002C9C FE               [12] 9386 	mov	r6,a
      002C9D 08               [12] 9387 	inc	r0
      002C9E 86 07            [24] 9388 	mov	ar7,@r0
      002CA0 8D 82            [24] 9389 	mov	dpl,r5
      002CA2 8E 83            [24] 9390 	mov	dph,r6
      002CA4 8F F0            [24] 9391 	mov	b,r7
      002CA6 12r00r00         [24] 9392 	lcall	__gptrget
      002CA9 D0 07            [24] 9393 	pop	ar7
      002CAB D0 06            [24] 9394 	pop	ar6
      002CAD D0 05            [24] 9395 	pop	ar5
      002CAF 60 03            [24] 9396 	jz	01338$
      002CB1 02r2DrBC         [24] 9397 	ljmp	00370$
      002CB4                       9398 01338$:
                                   9399 ;	../../../../core/net/uip6.c:1839: m = uip_connr->rto - uip_connr->timer;
      002CB4 C0 05            [24] 9400 	push	ar5
      002CB6 C0 06            [24] 9401 	push	ar6
      002CB8 C0 07            [24] 9402 	push	ar7
      002CBA E5 81            [12] 9403 	mov	a,sp
      002CBC 24 FB            [12] 9404 	add	a,#0xfb
      002CBE F8               [12] 9405 	mov	r0,a
      002CBF E5 81            [12] 9406 	mov	a,sp
      002CC1 24 F3            [12] 9407 	add	a,#0xf3
      002CC3 F9               [12] 9408 	mov	r1,a
      002CC4 74 24            [12] 9409 	mov	a,#0x24
      002CC6 26               [12] 9410 	add	a,@r0
      002CC7 F7               [12] 9411 	mov	@r1,a
      002CC8 E4               [12] 9412 	clr	a
      002CC9 08               [12] 9413 	inc	r0
      002CCA 36               [12] 9414 	addc	a,@r0
      002CCB 09               [12] 9415 	inc	r1
      002CCC F7               [12] 9416 	mov	@r1,a
      002CCD 08               [12] 9417 	inc	r0
      002CCE 09               [12] 9418 	inc	r1
      002CCF E6               [12] 9419 	mov	a,@r0
      002CD0 F7               [12] 9420 	mov	@r1,a
      002CD1 E5 81            [12] 9421 	mov	a,sp
      002CD3 24 F3            [12] 9422 	add	a,#0xf3
      002CD5 F8               [12] 9423 	mov	r0,a
      002CD6 86 82            [24] 9424 	mov	dpl,@r0
      002CD8 08               [12] 9425 	inc	r0
      002CD9 86 83            [24] 9426 	mov	dph,@r0
      002CDB 08               [12] 9427 	inc	r0
      002CDC 86 F0            [24] 9428 	mov	b,@r0
      002CDE 12r00r00         [24] 9429 	lcall	__gptrget
      002CE1 FC               [12] 9430 	mov	r4,a
      002CE2 E5 81            [12] 9431 	mov	a,sp
      002CE4 24 FB            [12] 9432 	add	a,#0xfb
      002CE6 F8               [12] 9433 	mov	r0,a
      002CE7 74 26            [12] 9434 	mov	a,#0x26
      002CE9 26               [12] 9435 	add	a,@r0
      002CEA FD               [12] 9436 	mov	r5,a
      002CEB E4               [12] 9437 	clr	a
      002CEC 08               [12] 9438 	inc	r0
      002CED 36               [12] 9439 	addc	a,@r0
      002CEE FE               [12] 9440 	mov	r6,a
      002CEF 08               [12] 9441 	inc	r0
      002CF0 86 07            [24] 9442 	mov	ar7,@r0
      002CF2 8D 82            [24] 9443 	mov	dpl,r5
      002CF4 8E 83            [24] 9444 	mov	dph,r6
      002CF6 8F F0            [24] 9445 	mov	b,r7
      002CF8 12r00r00         [24] 9446 	lcall	__gptrget
      002CFB FD               [12] 9447 	mov	r5,a
      002CFC EC               [12] 9448 	mov	a,r4
      002CFD C3               [12] 9449 	clr	c
      002CFE 9D               [12] 9450 	subb	a,r5
      002CFF FA               [12] 9451 	mov	r2,a
                                   9452 ;	../../../../core/net/uip6.c:1841: m = m - (uip_connr->sa >> 3);
      002D00 E5 81            [12] 9453 	mov	a,sp
      002D02 24 FB            [12] 9454 	add	a,#0xfb
      002D04 F8               [12] 9455 	mov	r0,a
      002D05 E5 81            [12] 9456 	mov	a,sp
      002D07 24 F6            [12] 9457 	add	a,#0xf6
      002D09 F9               [12] 9458 	mov	r1,a
      002D0A 74 22            [12] 9459 	mov	a,#0x22
      002D0C 26               [12] 9460 	add	a,@r0
      002D0D F7               [12] 9461 	mov	@r1,a
      002D0E E4               [12] 9462 	clr	a
      002D0F 08               [12] 9463 	inc	r0
      002D10 36               [12] 9464 	addc	a,@r0
      002D11 09               [12] 9465 	inc	r1
      002D12 F7               [12] 9466 	mov	@r1,a
      002D13 08               [12] 9467 	inc	r0
      002D14 09               [12] 9468 	inc	r1
      002D15 E6               [12] 9469 	mov	a,@r0
      002D16 F7               [12] 9470 	mov	@r1,a
      002D17 E5 81            [12] 9471 	mov	a,sp
      002D19 24 F6            [12] 9472 	add	a,#0xf6
      002D1B F8               [12] 9473 	mov	r0,a
      002D1C 86 82            [24] 9474 	mov	dpl,@r0
      002D1E 08               [12] 9475 	inc	r0
      002D1F 86 83            [24] 9476 	mov	dph,@r0
      002D21 08               [12] 9477 	inc	r0
      002D22 86 F0            [24] 9478 	mov	b,@r0
      002D24 12r00r00         [24] 9479 	lcall	__gptrget
      002D27 FF               [12] 9480 	mov	r7,a
      002D28 C4               [12] 9481 	swap	a
      002D29 23               [12] 9482 	rl	a
      002D2A 54 1F            [12] 9483 	anl	a,#0x1F
      002D2C FE               [12] 9484 	mov	r6,a
      002D2D EA               [12] 9485 	mov	a,r2
      002D2E C3               [12] 9486 	clr	c
      002D2F 9E               [12] 9487 	subb	a,r6
                                   9488 ;	../../../../core/net/uip6.c:1842: uip_connr->sa += m;
      002D30 FA               [12] 9489 	mov	r2,a
      002D31 2F               [12] 9490 	add	a,r7
      002D32 FF               [12] 9491 	mov	r7,a
      002D33 E5 81            [12] 9492 	mov	a,sp
      002D35 24 F6            [12] 9493 	add	a,#0xf6
      002D37 F8               [12] 9494 	mov	r0,a
      002D38 86 82            [24] 9495 	mov	dpl,@r0
      002D3A 08               [12] 9496 	inc	r0
      002D3B 86 83            [24] 9497 	mov	dph,@r0
      002D3D 08               [12] 9498 	inc	r0
      002D3E 86 F0            [24] 9499 	mov	b,@r0
      002D40 EF               [12] 9500 	mov	a,r7
      002D41 12r00r00         [24] 9501 	lcall	__gptrput
                                   9502 ;	../../../../core/net/uip6.c:1843: if(m < 0) {
      002D44 EA               [12] 9503 	mov	a,r2
      002D45 D0 07            [24] 9504 	pop	ar7
      002D47 D0 06            [24] 9505 	pop	ar6
      002D49 D0 05            [24] 9506 	pop	ar5
      002D4B 30 E7 04         [24] 9507 	jnb	acc.7,00368$
                                   9508 ;	../../../../core/net/uip6.c:1844: m = -m;
      002D4E C3               [12] 9509 	clr	c
      002D4F E4               [12] 9510 	clr	a
      002D50 9A               [12] 9511 	subb	a,r2
      002D51 FA               [12] 9512 	mov	r2,a
      002D52                       9513 00368$:
                                   9514 ;	../../../../core/net/uip6.c:1846: m = m - (uip_connr->sv >> 2);
      002D52 C0 05            [24] 9515 	push	ar5
      002D54 C0 06            [24] 9516 	push	ar6
      002D56 C0 07            [24] 9517 	push	ar7
      002D58 E5 81            [12] 9518 	mov	a,sp
      002D5A 24 FB            [12] 9519 	add	a,#0xfb
      002D5C F8               [12] 9520 	mov	r0,a
      002D5D 74 23            [12] 9521 	mov	a,#0x23
      002D5F 26               [12] 9522 	add	a,@r0
      002D60 FD               [12] 9523 	mov	r5,a
      002D61 E4               [12] 9524 	clr	a
      002D62 08               [12] 9525 	inc	r0
      002D63 36               [12] 9526 	addc	a,@r0
      002D64 FE               [12] 9527 	mov	r6,a
      002D65 08               [12] 9528 	inc	r0
      002D66 86 07            [24] 9529 	mov	ar7,@r0
      002D68 8D 82            [24] 9530 	mov	dpl,r5
      002D6A 8E 83            [24] 9531 	mov	dph,r6
      002D6C 8F F0            [24] 9532 	mov	b,r7
      002D6E 12r00r00         [24] 9533 	lcall	__gptrget
      002D71 FC               [12] 9534 	mov	r4,a
      002D72 03               [12] 9535 	rr	a
      002D73 03               [12] 9536 	rr	a
      002D74 54 3F            [12] 9537 	anl	a,#0x3F
      002D76 FB               [12] 9538 	mov	r3,a
      002D77 EA               [12] 9539 	mov	a,r2
      002D78 C3               [12] 9540 	clr	c
      002D79 9B               [12] 9541 	subb	a,r3
                                   9542 ;	../../../../core/net/uip6.c:1847: uip_connr->sv += m;
      002D7A FA               [12] 9543 	mov	r2,a
      002D7B 2C               [12] 9544 	add	a,r4
      002D7C 8D 82            [24] 9545 	mov	dpl,r5
      002D7E 8E 83            [24] 9546 	mov	dph,r6
      002D80 8F F0            [24] 9547 	mov	b,r7
      002D82 12r00r00         [24] 9548 	lcall	__gptrput
                                   9549 ;	../../../../core/net/uip6.c:1848: uip_connr->rto = (uip_connr->sa >> 3) + uip_connr->sv;
      002D85 E5 81            [12] 9550 	mov	a,sp
      002D87 24 F6            [12] 9551 	add	a,#0xf6
      002D89 F8               [12] 9552 	mov	r0,a
      002D8A 86 82            [24] 9553 	mov	dpl,@r0
      002D8C 08               [12] 9554 	inc	r0
      002D8D 86 83            [24] 9555 	mov	dph,@r0
      002D8F 08               [12] 9556 	inc	r0
      002D90 86 F0            [24] 9557 	mov	b,@r0
      002D92 12r00r00         [24] 9558 	lcall	__gptrget
      002D95 C4               [12] 9559 	swap	a
      002D96 23               [12] 9560 	rl	a
      002D97 54 1F            [12] 9561 	anl	a,#0x1F
      002D99 FC               [12] 9562 	mov	r4,a
      002D9A 8D 82            [24] 9563 	mov	dpl,r5
      002D9C 8E 83            [24] 9564 	mov	dph,r6
      002D9E 8F F0            [24] 9565 	mov	b,r7
      002DA0 12r00r00         [24] 9566 	lcall	__gptrget
      002DA3 2C               [12] 9567 	add	a,r4
      002DA4 FC               [12] 9568 	mov	r4,a
      002DA5 E5 81            [12] 9569 	mov	a,sp
      002DA7 24 F3            [12] 9570 	add	a,#0xf3
      002DA9 F8               [12] 9571 	mov	r0,a
      002DAA 86 82            [24] 9572 	mov	dpl,@r0
      002DAC 08               [12] 9573 	inc	r0
      002DAD 86 83            [24] 9574 	mov	dph,@r0
      002DAF 08               [12] 9575 	inc	r0
      002DB0 86 F0            [24] 9576 	mov	b,@r0
      002DB2 EC               [12] 9577 	mov	a,r4
      002DB3 12r00r00         [24] 9578 	lcall	__gptrput
                                   9579 ;	../../../../core/net/uip6.c:2275: return;
      002DB6 D0 07            [24] 9580 	pop	ar7
      002DB8 D0 06            [24] 9581 	pop	ar6
      002DBA D0 05            [24] 9582 	pop	ar5
                                   9583 ;	../../../../core/net/uip6.c:1848: uip_connr->rto = (uip_connr->sa >> 3) + uip_connr->sv;
      002DBC                       9584 00370$:
                                   9585 ;	../../../../core/net/uip6.c:1852: uip_flags = UIP_ACKDATA;
      002DBC 90r01r05         [24] 9586 	mov	dptr,#_uip_flags
      002DBF 74 01            [12] 9587 	mov	a,#0x01
      002DC1 F0               [24] 9588 	movx	@dptr,a
                                   9589 ;	../../../../core/net/uip6.c:1854: uip_connr->timer = uip_connr->rto;
      002DC2 A8 81            [24] 9590 	mov	r0,sp
      002DC4 18               [12] 9591 	dec	r0
      002DC5 18               [12] 9592 	dec	r0
      002DC6 E5 81            [12] 9593 	mov	a,sp
      002DC8 24 F9            [12] 9594 	add	a,#0xf9
      002DCA F9               [12] 9595 	mov	r1,a
      002DCB 74 26            [12] 9596 	mov	a,#0x26
      002DCD 26               [12] 9597 	add	a,@r0
      002DCE F7               [12] 9598 	mov	@r1,a
      002DCF E4               [12] 9599 	clr	a
      002DD0 08               [12] 9600 	inc	r0
      002DD1 36               [12] 9601 	addc	a,@r0
      002DD2 09               [12] 9602 	inc	r1
      002DD3 F7               [12] 9603 	mov	@r1,a
      002DD4 08               [12] 9604 	inc	r0
      002DD5 09               [12] 9605 	inc	r1
      002DD6 E6               [12] 9606 	mov	a,@r0
      002DD7 F7               [12] 9607 	mov	@r1,a
      002DD8 A8 81            [24] 9608 	mov	r0,sp
      002DDA 18               [12] 9609 	dec	r0
      002DDB 18               [12] 9610 	dec	r0
      002DDC 74 24            [12] 9611 	mov	a,#0x24
      002DDE 26               [12] 9612 	add	a,@r0
      002DDF FA               [12] 9613 	mov	r2,a
      002DE0 E4               [12] 9614 	clr	a
      002DE1 08               [12] 9615 	inc	r0
      002DE2 36               [12] 9616 	addc	a,@r0
      002DE3 FB               [12] 9617 	mov	r3,a
      002DE4 08               [12] 9618 	inc	r0
      002DE5 86 04            [24] 9619 	mov	ar4,@r0
      002DE7 8A 82            [24] 9620 	mov	dpl,r2
      002DE9 8B 83            [24] 9621 	mov	dph,r3
      002DEB 8C F0            [24] 9622 	mov	b,r4
      002DED 12r00r00         [24] 9623 	lcall	__gptrget
      002DF0 FA               [12] 9624 	mov	r2,a
      002DF1 E5 81            [12] 9625 	mov	a,sp
      002DF3 24 F9            [12] 9626 	add	a,#0xf9
      002DF5 F8               [12] 9627 	mov	r0,a
      002DF6 86 82            [24] 9628 	mov	dpl,@r0
      002DF8 08               [12] 9629 	inc	r0
      002DF9 86 83            [24] 9630 	mov	dph,@r0
      002DFB 08               [12] 9631 	inc	r0
      002DFC 86 F0            [24] 9632 	mov	b,@r0
      002DFE EA               [12] 9633 	mov	a,r2
      002DFF 12r00r00         [24] 9634 	lcall	__gptrput
                                   9635 ;	../../../../core/net/uip6.c:1857: uip_connr->len = 0;
      002E02 8D 82            [24] 9636 	mov	dpl,r5
      002E04 8E 83            [24] 9637 	mov	dph,r6
      002E06 8F F0            [24] 9638 	mov	b,r7
      002E08 E4               [12] 9639 	clr	a
      002E09 12r00r00         [24] 9640 	lcall	__gptrput
      002E0C A3               [24] 9641 	inc	dptr
      002E0D E4               [12] 9642 	clr	a
      002E0E 12r00r00         [24] 9643 	lcall	__gptrput
      002E11                       9644 00377$:
                                   9645 ;	../../../../core/net/uip6.c:1863: switch(uip_connr->tcpstateflags & UIP_TS_MASK) {
      002E11 A8 81            [24] 9646 	mov	r0,sp
      002E13 18               [12] 9647 	dec	r0
      002E14 18               [12] 9648 	dec	r0
      002E15 74 25            [12] 9649 	mov	a,#0x25
      002E17 26               [12] 9650 	add	a,@r0
      002E18 FD               [12] 9651 	mov	r5,a
      002E19 E4               [12] 9652 	clr	a
      002E1A 08               [12] 9653 	inc	r0
      002E1B 36               [12] 9654 	addc	a,@r0
      002E1C FE               [12] 9655 	mov	r6,a
      002E1D 08               [12] 9656 	inc	r0
      002E1E 86 07            [24] 9657 	mov	ar7,@r0
      002E20 8D 82            [24] 9658 	mov	dpl,r5
      002E22 8E 83            [24] 9659 	mov	dph,r6
      002E24 8F F0            [24] 9660 	mov	b,r7
      002E26 12r00r00         [24] 9661 	lcall	__gptrget
      002E29 FC               [12] 9662 	mov	r4,a
      002E2A 74 0F            [12] 9663 	mov	a,#0x0F
      002E2C 5C               [12] 9664 	anl	a,r4
      002E2D FB               [12] 9665 	mov  r3,a
      002E2E 24 F7            [12] 9666 	add	a,#0xff - 0x08
      002E30 50 03            [24] 9667 	jnc	01340$
      002E32 02r3Br87         [24] 9668 	ljmp	00482$
      002E35                       9669 01340$:
      002E35 EB               [12] 9670 	mov	a,r3
      002E36 24 0A            [12] 9671 	add	a,#(01341$-3-.)
      002E38 83               [24] 9672 	movc	a,@a+pc
      002E39 F5 82            [12] 9673 	mov	dpl,a
      002E3B EB               [12] 9674 	mov	a,r3
      002E3C 24 0D            [12] 9675 	add	a,#(01342$-3-.)
      002E3E 83               [24] 9676 	movc	a,@a+pc
      002E3F F5 83            [12] 9677 	mov	dph,a
      002E41 E4               [12] 9678 	clr	a
      002E42 73               [24] 9679 	jmp	@a+dptr
      002E43                       9680 01341$:
      002E43rFD                    9681 	.db	00471$
      002E44r55                    9682 	.db	00379$
      002E45rDB                    9683 	.db	00386$
      002E46rDA                    9684 	.db	00405$
      002E47r55                    9685 	.db	00447$
      002E48r45                    9686 	.db	00460$
      002E49rCE                    9687 	.db	00468$
      002E4ArCC                    9688 	.db	00467$
      002E4Br2E                    9689 	.db	00444$
      002E4C                       9690 01342$:
      002E4Cs37                    9691 	.db	00471$>>8
      002E4Ds2E                    9692 	.db	00379$>>8
      002E4Es2E                    9693 	.db	00386$>>8
      002E4Fs31                    9694 	.db	00405$>>8
      002E50s36                    9695 	.db	00447$>>8
      002E51s37                    9696 	.db	00460$>>8
      002E52s37                    9697 	.db	00468$>>8
      002E53s37                    9698 	.db	00467$>>8
      002E54s36                    9699 	.db	00444$>>8
                                   9700 ;	../../../../core/net/uip6.c:1868: case UIP_SYN_RCVD:
      002E55                       9701 00379$:
                                   9702 ;	../../../../core/net/uip6.c:1873: if(uip_flags & UIP_ACKDATA) {
      002E55 90r01r05         [24] 9703 	mov	dptr,#_uip_flags
      002E58 E0               [24] 9704 	movx	a,@dptr
      002E59 FB               [12] 9705 	mov	r3,a
      002E5A 30 E0 61         [24] 9706 	jnb	acc.0,00383$
                                   9707 ;	../../../../core/net/uip6.c:1874: uip_connr->tcpstateflags = UIP_ESTABLISHED;
      002E5D 8D 82            [24] 9708 	mov	dpl,r5
      002E5F 8E 83            [24] 9709 	mov	dph,r6
      002E61 8F F0            [24] 9710 	mov	b,r7
      002E63 74 03            [12] 9711 	mov	a,#0x03
      002E65 12r00r00         [24] 9712 	lcall	__gptrput
                                   9713 ;	../../../../core/net/uip6.c:1875: uip_flags = UIP_CONNECTED;
      002E68 90r01r05         [24] 9714 	mov	dptr,#_uip_flags
      002E6B 74 40            [12] 9715 	mov	a,#0x40
      002E6D F0               [24] 9716 	movx	@dptr,a
                                   9717 ;	../../../../core/net/uip6.c:1876: uip_connr->len = 0;
      002E6E A8 81            [24] 9718 	mov	r0,sp
      002E70 18               [12] 9719 	dec	r0
      002E71 18               [12] 9720 	dec	r0
      002E72 74 1C            [12] 9721 	mov	a,#0x1C
      002E74 26               [12] 9722 	add	a,@r0
      002E75 FF               [12] 9723 	mov	r7,a
      002E76 E4               [12] 9724 	clr	a
      002E77 08               [12] 9725 	inc	r0
      002E78 36               [12] 9726 	addc	a,@r0
      002E79 FE               [12] 9727 	mov	r6,a
      002E7A 08               [12] 9728 	inc	r0
      002E7B 86 05            [24] 9729 	mov	ar5,@r0
      002E7D 8F 82            [24] 9730 	mov	dpl,r7
      002E7F 8E 83            [24] 9731 	mov	dph,r6
      002E81 8D F0            [24] 9732 	mov	b,r5
      002E83 E4               [12] 9733 	clr	a
      002E84 12r00r00         [24] 9734 	lcall	__gptrput
      002E87 A3               [24] 9735 	inc	dptr
      002E88 E4               [12] 9736 	clr	a
      002E89 12r00r00         [24] 9737 	lcall	__gptrput
                                   9738 ;	../../../../core/net/uip6.c:1877: if(uip_len > 0) {
      002E8C 90r01r01         [24] 9739 	mov	dptr,#_uip_len
      002E8F E0               [24] 9740 	movx	a,@dptr
      002E90 FA               [12] 9741 	mov	r2,a
      002E91 A3               [24] 9742 	inc	dptr
      002E92 E0               [24] 9743 	movx	a,@dptr
      002E93 FB               [12] 9744 	mov	r3,a
      002E94 4A               [12] 9745 	orl	a,r2
      002E95 60 13            [24] 9746 	jz	00381$
                                   9747 ;	../../../../core/net/uip6.c:1878: uip_flags |= UIP_NEWDATA;
      002E97 90r01r05         [24] 9748 	mov	dptr,#_uip_flags
      002E9A 74 42            [12] 9749 	mov	a,#0x42
      002E9C F0               [24] 9750 	movx	@dptr,a
                                   9751 ;	../../../../core/net/uip6.c:1879: uip_add_rcv_nxt(uip_len);
      002E9D 8A 82            [24] 9752 	mov	dpl,r2
      002E9F 8B 83            [24] 9753 	mov	dph,r3
      002EA1 78r77            [12] 9754 	mov	r0,#_uip_add_rcv_nxt
      002EA3 79s0C            [12] 9755 	mov	r1,#(_uip_add_rcv_nxt >> 8)
      002EA5 7As00            [12] 9756 	mov	r2,#(_uip_add_rcv_nxt >> 16)
      002EA7 12r00r00         [24] 9757 	lcall	__sdcc_banked_call
      002EAA                       9758 00381$:
                                   9759 ;	../../../../core/net/uip6.c:1881: uip_slen = 0;
      002EAA 90r01r03         [24] 9760 	mov	dptr,#_uip_slen
      002EAD E4               [12] 9761 	clr	a
      002EAE F0               [24] 9762 	movx	@dptr,a
      002EAF E4               [12] 9763 	clr	a
      002EB0 A3               [24] 9764 	inc	dptr
      002EB1 F0               [24] 9765 	movx	@dptr,a
                                   9766 ;	../../../../core/net/uip6.c:1882: UIP_APPCALL();
      002EB2 78r00            [12] 9767 	mov	r0,#_tcpip_uipcall
      002EB4 79s00            [12] 9768 	mov	r1,#(_tcpip_uipcall >> 8)
      002EB6 7As00            [12] 9769 	mov	r2,#(_tcpip_uipcall >> 16)
      002EB8 12r00r00         [24] 9770 	lcall	__sdcc_banked_call
                                   9771 ;	../../../../core/net/uip6.c:1883: goto appsend;
      002EBB 02r34r1B         [24] 9772 	ljmp	00422$
      002EBE                       9773 00383$:
                                   9774 ;	../../../../core/net/uip6.c:1886: if((UIP_TCP_BUF->flags & TCP_CTL) == TCP_SYN) {
      002EBE 7Ar33            [12] 9775 	mov	r2,#(_uip_aligned_buf + 0x0028)
      002EC0 7Bs00            [12] 9776 	mov	r3,#((_uip_aligned_buf + 0x0028) >> 8)
      002EC2 74 0D            [12] 9777 	mov	a,#0x0D
      002EC4 2A               [12] 9778 	add	a,r2
      002EC5 F5 82            [12] 9779 	mov	dpl,a
      002EC7 E4               [12] 9780 	clr	a
      002EC8 3B               [12] 9781 	addc	a,r3
      002EC9 F5 83            [12] 9782 	mov	dph,a
      002ECB E0               [24] 9783 	movx	a,@dptr
      002ECC FB               [12] 9784 	mov	r3,a
      002ECD 53 03 3F         [24] 9785 	anl	ar3,#0x3F
      002ED0 BB 02 02         [24] 9786 	cjne	r3,#0x02,01345$
      002ED3 80 03            [24] 9787 	sjmp	01346$
      002ED5                       9788 01345$:
      002ED5 02r3Br87         [24] 9789 	ljmp	00482$
      002ED8                       9790 01346$:
                                   9791 ;	../../../../core/net/uip6.c:1887: goto tcp_send_synack;
      002ED8 02r28r75         [24] 9792 	ljmp	00348$
                                   9793 ;	../../../../core/net/uip6.c:1891: case UIP_SYN_SENT:
      002EDB                       9794 00386$:
                                   9795 ;	../../../../core/net/uip6.c:1896: if((uip_flags & UIP_ACKDATA) &&
      002EDB 90r01r05         [24] 9796 	mov	dptr,#_uip_flags
      002EDE E0               [24] 9797 	movx	a,@dptr
      002EDF FB               [12] 9798 	mov	r3,a
      002EE0 20 E0 03         [24] 9799 	jb	acc.0,01347$
      002EE3 02r31rAC         [24] 9800 	ljmp	00403$
      002EE6                       9801 01347$:
                                   9802 ;	../../../../core/net/uip6.c:1897: (UIP_TCP_BUF->flags & TCP_CTL) == (TCP_SYN | TCP_ACK)) {
      002EE6 7Ar33            [12] 9803 	mov	r2,#(_uip_aligned_buf + 0x0028)
      002EE8 7Bs00            [12] 9804 	mov	r3,#((_uip_aligned_buf + 0x0028) >> 8)
      002EEA 74 0D            [12] 9805 	mov	a,#0x0D
      002EEC 2A               [12] 9806 	add	a,r2
      002EED F5 82            [12] 9807 	mov	dpl,a
      002EEF E4               [12] 9808 	clr	a
      002EF0 3B               [12] 9809 	addc	a,r3
      002EF1 F5 83            [12] 9810 	mov	dph,a
      002EF3 E0               [24] 9811 	movx	a,@dptr
      002EF4 FB               [12] 9812 	mov	r3,a
      002EF5 53 03 3F         [24] 9813 	anl	ar3,#0x3F
      002EF8 BB 12 02         [24] 9814 	cjne	r3,#0x12,01348$
      002EFB 80 03            [24] 9815 	sjmp	01349$
      002EFD                       9816 01348$:
      002EFD 02r31rAC         [24] 9817 	ljmp	00403$
      002F00                       9818 01349$:
                                   9819 ;	../../../../core/net/uip6.c:1900: if((UIP_TCP_BUF->tcpoffset & 0xf0) > 0x50) {
      002F00 7Ar33            [12] 9820 	mov	r2,#(_uip_aligned_buf + 0x0028)
      002F02 7Bs00            [12] 9821 	mov	r3,#((_uip_aligned_buf + 0x0028) >> 8)
      002F04 74 0C            [12] 9822 	mov	a,#0x0C
      002F06 2A               [12] 9823 	add	a,r2
      002F07 F5 82            [12] 9824 	mov	dpl,a
      002F09 E4               [12] 9825 	clr	a
      002F0A 3B               [12] 9826 	addc	a,r3
      002F0B F5 83            [12] 9827 	mov	dph,a
      002F0D E0               [24] 9828 	movx	a,@dptr
      002F0E 54 F0            [12] 9829 	anl	a,#0xF0
      002F10 FB               [12] 9830 	mov	r3,a
      002F11 24 AF            [12] 9831 	add	a,#0xff - 0x50
      002F13 40 03            [24] 9832 	jc	01350$
      002F15 02r30rA3         [24] 9833 	ljmp	00401$
      002F18                       9834 01350$:
                                   9835 ;	../../../../core/net/uip6.c:1901: for(c = 0; c < ((UIP_TCP_BUF->tcpoffset >> 4) - 5) << 2 ;) {
      002F18 90r01r09         [24] 9836 	mov	dptr,#_c
      002F1B E4               [12] 9837 	clr	a
      002F1C F0               [24] 9838 	movx	@dptr,a
      002F1D                       9839 00497$:
      002F1D C0 05            [24] 9840 	push	ar5
      002F1F C0 06            [24] 9841 	push	ar6
      002F21 C0 07            [24] 9842 	push	ar7
      002F23 7Ar33            [12] 9843 	mov	r2,#(_uip_aligned_buf + 0x0028)
      002F25 7Bs00            [12] 9844 	mov	r3,#((_uip_aligned_buf + 0x0028) >> 8)
      002F27 74 0C            [12] 9845 	mov	a,#0x0C
      002F29 2A               [12] 9846 	add	a,r2
      002F2A F5 82            [12] 9847 	mov	dpl,a
      002F2C E4               [12] 9848 	clr	a
      002F2D 3B               [12] 9849 	addc	a,r3
      002F2E F5 83            [12] 9850 	mov	dph,a
      002F30 E0               [24] 9851 	movx	a,@dptr
      002F31 C4               [12] 9852 	swap	a
      002F32 54 0F            [12] 9853 	anl	a,#0x0F
      002F34 7A 00            [12] 9854 	mov	r2,#0x00
      002F36 24 FB            [12] 9855 	add	a,#0xFB
      002F38 FB               [12] 9856 	mov	r3,a
      002F39 EA               [12] 9857 	mov	a,r2
      002F3A 34 FF            [12] 9858 	addc	a,#0xFF
      002F3C CB               [12] 9859 	xch	a,r3
      002F3D 25 E0            [12] 9860 	add	a,acc
      002F3F CB               [12] 9861 	xch	a,r3
      002F40 33               [12] 9862 	rlc	a
      002F41 CB               [12] 9863 	xch	a,r3
      002F42 25 E0            [12] 9864 	add	a,acc
      002F44 CB               [12] 9865 	xch	a,r3
      002F45 33               [12] 9866 	rlc	a
      002F46 FA               [12] 9867 	mov	r2,a
      002F47 90r01r09         [24] 9868 	mov	dptr,#_c
      002F4A E0               [24] 9869 	movx	a,@dptr
      002F4B FC               [12] 9870 	mov	r4,a
      002F4C FE               [12] 9871 	mov	r6,a
      002F4D 7F 00            [12] 9872 	mov	r7,#0x00
      002F4F C3               [12] 9873 	clr	c
      002F50 EE               [12] 9874 	mov	a,r6
      002F51 9B               [12] 9875 	subb	a,r3
      002F52 EF               [12] 9876 	mov	a,r7
      002F53 64 80            [12] 9877 	xrl	a,#0x80
      002F55 8A F0            [24] 9878 	mov	b,r2
      002F57 63 F0 80         [24] 9879 	xrl	b,#0x80
      002F5A 95 F0            [12] 9880 	subb	a,b
      002F5C D0 07            [24] 9881 	pop	ar7
      002F5E D0 06            [24] 9882 	pop	ar6
      002F60 D0 05            [24] 9883 	pop	ar5
      002F62 40 03            [24] 9884 	jc	01351$
      002F64 02r30rA3         [24] 9885 	ljmp	00401$
      002F67                       9886 01351$:
                                   9887 ;	../../../../core/net/uip6.c:1902: opt = uip_buf[UIP_IPTCPH_LEN + UIP_LLH_LEN + c];
      002F67 74 3C            [12] 9888 	mov	a,#0x3C
      002F69 2C               [12] 9889 	add	a,r4
      002F6A 24r0B            [12] 9890 	add	a,#_uip_aligned_buf
      002F6C F5 82            [12] 9891 	mov	dpl,a
      002F6E E4               [12] 9892 	clr	a
      002F6F 34s00            [12] 9893 	addc	a,#(_uip_aligned_buf >> 8)
      002F71 F5 83            [12] 9894 	mov	dph,a
      002F73 E0               [24] 9895 	movx	a,@dptr
      002F74 FB               [12] 9896 	mov	r3,a
      002F75 90r03r08         [24] 9897 	mov	dptr,#_opt
      002F78 F0               [24] 9898 	movx	@dptr,a
                                   9899 ;	../../../../core/net/uip6.c:1903: if(opt == TCP_OPT_END) {
      002F79 EB               [12] 9900 	mov	a,r3
      002F7A 70 03            [24] 9901 	jnz	01352$
      002F7C 02r30rA3         [24] 9902 	ljmp	00401$
      002F7F                       9903 01352$:
                                   9904 ;	../../../../core/net/uip6.c:1906: } else if(opt == TCP_OPT_NOOP) {
      002F7F BB 01 08         [24] 9905 	cjne	r3,#0x01,00394$
                                   9906 ;	../../../../core/net/uip6.c:1907: ++c;
      002F82 90r01r09         [24] 9907 	mov	dptr,#_c
      002F85 EC               [12] 9908 	mov	a,r4
      002F86 04               [12] 9909 	inc	a
      002F87 F0               [24] 9910 	movx	@dptr,a
      002F88 80 93            [24] 9911 	sjmp	00497$
      002F8A                       9912 00394$:
                                   9913 ;	../../../../core/net/uip6.c:1909: } else if(opt == TCP_OPT_MSS &&
      002F8A BB 02 02         [24] 9914 	cjne	r3,#0x02,01355$
      002F8D 80 03            [24] 9915 	sjmp	01356$
      002F8F                       9916 01355$:
      002F8F 02r30r6C         [24] 9917 	ljmp	00390$
      002F92                       9918 01356$:
                                   9919 ;	../../../../core/net/uip6.c:1910: uip_buf[UIP_TCPIP_HLEN + UIP_LLH_LEN + 1 + c] == TCP_OPT_MSS_LEN) {
      002F92 74 3D            [12] 9920 	mov	a,#0x3D
      002F94 2C               [12] 9921 	add	a,r4
      002F95 24r0B            [12] 9922 	add	a,#_uip_aligned_buf
      002F97 F5 82            [12] 9923 	mov	dpl,a
      002F99 E4               [12] 9924 	clr	a
      002F9A 34s00            [12] 9925 	addc	a,#(_uip_aligned_buf >> 8)
      002F9C F5 83            [12] 9926 	mov	dph,a
      002F9E E0               [24] 9927 	movx	a,@dptr
      002F9F FB               [12] 9928 	mov	r3,a
      002FA0 BB 04 02         [24] 9929 	cjne	r3,#0x04,01357$
      002FA3 80 03            [24] 9930 	sjmp	01358$
      002FA5                       9931 01357$:
      002FA5 02r30r6C         [24] 9932 	ljmp	00390$
      002FA8                       9933 01358$:
                                   9934 ;	../../../../core/net/uip6.c:1912: tmp16 = (uip_buf[UIP_TCPIP_HLEN + UIP_LLH_LEN + 2 + c] << 8) |
      002FA8 C0 05            [24] 9935 	push	ar5
      002FAA C0 06            [24] 9936 	push	ar6
      002FAC C0 07            [24] 9937 	push	ar7
      002FAE 74 3E            [12] 9938 	mov	a,#0x3E
      002FB0 2C               [12] 9939 	add	a,r4
      002FB1 24r0B            [12] 9940 	add	a,#_uip_aligned_buf
      002FB3 F5 82            [12] 9941 	mov	dpl,a
      002FB5 E4               [12] 9942 	clr	a
      002FB6 34s00            [12] 9943 	addc	a,#(_uip_aligned_buf >> 8)
      002FB8 F5 83            [12] 9944 	mov	dph,a
      002FBA E0               [24] 9945 	movx	a,@dptr
      002FBB FA               [12] 9946 	mov	r2,a
      002FBC 7B 00            [12] 9947 	mov	r3,#0x00
                                   9948 ;	../../../../core/net/uip6.c:1913: uip_buf[UIP_TCPIP_HLEN + UIP_LLH_LEN + 3 + c];
      002FBE 74 3F            [12] 9949 	mov	a,#0x3F
      002FC0 2C               [12] 9950 	add	a,r4
      002FC1 24r0B            [12] 9951 	add	a,#_uip_aligned_buf
      002FC3 F5 82            [12] 9952 	mov	dpl,a
      002FC5 E4               [12] 9953 	clr	a
      002FC6 34s00            [12] 9954 	addc	a,#(_uip_aligned_buf >> 8)
      002FC8 F5 83            [12] 9955 	mov	dph,a
      002FCA E0               [24] 9956 	movx	a,@dptr
      002FCB FF               [12] 9957 	mov	r7,a
      002FCC 7E 00            [12] 9958 	mov	r6,#0x00
      002FCE E5 81            [12] 9959 	mov	a,sp
      002FD0 24 F9            [12] 9960 	add	a,#0xf9
      002FD2 F8               [12] 9961 	mov	r0,a
      002FD3 EF               [12] 9962 	mov	a,r7
      002FD4 4B               [12] 9963 	orl	a,r3
      002FD5 F6               [12] 9964 	mov	@r0,a
      002FD6 EE               [12] 9965 	mov	a,r6
      002FD7 4A               [12] 9966 	orl	a,r2
      002FD8 08               [12] 9967 	inc	r0
      002FD9 F6               [12] 9968 	mov	@r0,a
      002FDA E5 81            [12] 9969 	mov	a,sp
      002FDC 24 F9            [12] 9970 	add	a,#0xf9
      002FDE F8               [12] 9971 	mov	r0,a
      002FDF 90r03r09         [24] 9972 	mov	dptr,#_tmp16
      002FE2 E6               [12] 9973 	mov	a,@r0
      002FE3 F0               [24] 9974 	movx	@dptr,a
      002FE4 08               [12] 9975 	inc	r0
      002FE5 E6               [12] 9976 	mov	a,@r0
      002FE6 A3               [24] 9977 	inc	dptr
      002FE7 F0               [24] 9978 	movx	@dptr,a
                                   9979 ;	../../../../core/net/uip6.c:1914: uip_connr->initialmss =
      002FE8 E5 81            [12] 9980 	mov	a,sp
      002FEA 24 FB            [12] 9981 	add	a,#0xfb
      002FEC F8               [12] 9982 	mov	r0,a
      002FED E5 81            [12] 9983 	mov	a,sp
      002FEF 24 F6            [12] 9984 	add	a,#0xf6
      002FF1 F9               [12] 9985 	mov	r1,a
      002FF2 74 20            [12] 9986 	mov	a,#0x20
      002FF4 26               [12] 9987 	add	a,@r0
      002FF5 F7               [12] 9988 	mov	@r1,a
      002FF6 E4               [12] 9989 	clr	a
      002FF7 08               [12] 9990 	inc	r0
      002FF8 36               [12] 9991 	addc	a,@r0
      002FF9 09               [12] 9992 	inc	r1
      002FFA F7               [12] 9993 	mov	@r1,a
      002FFB 08               [12] 9994 	inc	r0
      002FFC 09               [12] 9995 	inc	r1
      002FFD E6               [12] 9996 	mov	a,@r0
      002FFE F7               [12] 9997 	mov	@r1,a
                                   9998 ;	../../../../core/net/uip6.c:1915: uip_connr->mss = tmp16 > UIP_TCP_MSS? UIP_TCP_MSS: tmp16;
      002FFF E5 81            [12] 9999 	mov	a,sp
      003001 24 FB            [12]10000 	add	a,#0xfb
      003003 F8               [12]10001 	mov	r0,a
      003004 E5 81            [12]10002 	mov	a,sp
      003006 24 F3            [12]10003 	add	a,#0xf3
      003008 F9               [12]10004 	mov	r1,a
      003009 74 1E            [12]10005 	mov	a,#0x1E
      00300B 26               [12]10006 	add	a,@r0
      00300C F7               [12]10007 	mov	@r1,a
      00300D E4               [12]10008 	clr	a
      00300E 08               [12]10009 	inc	r0
      00300F 36               [12]10010 	addc	a,@r0
      003010 09               [12]10011 	inc	r1
      003011 F7               [12]10012 	mov	@r1,a
      003012 08               [12]10013 	inc	r0
      003013 09               [12]10014 	inc	r1
      003014 E6               [12]10015 	mov	a,@r0
      003015 F7               [12]10016 	mov	@r1,a
      003016 E5 81            [12]10017 	mov	a,sp
      003018 24 F9            [12]10018 	add	a,#0xf9
      00301A F8               [12]10019 	mov	r0,a
      00301B 86 06            [24]10020 	mov	ar6,@r0
      00301D 08               [12]10021 	inc	r0
      00301E 86 07            [24]10022 	mov	ar7,@r0
      003020 C3               [12]10023 	clr	c
      003021 74 B4            [12]10024 	mov	a,#0xB4
      003023 9E               [12]10025 	subb	a,r6
      003024 E4               [12]10026 	clr	a
      003025 9F               [12]10027 	subb	a,r7
      003026 D0 07            [24]10028 	pop	ar7
      003028 D0 06            [24]10029 	pop	ar6
      00302A D0 05            [24]10030 	pop	ar5
      00302C 50 06            [24]10031 	jnc	00505$
      00302E 7A B4            [12]10032 	mov	r2,#0xB4
      003030 7B 00            [12]10033 	mov	r3,#0x00
      003032 80 0A            [24]10034 	sjmp	00506$
      003034                      10035 00505$:
      003034 E5 81            [12]10036 	mov	a,sp
      003036 24 FC            [12]10037 	add	a,#0xfc
      003038 F8               [12]10038 	mov	r0,a
      003039 86 02            [24]10039 	mov	ar2,@r0
      00303B 08               [12]10040 	inc	r0
      00303C 86 03            [24]10041 	mov	ar3,@r0
      00303E                      10042 00506$:
      00303E E5 81            [12]10043 	mov	a,sp
      003040 24 F6            [12]10044 	add	a,#0xf6
      003042 F8               [12]10045 	mov	r0,a
      003043 86 82            [24]10046 	mov	dpl,@r0
      003045 08               [12]10047 	inc	r0
      003046 86 83            [24]10048 	mov	dph,@r0
      003048 08               [12]10049 	inc	r0
      003049 86 F0            [24]10050 	mov	b,@r0
      00304B EA               [12]10051 	mov	a,r2
      00304C 12r00r00         [24]10052 	lcall	__gptrput
      00304F A3               [24]10053 	inc	dptr
      003050 EB               [12]10054 	mov	a,r3
      003051 12r00r00         [24]10055 	lcall	__gptrput
      003054 E5 81            [12]10056 	mov	a,sp
      003056 24 F9            [12]10057 	add	a,#0xf9
      003058 F8               [12]10058 	mov	r0,a
      003059 86 82            [24]10059 	mov	dpl,@r0
      00305B 08               [12]10060 	inc	r0
      00305C 86 83            [24]10061 	mov	dph,@r0
      00305E 08               [12]10062 	inc	r0
      00305F 86 F0            [24]10063 	mov	b,@r0
      003061 EA               [12]10064 	mov	a,r2
      003062 12r00r00         [24]10065 	lcall	__gptrput
      003065 A3               [24]10066 	inc	dptr
      003066 EB               [12]10067 	mov	a,r3
      003067 12r00r00         [24]10068 	lcall	__gptrput
                                  10069 ;	../../../../core/net/uip6.c:1918: break;
      00306A 80 37            [24]10070 	sjmp	00401$
      00306C                      10071 00390$:
                                  10072 ;	../../../../core/net/uip6.c:1922: if(uip_buf[UIP_TCPIP_HLEN + UIP_LLH_LEN + 1 + c] == 0) {
      00306C C0 05            [24]10073 	push	ar5
      00306E C0 06            [24]10074 	push	ar6
      003070 C0 07            [24]10075 	push	ar7
      003072 90r01r09         [24]10076 	mov	dptr,#_c
      003075 E0               [24]10077 	movx	a,@dptr
      003076 FB               [12]10078 	mov	r3,a
      003077 24 3D            [12]10079 	add	a,#0x3D
      003079 24r0B            [12]10080 	add	a,#_uip_aligned_buf
      00307B FA               [12]10081 	mov	r2,a
      00307C E4               [12]10082 	clr	a
      00307D 34s00            [12]10083 	addc	a,#(_uip_aligned_buf >> 8)
      00307F FF               [12]10084 	mov	r7,a
      003080 8A 82            [24]10085 	mov	dpl,r2
      003082 8F 83            [24]10086 	mov	dph,r7
      003084 E0               [24]10087 	movx	a,@dptr
      003085 D0 07            [24]10088 	pop	ar7
      003087 D0 06            [24]10089 	pop	ar6
      003089 D0 05            [24]10090 	pop	ar5
      00308B 60 16            [24]10091 	jz	00401$
                                  10092 ;	../../../../core/net/uip6.c:1927: c += uip_buf[UIP_TCPIP_HLEN + UIP_LLH_LEN + 1 + c];
      00308D 74 3D            [12]10093 	mov	a,#0x3D
      00308F 2B               [12]10094 	add	a,r3
      003090 24r0B            [12]10095 	add	a,#_uip_aligned_buf
      003092 F5 82            [12]10096 	mov	dpl,a
      003094 E4               [12]10097 	clr	a
      003095 34s00            [12]10098 	addc	a,#(_uip_aligned_buf >> 8)
      003097 F5 83            [12]10099 	mov	dph,a
      003099 E0               [24]10100 	movx	a,@dptr
      00309A FA               [12]10101 	mov	r2,a
      00309B 90r01r09         [24]10102 	mov	dptr,#_c
      00309E 2B               [12]10103 	add	a,r3
      00309F F0               [24]10104 	movx	@dptr,a
      0030A0 02r2Fr1D         [24]10105 	ljmp	00497$
      0030A3                      10106 00401$:
                                  10107 ;	../../../../core/net/uip6.c:1931: uip_connr->tcpstateflags = UIP_ESTABLISHED;
      0030A3 8D 82            [24]10108 	mov	dpl,r5
      0030A5 8E 83            [24]10109 	mov	dph,r6
      0030A7 8F F0            [24]10110 	mov	b,r7
      0030A9 74 03            [12]10111 	mov	a,#0x03
      0030AB 12r00r00         [24]10112 	lcall	__gptrput
                                  10113 ;	../../../../core/net/uip6.c:1932: uip_connr->rcv_nxt[0] = UIP_TCP_BUF->seqno[0];
      0030AE A8 81            [24]10114 	mov	r0,sp
      0030B0 18               [12]10115 	dec	r0
      0030B1 18               [12]10116 	dec	r0
      0030B2 74 14            [12]10117 	mov	a,#0x14
      0030B4 26               [12]10118 	add	a,@r0
      0030B5 FF               [12]10119 	mov	r7,a
      0030B6 E4               [12]10120 	clr	a
      0030B7 08               [12]10121 	inc	r0
      0030B8 36               [12]10122 	addc	a,@r0
      0030B9 FE               [12]10123 	mov	r6,a
      0030BA 08               [12]10124 	inc	r0
      0030BB 86 05            [24]10125 	mov	ar5,@r0
      0030BD 7Ar33            [12]10126 	mov	r2,#(_uip_aligned_buf + 0x0028)
      0030BF 7Bs00            [12]10127 	mov	r3,#((_uip_aligned_buf + 0x0028) >> 8)
      0030C1 8A 82            [24]10128 	mov	dpl,r2
      0030C3 8B 83            [24]10129 	mov	dph,r3
      0030C5 A3               [24]10130 	inc	dptr
      0030C6 A3               [24]10131 	inc	dptr
      0030C7 A3               [24]10132 	inc	dptr
      0030C8 A3               [24]10133 	inc	dptr
      0030C9 E0               [24]10134 	movx	a,@dptr
      0030CA 8F 82            [24]10135 	mov	dpl,r7
      0030CC 8E 83            [24]10136 	mov	dph,r6
      0030CE 8D F0            [24]10137 	mov	b,r5
      0030D0 12r00r00         [24]10138 	lcall	__gptrput
                                  10139 ;	../../../../core/net/uip6.c:1933: uip_connr->rcv_nxt[1] = UIP_TCP_BUF->seqno[1];
      0030D3 A8 81            [24]10140 	mov	r0,sp
      0030D5 18               [12]10141 	dec	r0
      0030D6 18               [12]10142 	dec	r0
      0030D7 74 14            [12]10143 	mov	a,#0x14
      0030D9 26               [12]10144 	add	a,@r0
      0030DA FF               [12]10145 	mov	r7,a
      0030DB E4               [12]10146 	clr	a
      0030DC 08               [12]10147 	inc	r0
      0030DD 36               [12]10148 	addc	a,@r0
      0030DE FE               [12]10149 	mov	r6,a
      0030DF 08               [12]10150 	inc	r0
      0030E0 86 05            [24]10151 	mov	ar5,@r0
      0030E2 E5 81            [12]10152 	mov	a,sp
      0030E4 24 F6            [12]10153 	add	a,#0xf6
      0030E6 F8               [12]10154 	mov	r0,a
      0030E7 74 01            [12]10155 	mov	a,#0x01
      0030E9 2F               [12]10156 	add	a,r7
      0030EA F6               [12]10157 	mov	@r0,a
      0030EB E4               [12]10158 	clr	a
      0030EC 3E               [12]10159 	addc	a,r6
      0030ED 08               [12]10160 	inc	r0
      0030EE F6               [12]10161 	mov	@r0,a
      0030EF 08               [12]10162 	inc	r0
      0030F0 A6 05            [24]10163 	mov	@r0,ar5
      0030F2 7Ar33            [12]10164 	mov	r2,#(_uip_aligned_buf + 0x0028)
      0030F4 7Bs00            [12]10165 	mov	r3,#((_uip_aligned_buf + 0x0028) >> 8)
      0030F6 8A 82            [24]10166 	mov	dpl,r2
      0030F8 8B 83            [24]10167 	mov	dph,r3
      0030FA A3               [24]10168 	inc	dptr
      0030FB A3               [24]10169 	inc	dptr
      0030FC A3               [24]10170 	inc	dptr
      0030FD A3               [24]10171 	inc	dptr
      0030FE A3               [24]10172 	inc	dptr
      0030FF E0               [24]10173 	movx	a,@dptr
      003100 FB               [12]10174 	mov	r3,a
      003101 E5 81            [12]10175 	mov	a,sp
      003103 24 F6            [12]10176 	add	a,#0xf6
      003105 F8               [12]10177 	mov	r0,a
      003106 86 82            [24]10178 	mov	dpl,@r0
      003108 08               [12]10179 	inc	r0
      003109 86 83            [24]10180 	mov	dph,@r0
      00310B 08               [12]10181 	inc	r0
      00310C 86 F0            [24]10182 	mov	b,@r0
      00310E EB               [12]10183 	mov	a,r3
      00310F 12r00r00         [24]10184 	lcall	__gptrput
                                  10185 ;	../../../../core/net/uip6.c:1934: uip_connr->rcv_nxt[2] = UIP_TCP_BUF->seqno[2];
      003112 E5 81            [12]10186 	mov	a,sp
      003114 24 F6            [12]10187 	add	a,#0xf6
      003116 F8               [12]10188 	mov	r0,a
      003117 74 02            [12]10189 	mov	a,#0x02
      003119 2F               [12]10190 	add	a,r7
      00311A F6               [12]10191 	mov	@r0,a
      00311B E4               [12]10192 	clr	a
      00311C 3E               [12]10193 	addc	a,r6
      00311D 08               [12]10194 	inc	r0
      00311E F6               [12]10195 	mov	@r0,a
      00311F 08               [12]10196 	inc	r0
      003120 A6 05            [24]10197 	mov	@r0,ar5
      003122 7Ar33            [12]10198 	mov	r2,#(_uip_aligned_buf + 0x0028)
      003124 7Bs00            [12]10199 	mov	r3,#((_uip_aligned_buf + 0x0028) >> 8)
      003126 74 06            [12]10200 	mov	a,#0x06
      003128 2A               [12]10201 	add	a,r2
      003129 F5 82            [12]10202 	mov	dpl,a
      00312B E4               [12]10203 	clr	a
      00312C 3B               [12]10204 	addc	a,r3
      00312D F5 83            [12]10205 	mov	dph,a
      00312F E0               [24]10206 	movx	a,@dptr
      003130 FB               [12]10207 	mov	r3,a
      003131 E5 81            [12]10208 	mov	a,sp
      003133 24 F6            [12]10209 	add	a,#0xf6
      003135 F8               [12]10210 	mov	r0,a
      003136 86 82            [24]10211 	mov	dpl,@r0
      003138 08               [12]10212 	inc	r0
      003139 86 83            [24]10213 	mov	dph,@r0
      00313B 08               [12]10214 	inc	r0
      00313C 86 F0            [24]10215 	mov	b,@r0
      00313E EB               [12]10216 	mov	a,r3
      00313F 12r00r00         [24]10217 	lcall	__gptrput
                                  10218 ;	../../../../core/net/uip6.c:1935: uip_connr->rcv_nxt[3] = UIP_TCP_BUF->seqno[3];
      003142 74 03            [12]10219 	mov	a,#0x03
      003144 2F               [12]10220 	add	a,r7
      003145 FF               [12]10221 	mov	r7,a
      003146 E4               [12]10222 	clr	a
      003147 3E               [12]10223 	addc	a,r6
      003148 FE               [12]10224 	mov	r6,a
      003149 7Ar33            [12]10225 	mov	r2,#(_uip_aligned_buf + 0x0028)
      00314B 7Bs00            [12]10226 	mov	r3,#((_uip_aligned_buf + 0x0028) >> 8)
      00314D 74 07            [12]10227 	mov	a,#0x07
      00314F 2A               [12]10228 	add	a,r2
      003150 F5 82            [12]10229 	mov	dpl,a
      003152 E4               [12]10230 	clr	a
      003153 3B               [12]10231 	addc	a,r3
      003154 F5 83            [12]10232 	mov	dph,a
      003156 E0               [24]10233 	movx	a,@dptr
      003157 8F 82            [24]10234 	mov	dpl,r7
      003159 8E 83            [24]10235 	mov	dph,r6
      00315B 8D F0            [24]10236 	mov	b,r5
      00315D 12r00r00         [24]10237 	lcall	__gptrput
                                  10238 ;	../../../../core/net/uip6.c:1936: uip_add_rcv_nxt(1);
      003160 90 00 01         [24]10239 	mov	dptr,#0x0001
      003163 78r77            [12]10240 	mov	r0,#_uip_add_rcv_nxt
      003165 79s0C            [12]10241 	mov	r1,#(_uip_add_rcv_nxt >> 8)
      003167 7As00            [12]10242 	mov	r2,#(_uip_add_rcv_nxt >> 16)
      003169 12r00r00         [24]10243 	lcall	__sdcc_banked_call
                                  10244 ;	../../../../core/net/uip6.c:1937: uip_flags = UIP_CONNECTED | UIP_NEWDATA;
      00316C 90r01r05         [24]10245 	mov	dptr,#_uip_flags
      00316F 74 42            [12]10246 	mov	a,#0x42
      003171 F0               [24]10247 	movx	@dptr,a
                                  10248 ;	../../../../core/net/uip6.c:1938: uip_connr->len = 0;
      003172 A8 81            [24]10249 	mov	r0,sp
      003174 18               [12]10250 	dec	r0
      003175 18               [12]10251 	dec	r0
      003176 74 1C            [12]10252 	mov	a,#0x1C
      003178 26               [12]10253 	add	a,@r0
      003179 FF               [12]10254 	mov	r7,a
      00317A E4               [12]10255 	clr	a
      00317B 08               [12]10256 	inc	r0
      00317C 36               [12]10257 	addc	a,@r0
      00317D FE               [12]10258 	mov	r6,a
      00317E 08               [12]10259 	inc	r0
      00317F 86 05            [24]10260 	mov	ar5,@r0
      003181 8F 82            [24]10261 	mov	dpl,r7
      003183 8E 83            [24]10262 	mov	dph,r6
      003185 8D F0            [24]10263 	mov	b,r5
      003187 E4               [12]10264 	clr	a
      003188 12r00r00         [24]10265 	lcall	__gptrput
      00318B A3               [24]10266 	inc	dptr
      00318C E4               [12]10267 	clr	a
      00318D 12r00r00         [24]10268 	lcall	__gptrput
                                  10269 ;	../../../../core/net/uip6.c:1939: uip_len = 0;
      003190 90r01r01         [24]10270 	mov	dptr,#_uip_len
      003193 E4               [12]10271 	clr	a
      003194 F0               [24]10272 	movx	@dptr,a
      003195 E4               [12]10273 	clr	a
      003196 A3               [24]10274 	inc	dptr
      003197 F0               [24]10275 	movx	@dptr,a
                                  10276 ;	../../../../core/net/uip6.c:1940: uip_slen = 0;
      003198 90r01r03         [24]10277 	mov	dptr,#_uip_slen
      00319B E4               [12]10278 	clr	a
      00319C F0               [24]10279 	movx	@dptr,a
      00319D E4               [12]10280 	clr	a
      00319E A3               [24]10281 	inc	dptr
      00319F F0               [24]10282 	movx	@dptr,a
                                  10283 ;	../../../../core/net/uip6.c:1941: UIP_APPCALL();
      0031A0 78r00            [12]10284 	mov	r0,#_tcpip_uipcall
      0031A2 79s00            [12]10285 	mov	r1,#(_tcpip_uipcall >> 8)
      0031A4 7As00            [12]10286 	mov	r2,#(_tcpip_uipcall >> 16)
      0031A6 12r00r00         [24]10287 	lcall	__sdcc_banked_call
                                  10288 ;	../../../../core/net/uip6.c:1942: goto appsend;
      0031A9 02r34r1B         [24]10289 	ljmp	00422$
      0031AC                      10290 00403$:
                                  10291 ;	../../../../core/net/uip6.c:1945: uip_flags = UIP_ABORT;
      0031AC 90r01r05         [24]10292 	mov	dptr,#_uip_flags
      0031AF 74 20            [12]10293 	mov	a,#0x20
      0031B1 F0               [24]10294 	movx	@dptr,a
                                  10295 ;	../../../../core/net/uip6.c:1946: UIP_APPCALL();
      0031B2 78r00            [12]10296 	mov	r0,#_tcpip_uipcall
      0031B4 79s00            [12]10297 	mov	r1,#(_tcpip_uipcall >> 8)
      0031B6 7As00            [12]10298 	mov	r2,#(_tcpip_uipcall >> 16)
      0031B8 12r00r00         [24]10299 	lcall	__sdcc_banked_call
                                  10300 ;	../../../../core/net/uip6.c:1948: uip_conn->tcpstateflags = UIP_CLOSED;
      0031BB 90r01r06         [24]10301 	mov	dptr,#_uip_conn
      0031BE E0               [24]10302 	movx	a,@dptr
      0031BF FF               [12]10303 	mov	r7,a
      0031C0 A3               [24]10304 	inc	dptr
      0031C1 E0               [24]10305 	movx	a,@dptr
      0031C2 FE               [12]10306 	mov	r6,a
      0031C3 A3               [24]10307 	inc	dptr
      0031C4 E0               [24]10308 	movx	a,@dptr
      0031C5 FD               [12]10309 	mov	r5,a
      0031C6 74 25            [12]10310 	mov	a,#0x25
      0031C8 2F               [12]10311 	add	a,r7
      0031C9 FF               [12]10312 	mov	r7,a
      0031CA E4               [12]10313 	clr	a
      0031CB 3E               [12]10314 	addc	a,r6
      0031CC FE               [12]10315 	mov	r6,a
      0031CD 8F 82            [24]10316 	mov	dpl,r7
      0031CF 8E 83            [24]10317 	mov	dph,r6
      0031D1 8D F0            [24]10318 	mov	b,r5
      0031D3 E4               [12]10319 	clr	a
      0031D4 12r00r00         [24]10320 	lcall	__gptrput
                                  10321 ;	../../../../core/net/uip6.c:1949: goto reset;
      0031D7 02r21r50         [24]10322 	ljmp	00313$
                                  10323 ;	../../../../core/net/uip6.c:1952: case UIP_ESTABLISHED:
      0031DA                      10324 00405$:
                                  10325 ;	../../../../core/net/uip6.c:1964: if(UIP_TCP_BUF->flags & TCP_FIN && !(uip_connr->tcpstateflags & UIP_STOPPED)) {
      0031DA 7Ar33            [12]10326 	mov	r2,#(_uip_aligned_buf + 0x0028)
      0031DC 7Bs00            [12]10327 	mov	r3,#((_uip_aligned_buf + 0x0028) >> 8)
      0031DE 74 0D            [12]10328 	mov	a,#0x0D
      0031E0 2A               [12]10329 	add	a,r2
      0031E1 F5 82            [12]10330 	mov	dpl,a
      0031E3 E4               [12]10331 	clr	a
      0031E4 3B               [12]10332 	addc	a,r3
      0031E5 F5 83            [12]10333 	mov	dph,a
      0031E7 E0               [24]10334 	movx	a,@dptr
      0031E8 FB               [12]10335 	mov	r3,a
      0031E9 20 E0 03         [24]10336 	jb	acc.0,01361$
      0031EC 02r32rCB         [24]10337 	ljmp	00412$
      0031EF                      10338 01361$:
      0031EF EC               [12]10339 	mov	a,r4
      0031F0 30 E4 03         [24]10340 	jnb	acc.4,01362$
      0031F3 02r32rCB         [24]10341 	ljmp	00412$
      0031F6                      10342 01362$:
                                  10343 ;	../../../../core/net/uip6.c:1965: if(uip_outstanding(uip_connr)) {
      0031F6 A8 81            [24]10344 	mov	r0,sp
      0031F8 18               [12]10345 	dec	r0
      0031F9 18               [12]10346 	dec	r0
      0031FA E5 81            [12]10347 	mov	a,sp
      0031FC 24 F9            [12]10348 	add	a,#0xf9
      0031FE F9               [12]10349 	mov	r1,a
      0031FF 74 1C            [12]10350 	mov	a,#0x1C
      003201 26               [12]10351 	add	a,@r0
      003202 F7               [12]10352 	mov	@r1,a
      003203 E4               [12]10353 	clr	a
      003204 08               [12]10354 	inc	r0
      003205 36               [12]10355 	addc	a,@r0
      003206 09               [12]10356 	inc	r1
      003207 F7               [12]10357 	mov	@r1,a
      003208 08               [12]10358 	inc	r0
      003209 09               [12]10359 	inc	r1
      00320A E6               [12]10360 	mov	a,@r0
      00320B F7               [12]10361 	mov	@r1,a
      00320C E5 81            [12]10362 	mov	a,sp
      00320E 24 F9            [12]10363 	add	a,#0xf9
      003210 F8               [12]10364 	mov	r0,a
      003211 86 82            [24]10365 	mov	dpl,@r0
      003213 08               [12]10366 	inc	r0
      003214 86 83            [24]10367 	mov	dph,@r0
      003216 08               [12]10368 	inc	r0
      003217 86 F0            [24]10369 	mov	b,@r0
      003219 12r00r00         [24]10370 	lcall	__gptrget
      00321C FB               [12]10371 	mov	r3,a
      00321D A3               [24]10372 	inc	dptr
      00321E 12r00r00         [24]10373 	lcall	__gptrget
      003221 FC               [12]10374 	mov	r4,a
      003222 4B               [12]10375 	orl	a,r3
      003223 60 03            [24]10376 	jz	01363$
      003225 02r3Br87         [24]10377 	ljmp	00482$
      003228                      10378 01363$:
                                  10379 ;	../../../../core/net/uip6.c:1968: uip_add_rcv_nxt(1 + uip_len);
      003228 90r01r01         [24]10380 	mov	dptr,#_uip_len
      00322B E0               [24]10381 	movx	a,@dptr
      00322C FB               [12]10382 	mov	r3,a
      00322D A3               [24]10383 	inc	dptr
      00322E E0               [24]10384 	movx	a,@dptr
      00322F FC               [12]10385 	mov	r4,a
      003230 0B               [12]10386 	inc	r3
      003231 BB 00 01         [24]10387 	cjne	r3,#0x00,01364$
      003234 0C               [12]10388 	inc	r4
      003235                      10389 01364$:
      003235 8B 82            [24]10390 	mov	dpl,r3
      003237 8C 83            [24]10391 	mov	dph,r4
      003239 C0 07            [24]10392 	push	ar7
      00323B C0 06            [24]10393 	push	ar6
      00323D C0 05            [24]10394 	push	ar5
      00323F 78r77            [12]10395 	mov	r0,#_uip_add_rcv_nxt
      003241 79s0C            [12]10396 	mov	r1,#(_uip_add_rcv_nxt >> 8)
      003243 7As00            [12]10397 	mov	r2,#(_uip_add_rcv_nxt >> 16)
      003245 12r00r00         [24]10398 	lcall	__sdcc_banked_call
      003248 D0 05            [24]10399 	pop	ar5
      00324A D0 06            [24]10400 	pop	ar6
      00324C D0 07            [24]10401 	pop	ar7
                                  10402 ;	../../../../core/net/uip6.c:1969: uip_flags |= UIP_CLOSE;
      00324E 90r01r05         [24]10403 	mov	dptr,#_uip_flags
      003251 E0               [24]10404 	movx	a,@dptr
      003252 44 10            [12]10405 	orl	a,#0x10
      003254 F0               [24]10406 	movx	@dptr,a
                                  10407 ;	../../../../core/net/uip6.c:1970: if(uip_len > 0) {
      003255 90r01r01         [24]10408 	mov	dptr,#_uip_len
      003258 E0               [24]10409 	movx	a,@dptr
      003259 FB               [12]10410 	mov	r3,a
      00325A A3               [24]10411 	inc	dptr
      00325B E0               [24]10412 	movx	a,@dptr
      00325C FC               [12]10413 	mov	r4,a
      00325D 4B               [12]10414 	orl	a,r3
      00325E 60 08            [24]10415 	jz	00409$
                                  10416 ;	../../../../core/net/uip6.c:1971: uip_flags |= UIP_NEWDATA;
      003260 90r01r05         [24]10417 	mov	dptr,#_uip_flags
      003263 E0               [24]10418 	movx	a,@dptr
      003264 FC               [12]10419 	mov	r4,a
      003265 44 02            [12]10420 	orl	a,#0x02
      003267 F0               [24]10421 	movx	@dptr,a
      003268                      10422 00409$:
                                  10423 ;	../../../../core/net/uip6.c:1973: UIP_APPCALL();
      003268 C0 07            [24]10424 	push	ar7
      00326A C0 06            [24]10425 	push	ar6
      00326C C0 05            [24]10426 	push	ar5
      00326E 78r00            [12]10427 	mov	r0,#_tcpip_uipcall
      003270 79s00            [12]10428 	mov	r1,#(_tcpip_uipcall >> 8)
      003272 7As00            [12]10429 	mov	r2,#(_tcpip_uipcall >> 16)
      003274 12r00r00         [24]10430 	lcall	__sdcc_banked_call
      003277 D0 05            [24]10431 	pop	ar5
      003279 D0 06            [24]10432 	pop	ar6
      00327B D0 07            [24]10433 	pop	ar7
                                  10434 ;	../../../../core/net/uip6.c:1974: uip_connr->len = 1;
      00327D E5 81            [12]10435 	mov	a,sp
      00327F 24 F9            [12]10436 	add	a,#0xf9
      003281 F8               [12]10437 	mov	r0,a
      003282 86 82            [24]10438 	mov	dpl,@r0
      003284 08               [12]10439 	inc	r0
      003285 86 83            [24]10440 	mov	dph,@r0
      003287 08               [12]10441 	inc	r0
      003288 86 F0            [24]10442 	mov	b,@r0
      00328A 74 01            [12]10443 	mov	a,#0x01
      00328C 12r00r00         [24]10444 	lcall	__gptrput
      00328F A3               [24]10445 	inc	dptr
      003290 E4               [12]10446 	clr	a
      003291 12r00r00         [24]10447 	lcall	__gptrput
                                  10448 ;	../../../../core/net/uip6.c:1975: uip_connr->tcpstateflags = UIP_LAST_ACK;
      003294 8D 82            [24]10449 	mov	dpl,r5
      003296 8E 83            [24]10450 	mov	dph,r6
      003298 8F F0            [24]10451 	mov	b,r7
      00329A 74 08            [12]10452 	mov	a,#0x08
      00329C 12r00r00         [24]10453 	lcall	__gptrput
                                  10454 ;	../../../../core/net/uip6.c:1976: uip_connr->nrtx = 0;
      00329F A8 81            [24]10455 	mov	r0,sp
      0032A1 18               [12]10456 	dec	r0
      0032A2 18               [12]10457 	dec	r0
      0032A3 74 27            [12]10458 	mov	a,#0x27
      0032A5 26               [12]10459 	add	a,@r0
      0032A6 FA               [12]10460 	mov	r2,a
      0032A7 E4               [12]10461 	clr	a
      0032A8 08               [12]10462 	inc	r0
      0032A9 36               [12]10463 	addc	a,@r0
      0032AA FB               [12]10464 	mov	r3,a
      0032AB 08               [12]10465 	inc	r0
      0032AC 86 04            [24]10466 	mov	ar4,@r0
      0032AE 8A 82            [24]10467 	mov	dpl,r2
      0032B0 8B 83            [24]10468 	mov	dph,r3
      0032B2 8C F0            [24]10469 	mov	b,r4
      0032B4 E4               [12]10470 	clr	a
      0032B5 12r00r00         [24]10471 	lcall	__gptrput
                                  10472 ;	../../../../core/net/uip6.c:1977: tcp_send_finack:
      0032B8                      10473 00410$:
                                  10474 ;	../../../../core/net/uip6.c:1978: UIP_TCP_BUF->flags = TCP_FIN | TCP_ACK;
      0032B8 7Br33            [12]10475 	mov	r3,#(_uip_aligned_buf + 0x0028)
      0032BA 7Cs00            [12]10476 	mov	r4,#((_uip_aligned_buf + 0x0028) >> 8)
      0032BC 74 0D            [12]10477 	mov	a,#0x0D
      0032BE 2B               [12]10478 	add	a,r3
      0032BF F5 82            [12]10479 	mov	dpl,a
      0032C1 E4               [12]10480 	clr	a
      0032C2 3C               [12]10481 	addc	a,r4
      0032C3 F5 83            [12]10482 	mov	dph,a
      0032C5 74 11            [12]10483 	mov	a,#0x11
      0032C7 F0               [24]10484 	movx	@dptr,a
                                  10485 ;	../../../../core/net/uip6.c:1979: goto tcp_send_nodata;
      0032C8 02r38r10         [24]10486 	ljmp	00473$
      0032CB                      10487 00412$:
                                  10488 ;	../../../../core/net/uip6.c:1984: if((UIP_TCP_BUF->flags & TCP_URG) != 0) {
      0032CB 7Br33            [12]10489 	mov	r3,#(_uip_aligned_buf + 0x0028)
      0032CD 7Cs00            [12]10490 	mov	r4,#((_uip_aligned_buf + 0x0028) >> 8)
      0032CF 74 0D            [12]10491 	mov	a,#0x0D
      0032D1 2B               [12]10492 	add	a,r3
      0032D2 F5 82            [12]10493 	mov	dpl,a
      0032D4 E4               [12]10494 	clr	a
      0032D5 3C               [12]10495 	addc	a,r4
      0032D6 F5 83            [12]10496 	mov	dph,a
      0032D8 E0               [24]10497 	movx	a,@dptr
      0032D9 FC               [12]10498 	mov	r4,a
      0032DA 30 E5 70         [24]10499 	jnb	acc.5,00415$
                                  10500 ;	../../../../core/net/uip6.c:1998: uip_appdata = ((char *)uip_appdata) + ((UIP_TCP_BUF->urgp[0] << 8) | UIP_TCP_BUF->urgp[1]);
      0032DD C0 05            [24]10501 	push	ar5
      0032DF C0 06            [24]10502 	push	ar6
      0032E1 C0 07            [24]10503 	push	ar7
      0032E3 90r00rFB         [24]10504 	mov	dptr,#_uip_appdata
      0032E6 E0               [24]10505 	movx	a,@dptr
      0032E7 FA               [12]10506 	mov	r2,a
      0032E8 A3               [24]10507 	inc	dptr
      0032E9 E0               [24]10508 	movx	a,@dptr
      0032EA FB               [12]10509 	mov	r3,a
      0032EB A3               [24]10510 	inc	dptr
      0032EC E0               [24]10511 	movx	a,@dptr
      0032ED FC               [12]10512 	mov	r4,a
      0032EE 7Er33            [12]10513 	mov	r6,#(_uip_aligned_buf + 0x0028)
      0032F0 7Fs00            [12]10514 	mov	r7,#((_uip_aligned_buf + 0x0028) >> 8)
      0032F2 74 13            [12]10515 	mov	a,#0x13
      0032F4 2E               [12]10516 	add	a,r6
      0032F5 F5 82            [12]10517 	mov	dpl,a
      0032F7 E4               [12]10518 	clr	a
      0032F8 3F               [12]10519 	addc	a,r7
      0032F9 F5 83            [12]10520 	mov	dph,a
      0032FB E0               [24]10521 	movx	a,@dptr
      0032FC 7E 00            [12]10522 	mov	r6,#0x00
      0032FE 2A               [12]10523 	add	a,r2
      0032FF FA               [12]10524 	mov	r2,a
      003300 EE               [12]10525 	mov	a,r6
      003301 3B               [12]10526 	addc	a,r3
      003302 FB               [12]10527 	mov	r3,a
      003303 90r00rFB         [24]10528 	mov	dptr,#_uip_appdata
      003306 EA               [12]10529 	mov	a,r2
      003307 F0               [24]10530 	movx	@dptr,a
      003308 EB               [12]10531 	mov	a,r3
      003309 A3               [24]10532 	inc	dptr
      00330A F0               [24]10533 	movx	@dptr,a
      00330B EC               [12]10534 	mov	a,r4
      00330C A3               [24]10535 	inc	dptr
      00330D F0               [24]10536 	movx	@dptr,a
                                  10537 ;	../../../../core/net/uip6.c:1999: uip_len -= (UIP_TCP_BUF->urgp[0] << 8) | UIP_TCP_BUF->urgp[1];
      00330E 7Er33            [12]10538 	mov	r6,#(_uip_aligned_buf + 0x0028)
      003310 7Fs00            [12]10539 	mov	r7,#((_uip_aligned_buf + 0x0028) >> 8)
      003312 74 12            [12]10540 	mov	a,#0x12
      003314 2E               [12]10541 	add	a,r6
      003315 F5 82            [12]10542 	mov	dpl,a
      003317 E4               [12]10543 	clr	a
      003318 3F               [12]10544 	addc	a,r7
      003319 F5 83            [12]10545 	mov	dph,a
      00331B E0               [24]10546 	movx	a,@dptr
      00331C FE               [12]10547 	mov	r6,a
      00331D 7F 00            [12]10548 	mov	r7,#0x00
      00331F 7Cr33            [12]10549 	mov	r4,#(_uip_aligned_buf + 0x0028)
      003321 7Ds00            [12]10550 	mov	r5,#((_uip_aligned_buf + 0x0028) >> 8)
      003323 74 13            [12]10551 	mov	a,#0x13
      003325 2C               [12]10552 	add	a,r4
      003326 F5 82            [12]10553 	mov	dpl,a
      003328 E4               [12]10554 	clr	a
      003329 3D               [12]10555 	addc	a,r5
      00332A F5 83            [12]10556 	mov	dph,a
      00332C E0               [24]10557 	movx	a,@dptr
      00332D 7C 00            [12]10558 	mov	r4,#0x00
      00332F 42 07            [12]10559 	orl	ar7,a
      003331 EC               [12]10560 	mov	a,r4
      003332 42 06            [12]10561 	orl	ar6,a
      003334 90r01r01         [24]10562 	mov	dptr,#_uip_len
      003337 E0               [24]10563 	movx	a,@dptr
      003338 FC               [12]10564 	mov	r4,a
      003339 A3               [24]10565 	inc	dptr
      00333A E0               [24]10566 	movx	a,@dptr
      00333B FD               [12]10567 	mov	r5,a
      00333C 90r01r01         [24]10568 	mov	dptr,#_uip_len
      00333F EC               [12]10569 	mov	a,r4
      003340 C3               [12]10570 	clr	c
      003341 9F               [12]10571 	subb	a,r7
      003342 F0               [24]10572 	movx	@dptr,a
      003343 ED               [12]10573 	mov	a,r5
      003344 9E               [12]10574 	subb	a,r6
      003345 A3               [24]10575 	inc	dptr
      003346 F0               [24]10576 	movx	@dptr,a
                                  10577 ;	../../../../core/net/uip6.c:2275: return;
      003347 D0 07            [24]10578 	pop	ar7
      003349 D0 06            [24]10579 	pop	ar6
      00334B D0 05            [24]10580 	pop	ar5
                                  10581 ;	../../../../core/net/uip6.c:1999: uip_len -= (UIP_TCP_BUF->urgp[0] << 8) | UIP_TCP_BUF->urgp[1];
      00334D                      10582 00415$:
                                  10583 ;	../../../../core/net/uip6.c:2008: if(uip_len > 0 && !(uip_connr->tcpstateflags & UIP_STOPPED)) {
      00334D 90r01r01         [24]10584 	mov	dptr,#_uip_len
      003350 E0               [24]10585 	movx	a,@dptr
      003351 FB               [12]10586 	mov	r3,a
      003352 A3               [24]10587 	inc	dptr
      003353 E0               [24]10588 	movx	a,@dptr
      003354 FC               [12]10589 	mov	r4,a
      003355 4B               [12]10590 	orl	a,r3
      003356 60 21            [24]10591 	jz	00417$
      003358 8D 82            [24]10592 	mov	dpl,r5
      00335A 8E 83            [24]10593 	mov	dph,r6
      00335C 8F F0            [24]10594 	mov	b,r7
      00335E 12r00r00         [24]10595 	lcall	__gptrget
      003361 FA               [12]10596 	mov	r2,a
      003362 20 E4 14         [24]10597 	jb	acc.4,00417$
                                  10598 ;	../../../../core/net/uip6.c:2009: uip_flags |= UIP_NEWDATA;
      003365 90r01r05         [24]10599 	mov	dptr,#_uip_flags
      003368 E0               [24]10600 	movx	a,@dptr
      003369 44 02            [12]10601 	orl	a,#0x02
      00336B F0               [24]10602 	movx	@dptr,a
                                  10603 ;	../../../../core/net/uip6.c:2010: uip_add_rcv_nxt(uip_len);
      00336C 8B 82            [24]10604 	mov	dpl,r3
      00336E 8C 83            [24]10605 	mov	dph,r4
      003370 78r77            [12]10606 	mov	r0,#_uip_add_rcv_nxt
      003372 79s0C            [12]10607 	mov	r1,#(_uip_add_rcv_nxt >> 8)
      003374 7As00            [12]10608 	mov	r2,#(_uip_add_rcv_nxt >> 16)
      003376 12r00r00         [24]10609 	lcall	__sdcc_banked_call
      003379                      10610 00417$:
                                  10611 ;	../../../../core/net/uip6.c:2025: tmp16 = ((uint16_t)UIP_TCP_BUF->wnd[0] << 8) + (uint16_t)UIP_TCP_BUF->wnd[1];
      003379 7Br33            [12]10612 	mov	r3,#(_uip_aligned_buf + 0x0028)
      00337B 7Cs00            [12]10613 	mov	r4,#((_uip_aligned_buf + 0x0028) >> 8)
      00337D 74 0E            [12]10614 	mov	a,#0x0E
      00337F 2B               [12]10615 	add	a,r3
      003380 F5 82            [12]10616 	mov	dpl,a
      003382 E4               [12]10617 	clr	a
      003383 3C               [12]10618 	addc	a,r4
      003384 F5 83            [12]10619 	mov	dph,a
      003386 E0               [24]10620 	movx	a,@dptr
      003387 FE               [12]10621 	mov	r6,a
      003388 7F 00            [12]10622 	mov	r7,#0x00
      00338A 7Ar33            [12]10623 	mov	r2,#(_uip_aligned_buf + 0x0028)
      00338C 7Cs00            [12]10624 	mov	r4,#((_uip_aligned_buf + 0x0028) >> 8)
      00338E 74 0F            [12]10625 	mov	a,#0x0F
      003390 2A               [12]10626 	add	a,r2
      003391 F5 82            [12]10627 	mov	dpl,a
      003393 E4               [12]10628 	clr	a
      003394 3C               [12]10629 	addc	a,r4
      003395 F5 83            [12]10630 	mov	dph,a
      003397 E0               [24]10631 	movx	a,@dptr
      003398 7B 00            [12]10632 	mov	r3,#0x00
      00339A 2F               [12]10633 	add	a,r7
      00339B FF               [12]10634 	mov	r7,a
      00339C EB               [12]10635 	mov	a,r3
      00339D 3E               [12]10636 	addc	a,r6
      00339E FE               [12]10637 	mov	r6,a
      00339F 90r03r09         [24]10638 	mov	dptr,#_tmp16
      0033A2 EF               [12]10639 	mov	a,r7
      0033A3 F0               [24]10640 	movx	@dptr,a
      0033A4 EE               [12]10641 	mov	a,r6
      0033A5 A3               [24]10642 	inc	dptr
      0033A6 F0               [24]10643 	movx	@dptr,a
                                  10644 ;	../../../../core/net/uip6.c:2026: if(tmp16 > uip_connr->initialmss ||
      0033A7 A8 81            [24]10645 	mov	r0,sp
      0033A9 18               [12]10646 	dec	r0
      0033AA 18               [12]10647 	dec	r0
      0033AB 74 20            [12]10648 	mov	a,#0x20
      0033AD 26               [12]10649 	add	a,@r0
      0033AE FA               [12]10650 	mov	r2,a
      0033AF E4               [12]10651 	clr	a
      0033B0 08               [12]10652 	inc	r0
      0033B1 36               [12]10653 	addc	a,@r0
      0033B2 FB               [12]10654 	mov	r3,a
      0033B3 08               [12]10655 	inc	r0
      0033B4 86 04            [24]10656 	mov	ar4,@r0
      0033B6 8A 82            [24]10657 	mov	dpl,r2
      0033B8 8B 83            [24]10658 	mov	dph,r3
      0033BA 8C F0            [24]10659 	mov	b,r4
      0033BC 12r00r00         [24]10660 	lcall	__gptrget
      0033BF FB               [12]10661 	mov	r3,a
      0033C0 A3               [24]10662 	inc	dptr
      0033C1 12r00r00         [24]10663 	lcall	__gptrget
      0033C4 FC               [12]10664 	mov	r4,a
      0033C5 C3               [12]10665 	clr	c
      0033C6 EB               [12]10666 	mov	a,r3
      0033C7 9F               [12]10667 	subb	a,r7
      0033C8 EC               [12]10668 	mov	a,r4
      0033C9 9E               [12]10669 	subb	a,r6
      0033CA 40 04            [24]10670 	jc	00419$
                                  10671 ;	../../../../core/net/uip6.c:2027: tmp16 == 0) {
      0033CC EF               [12]10672 	mov	a,r7
      0033CD 4E               [12]10673 	orl	a,r6
      0033CE 70 08            [24]10674 	jnz	00420$
      0033D0                      10675 00419$:
                                  10676 ;	../../../../core/net/uip6.c:2028: tmp16 = uip_connr->initialmss;
      0033D0 90r03r09         [24]10677 	mov	dptr,#_tmp16
      0033D3 EB               [12]10678 	mov	a,r3
      0033D4 F0               [24]10679 	movx	@dptr,a
      0033D5 EC               [12]10680 	mov	a,r4
      0033D6 A3               [24]10681 	inc	dptr
      0033D7 F0               [24]10682 	movx	@dptr,a
      0033D8                      10683 00420$:
                                  10684 ;	../../../../core/net/uip6.c:2030: uip_connr->mss = tmp16;
      0033D8 A8 81            [24]10685 	mov	r0,sp
      0033DA 18               [12]10686 	dec	r0
      0033DB 18               [12]10687 	dec	r0
      0033DC 74 1E            [12]10688 	mov	a,#0x1E
      0033DE 26               [12]10689 	add	a,@r0
      0033DF FF               [12]10690 	mov	r7,a
      0033E0 E4               [12]10691 	clr	a
      0033E1 08               [12]10692 	inc	r0
      0033E2 36               [12]10693 	addc	a,@r0
      0033E3 FE               [12]10694 	mov	r6,a
      0033E4 08               [12]10695 	inc	r0
      0033E5 86 05            [24]10696 	mov	ar5,@r0
      0033E7 90r03r09         [24]10697 	mov	dptr,#_tmp16
      0033EA E0               [24]10698 	movx	a,@dptr
      0033EB FB               [12]10699 	mov	r3,a
      0033EC A3               [24]10700 	inc	dptr
      0033ED E0               [24]10701 	movx	a,@dptr
      0033EE FC               [12]10702 	mov	r4,a
      0033EF 8F 82            [24]10703 	mov	dpl,r7
      0033F1 8E 83            [24]10704 	mov	dph,r6
      0033F3 8D F0            [24]10705 	mov	b,r5
      0033F5 EB               [12]10706 	mov	a,r3
      0033F6 12r00r00         [24]10707 	lcall	__gptrput
      0033F9 A3               [24]10708 	inc	dptr
      0033FA EC               [12]10709 	mov	a,r4
      0033FB 12r00r00         [24]10710 	lcall	__gptrput
                                  10711 ;	../../../../core/net/uip6.c:2048: if(uip_flags & (UIP_NEWDATA | UIP_ACKDATA)) {
      0033FE 90r01r05         [24]10712 	mov	dptr,#_uip_flags
      003401 E0               [24]10713 	movx	a,@dptr
      003402 FC               [12]10714 	mov	r4,a
      003403 54 03            [12]10715 	anl	a,#0x03
      003405 70 03            [24]10716 	jnz	01371$
      003407 02r3Br87         [24]10717 	ljmp	00482$
      00340A                      10718 01371$:
                                  10719 ;	../../../../core/net/uip6.c:2049: uip_slen = 0;
      00340A 90r01r03         [24]10720 	mov	dptr,#_uip_slen
      00340D E4               [12]10721 	clr	a
      00340E F0               [24]10722 	movx	@dptr,a
      00340F E4               [12]10723 	clr	a
      003410 A3               [24]10724 	inc	dptr
      003411 F0               [24]10725 	movx	@dptr,a
                                  10726 ;	../../../../core/net/uip6.c:2050: UIP_APPCALL();
      003412 78r00            [12]10727 	mov	r0,#_tcpip_uipcall
      003414 79s00            [12]10728 	mov	r1,#(_tcpip_uipcall >> 8)
      003416 7As00            [12]10729 	mov	r2,#(_tcpip_uipcall >> 16)
      003418 12r00r00         [24]10730 	lcall	__sdcc_banked_call
                                  10731 ;	../../../../core/net/uip6.c:2052: appsend:
      00341B                      10732 00422$:
                                  10733 ;	../../../../core/net/uip6.c:2054: if(uip_flags & UIP_ABORT) {
      00341B 90r01r05         [24]10734 	mov	dptr,#_uip_flags
      00341E E0               [24]10735 	movx	a,@dptr
      00341F FC               [12]10736 	mov	r4,a
      003420 30 E5 34         [24]10737 	jnb	acc.5,00424$
                                  10738 ;	../../../../core/net/uip6.c:2055: uip_slen = 0;
      003423 90r01r03         [24]10739 	mov	dptr,#_uip_slen
      003426 E4               [12]10740 	clr	a
      003427 F0               [24]10741 	movx	@dptr,a
      003428 E4               [12]10742 	clr	a
      003429 A3               [24]10743 	inc	dptr
      00342A F0               [24]10744 	movx	@dptr,a
                                  10745 ;	../../../../core/net/uip6.c:2056: uip_connr->tcpstateflags = UIP_CLOSED;
      00342B A8 81            [24]10746 	mov	r0,sp
      00342D 18               [12]10747 	dec	r0
      00342E 18               [12]10748 	dec	r0
      00342F 74 25            [12]10749 	mov	a,#0x25
      003431 26               [12]10750 	add	a,@r0
      003432 FF               [12]10751 	mov	r7,a
      003433 E4               [12]10752 	clr	a
      003434 08               [12]10753 	inc	r0
      003435 36               [12]10754 	addc	a,@r0
      003436 FE               [12]10755 	mov	r6,a
      003437 08               [12]10756 	inc	r0
      003438 86 05            [24]10757 	mov	ar5,@r0
      00343A 8F 82            [24]10758 	mov	dpl,r7
      00343C 8E 83            [24]10759 	mov	dph,r6
      00343E 8D F0            [24]10760 	mov	b,r5
      003440 E4               [12]10761 	clr	a
      003441 12r00r00         [24]10762 	lcall	__gptrput
                                  10763 ;	../../../../core/net/uip6.c:2057: UIP_TCP_BUF->flags = TCP_RST | TCP_ACK;
      003444 7Ar33            [12]10764 	mov	r2,#(_uip_aligned_buf + 0x0028)
      003446 7Bs00            [12]10765 	mov	r3,#((_uip_aligned_buf + 0x0028) >> 8)
      003448 74 0D            [12]10766 	mov	a,#0x0D
      00344A 2A               [12]10767 	add	a,r2
      00344B F5 82            [12]10768 	mov	dpl,a
      00344D E4               [12]10769 	clr	a
      00344E 3B               [12]10770 	addc	a,r3
      00344F F5 83            [12]10771 	mov	dph,a
      003451 74 14            [12]10772 	mov	a,#0x14
      003453 F0               [24]10773 	movx	@dptr,a
                                  10774 ;	../../../../core/net/uip6.c:2058: goto tcp_send_nodata;
      003454 02r38r10         [24]10775 	ljmp	00473$
      003457                      10776 00424$:
                                  10777 ;	../../../../core/net/uip6.c:2061: if(uip_flags & UIP_CLOSE) {
      003457 EC               [12]10778 	mov	a,r4
      003458 30 E4 6D         [24]10779 	jnb	acc.4,00426$
                                  10780 ;	../../../../core/net/uip6.c:2062: uip_slen = 0;
      00345B 90r01r03         [24]10781 	mov	dptr,#_uip_slen
      00345E E4               [12]10782 	clr	a
      00345F F0               [24]10783 	movx	@dptr,a
      003460 E4               [12]10784 	clr	a
      003461 A3               [24]10785 	inc	dptr
      003462 F0               [24]10786 	movx	@dptr,a
                                  10787 ;	../../../../core/net/uip6.c:2063: uip_connr->len = 1;
      003463 A8 81            [24]10788 	mov	r0,sp
      003465 18               [12]10789 	dec	r0
      003466 18               [12]10790 	dec	r0
      003467 74 1C            [12]10791 	mov	a,#0x1C
      003469 26               [12]10792 	add	a,@r0
      00346A FF               [12]10793 	mov	r7,a
      00346B E4               [12]10794 	clr	a
      00346C 08               [12]10795 	inc	r0
      00346D 36               [12]10796 	addc	a,@r0
      00346E FE               [12]10797 	mov	r6,a
      00346F 08               [12]10798 	inc	r0
      003470 86 05            [24]10799 	mov	ar5,@r0
      003472 8F 82            [24]10800 	mov	dpl,r7
      003474 8E 83            [24]10801 	mov	dph,r6
      003476 8D F0            [24]10802 	mov	b,r5
      003478 74 01            [12]10803 	mov	a,#0x01
      00347A 12r00r00         [24]10804 	lcall	__gptrput
      00347D A3               [24]10805 	inc	dptr
      00347E E4               [12]10806 	clr	a
      00347F 12r00r00         [24]10807 	lcall	__gptrput
                                  10808 ;	../../../../core/net/uip6.c:2064: uip_connr->tcpstateflags = UIP_FIN_WAIT_1;
      003482 A8 81            [24]10809 	mov	r0,sp
      003484 18               [12]10810 	dec	r0
      003485 18               [12]10811 	dec	r0
      003486 74 25            [12]10812 	mov	a,#0x25
      003488 26               [12]10813 	add	a,@r0
      003489 FF               [12]10814 	mov	r7,a
      00348A E4               [12]10815 	clr	a
      00348B 08               [12]10816 	inc	r0
      00348C 36               [12]10817 	addc	a,@r0
      00348D FE               [12]10818 	mov	r6,a
      00348E 08               [12]10819 	inc	r0
      00348F 86 05            [24]10820 	mov	ar5,@r0
      003491 8F 82            [24]10821 	mov	dpl,r7
      003493 8E 83            [24]10822 	mov	dph,r6
      003495 8D F0            [24]10823 	mov	b,r5
      003497 74 04            [12]10824 	mov	a,#0x04
      003499 12r00r00         [24]10825 	lcall	__gptrput
                                  10826 ;	../../../../core/net/uip6.c:2065: uip_connr->nrtx = 0;
      00349C A8 81            [24]10827 	mov	r0,sp
      00349E 18               [12]10828 	dec	r0
      00349F 18               [12]10829 	dec	r0
      0034A0 74 27            [12]10830 	mov	a,#0x27
      0034A2 26               [12]10831 	add	a,@r0
      0034A3 FF               [12]10832 	mov	r7,a
      0034A4 E4               [12]10833 	clr	a
      0034A5 08               [12]10834 	inc	r0
      0034A6 36               [12]10835 	addc	a,@r0
      0034A7 FE               [12]10836 	mov	r6,a
      0034A8 08               [12]10837 	inc	r0
      0034A9 86 05            [24]10838 	mov	ar5,@r0
      0034AB 8F 82            [24]10839 	mov	dpl,r7
      0034AD 8E 83            [24]10840 	mov	dph,r6
      0034AF 8D F0            [24]10841 	mov	b,r5
      0034B1 E4               [12]10842 	clr	a
      0034B2 12r00r00         [24]10843 	lcall	__gptrput
                                  10844 ;	../../../../core/net/uip6.c:2066: UIP_TCP_BUF->flags = TCP_FIN | TCP_ACK;
      0034B5 7Ar33            [12]10845 	mov	r2,#(_uip_aligned_buf + 0x0028)
      0034B7 7Bs00            [12]10846 	mov	r3,#((_uip_aligned_buf + 0x0028) >> 8)
      0034B9 74 0D            [12]10847 	mov	a,#0x0D
      0034BB 2A               [12]10848 	add	a,r2
      0034BC F5 82            [12]10849 	mov	dpl,a
      0034BE E4               [12]10850 	clr	a
      0034BF 3B               [12]10851 	addc	a,r3
      0034C0 F5 83            [12]10852 	mov	dph,a
      0034C2 74 11            [12]10853 	mov	a,#0x11
      0034C4 F0               [24]10854 	movx	@dptr,a
                                  10855 ;	../../../../core/net/uip6.c:2067: goto tcp_send_nodata;
      0034C5 02r38r10         [24]10856 	ljmp	00473$
      0034C8                      10857 00426$:
                                  10858 ;	../../../../core/net/uip6.c:2071: if(uip_slen > 0) {
      0034C8 90r01r03         [24]10859 	mov	dptr,#_uip_slen
      0034CB E0               [24]10860 	movx	a,@dptr
      0034CC FA               [12]10861 	mov	r2,a
      0034CD A3               [24]10862 	inc	dptr
      0034CE E0               [24]10863 	movx	a,@dptr
      0034CF FB               [12]10864 	mov	r3,a
      0034D0 4A               [12]10865 	orl	a,r2
      0034D1 70 03            [24]10866 	jnz	01374$
      0034D3 02r35r8E         [24]10867 	ljmp	00435$
      0034D6                      10868 01374$:
                                  10869 ;	../../../../core/net/uip6.c:2075: if((uip_flags & UIP_ACKDATA) != 0) {
      0034D6 EC               [12]10870 	mov	a,r4
      0034D7 30 E0 1E         [24]10871 	jnb	acc.0,00428$
                                  10872 ;	../../../../core/net/uip6.c:2076: uip_connr->len = 0;
      0034DA A8 81            [24]10873 	mov	r0,sp
      0034DC 18               [12]10874 	dec	r0
      0034DD 18               [12]10875 	dec	r0
      0034DE 74 1C            [12]10876 	mov	a,#0x1C
      0034E0 26               [12]10877 	add	a,@r0
      0034E1 FA               [12]10878 	mov	r2,a
      0034E2 E4               [12]10879 	clr	a
      0034E3 08               [12]10880 	inc	r0
      0034E4 36               [12]10881 	addc	a,@r0
      0034E5 FB               [12]10882 	mov	r3,a
      0034E6 08               [12]10883 	inc	r0
      0034E7 86 04            [24]10884 	mov	ar4,@r0
      0034E9 8A 82            [24]10885 	mov	dpl,r2
      0034EB 8B 83            [24]10886 	mov	dph,r3
      0034ED 8C F0            [24]10887 	mov	b,r4
      0034EF E4               [12]10888 	clr	a
      0034F0 12r00r00         [24]10889 	lcall	__gptrput
      0034F3 A3               [24]10890 	inc	dptr
      0034F4 E4               [12]10891 	clr	a
      0034F5 12r00r00         [24]10892 	lcall	__gptrput
      0034F8                      10893 00428$:
                                  10894 ;	../../../../core/net/uip6.c:2082: if(uip_connr->len == 0) {
      0034F8 A8 81            [24]10895 	mov	r0,sp
      0034FA 18               [12]10896 	dec	r0
      0034FB 18               [12]10897 	dec	r0
      0034FC 74 1C            [12]10898 	mov	a,#0x1C
      0034FE 26               [12]10899 	add	a,@r0
      0034FF FF               [12]10900 	mov	r7,a
      003500 E4               [12]10901 	clr	a
      003501 08               [12]10902 	inc	r0
      003502 36               [12]10903 	addc	a,@r0
      003503 FE               [12]10904 	mov	r6,a
      003504 08               [12]10905 	inc	r0
      003505 86 05            [24]10906 	mov	ar5,@r0
      003507 8F 82            [24]10907 	mov	dpl,r7
      003509 8E 83            [24]10908 	mov	dph,r6
      00350B 8D F0            [24]10909 	mov	b,r5
      00350D 12r00r00         [24]10910 	lcall	__gptrget
      003510 FC               [12]10911 	mov	r4,a
      003511 A3               [24]10912 	inc	dptr
      003512 12r00r00         [24]10913 	lcall	__gptrget
      003515 FB               [12]10914 	mov	r3,a
      003516 4C               [12]10915 	orl	a,r4
      003517 70 6D            [24]10916 	jnz	00432$
                                  10917 ;	../../../../core/net/uip6.c:2087: if(uip_slen > uip_connr->mss) {
      003519 C0 07            [24]10918 	push	ar7
      00351B C0 06            [24]10919 	push	ar6
      00351D C0 05            [24]10920 	push	ar5
      00351F E5 81            [12]10921 	mov	a,sp
      003521 24 FB            [12]10922 	add	a,#0xfb
      003523 F8               [12]10923 	mov	r0,a
      003524 74 1E            [12]10924 	mov	a,#0x1E
      003526 26               [12]10925 	add	a,@r0
      003527 FA               [12]10926 	mov	r2,a
      003528 E4               [12]10927 	clr	a
      003529 08               [12]10928 	inc	r0
      00352A 36               [12]10929 	addc	a,@r0
      00352B FB               [12]10930 	mov	r3,a
      00352C 08               [12]10931 	inc	r0
      00352D 86 04            [24]10932 	mov	ar4,@r0
      00352F 8A 82            [24]10933 	mov	dpl,r2
      003531 8B 83            [24]10934 	mov	dph,r3
      003533 8C F0            [24]10935 	mov	b,r4
      003535 E5 81            [12]10936 	mov	a,sp
      003537 24 F6            [12]10937 	add	a,#0xf6
      003539 F8               [12]10938 	mov	r0,a
      00353A 12r00r00         [24]10939 	lcall	__gptrget
      00353D F6               [12]10940 	mov	@r0,a
      00353E A3               [24]10941 	inc	dptr
      00353F 12r00r00         [24]10942 	lcall	__gptrget
      003542 08               [12]10943 	inc	r0
      003543 F6               [12]10944 	mov	@r0,a
      003544 90r01r03         [24]10945 	mov	dptr,#_uip_slen
      003547 E0               [24]10946 	movx	a,@dptr
      003548 FB               [12]10947 	mov	r3,a
      003549 A3               [24]10948 	inc	dptr
      00354A E0               [24]10949 	movx	a,@dptr
      00354B FC               [12]10950 	mov	r4,a
      00354C E5 81            [12]10951 	mov	a,sp
      00354E 24 F6            [12]10952 	add	a,#0xf6
      003550 F8               [12]10953 	mov	r0,a
      003551 C3               [12]10954 	clr	c
      003552 E6               [12]10955 	mov	a,@r0
      003553 9B               [12]10956 	subb	a,r3
      003554 08               [12]10957 	inc	r0
      003555 E6               [12]10958 	mov	a,@r0
      003556 9C               [12]10959 	subb	a,r4
      003557 D0 05            [24]10960 	pop	ar5
      003559 D0 06            [24]10961 	pop	ar6
      00355B D0 07            [24]10962 	pop	ar7
      00355D 50 0E            [24]10963 	jnc	00430$
                                  10964 ;	../../../../core/net/uip6.c:2088: uip_slen = uip_connr->mss;
      00355F E5 81            [12]10965 	mov	a,sp
      003561 24 F9            [12]10966 	add	a,#0xf9
      003563 F8               [12]10967 	mov	r0,a
      003564 90r01r03         [24]10968 	mov	dptr,#_uip_slen
      003567 E6               [12]10969 	mov	a,@r0
      003568 F0               [24]10970 	movx	@dptr,a
      003569 08               [12]10971 	inc	r0
      00356A E6               [12]10972 	mov	a,@r0
      00356B A3               [24]10973 	inc	dptr
      00356C F0               [24]10974 	movx	@dptr,a
      00356D                      10975 00430$:
                                  10976 ;	../../../../core/net/uip6.c:2093: uip_connr->len = uip_slen;
      00356D 90r01r03         [24]10977 	mov	dptr,#_uip_slen
      003570 E0               [24]10978 	movx	a,@dptr
      003571 FB               [12]10979 	mov	r3,a
      003572 A3               [24]10980 	inc	dptr
      003573 E0               [24]10981 	movx	a,@dptr
      003574 FC               [12]10982 	mov	r4,a
      003575 8F 82            [24]10983 	mov	dpl,r7
      003577 8E 83            [24]10984 	mov	dph,r6
      003579 8D F0            [24]10985 	mov	b,r5
      00357B EB               [12]10986 	mov	a,r3
      00357C 12r00r00         [24]10987 	lcall	__gptrput
      00357F A3               [24]10988 	inc	dptr
      003580 EC               [12]10989 	mov	a,r4
      003581 12r00r00         [24]10990 	lcall	__gptrput
      003584 80 08            [24]10991 	sjmp	00435$
      003586                      10992 00432$:
                                  10993 ;	../../../../core/net/uip6.c:2099: uip_slen = uip_connr->len;
      003586 90r01r03         [24]10994 	mov	dptr,#_uip_slen
      003589 EC               [12]10995 	mov	a,r4
      00358A F0               [24]10996 	movx	@dptr,a
      00358B EB               [12]10997 	mov	a,r3
      00358C A3               [24]10998 	inc	dptr
      00358D F0               [24]10999 	movx	@dptr,a
      00358E                      11000 00435$:
                                  11001 ;	../../../../core/net/uip6.c:2102: uip_connr->nrtx = 0;
      00358E A8 81            [24]11002 	mov	r0,sp
      003590 18               [12]11003 	dec	r0
      003591 18               [12]11004 	dec	r0
      003592 74 27            [12]11005 	mov	a,#0x27
      003594 26               [12]11006 	add	a,@r0
      003595 FA               [12]11007 	mov	r2,a
      003596 E4               [12]11008 	clr	a
      003597 08               [12]11009 	inc	r0
      003598 36               [12]11010 	addc	a,@r0
      003599 FB               [12]11011 	mov	r3,a
      00359A 08               [12]11012 	inc	r0
      00359B 86 04            [24]11013 	mov	ar4,@r0
      00359D 8A 82            [24]11014 	mov	dpl,r2
      00359F 8B 83            [24]11015 	mov	dph,r3
      0035A1 8C F0            [24]11016 	mov	b,r4
      0035A3 E4               [12]11017 	clr	a
      0035A4 12r00r00         [24]11018 	lcall	__gptrput
                                  11019 ;	../../../../core/net/uip6.c:2103: apprexmit:
      0035A7                      11020 00436$:
                                  11021 ;	../../../../core/net/uip6.c:2104: uip_appdata = uip_sappdata;
      0035A7 90r00rFE         [24]11022 	mov	dptr,#_uip_sappdata
      0035AA E0               [24]11023 	movx	a,@dptr
      0035AB FA               [12]11024 	mov	r2,a
      0035AC A3               [24]11025 	inc	dptr
      0035AD E0               [24]11026 	movx	a,@dptr
      0035AE FB               [12]11027 	mov	r3,a
      0035AF A3               [24]11028 	inc	dptr
      0035B0 E0               [24]11029 	movx	a,@dptr
      0035B1 FC               [12]11030 	mov	r4,a
      0035B2 90r00rFB         [24]11031 	mov	dptr,#_uip_appdata
      0035B5 EA               [12]11032 	mov	a,r2
      0035B6 F0               [24]11033 	movx	@dptr,a
      0035B7 EB               [12]11034 	mov	a,r3
      0035B8 A3               [24]11035 	inc	dptr
      0035B9 F0               [24]11036 	movx	@dptr,a
      0035BA EC               [12]11037 	mov	a,r4
      0035BB A3               [24]11038 	inc	dptr
      0035BC F0               [24]11039 	movx	@dptr,a
                                  11040 ;	../../../../core/net/uip6.c:2108: if(uip_slen > 0 && uip_connr->len > 0) {
      0035BD 90r01r03         [24]11041 	mov	dptr,#_uip_slen
      0035C0 E0               [24]11042 	movx	a,@dptr
      0035C1 FB               [12]11043 	mov	r3,a
      0035C2 A3               [24]11044 	inc	dptr
      0035C3 E0               [24]11045 	movx	a,@dptr
      0035C4 FC               [12]11046 	mov	r4,a
      0035C5 4B               [12]11047 	orl	a,r3
      0035C6 60 3F            [24]11048 	jz	00438$
      0035C8 A8 81            [24]11049 	mov	r0,sp
      0035CA 18               [12]11050 	dec	r0
      0035CB 18               [12]11051 	dec	r0
      0035CC 74 1C            [12]11052 	mov	a,#0x1C
      0035CE 26               [12]11053 	add	a,@r0
      0035CF FA               [12]11054 	mov	r2,a
      0035D0 E4               [12]11055 	clr	a
      0035D1 08               [12]11056 	inc	r0
      0035D2 36               [12]11057 	addc	a,@r0
      0035D3 FB               [12]11058 	mov	r3,a
      0035D4 08               [12]11059 	inc	r0
      0035D5 86 04            [24]11060 	mov	ar4,@r0
      0035D7 8A 82            [24]11061 	mov	dpl,r2
      0035D9 8B 83            [24]11062 	mov	dph,r3
      0035DB 8C F0            [24]11063 	mov	b,r4
      0035DD 12r00r00         [24]11064 	lcall	__gptrget
      0035E0 FB               [12]11065 	mov	r3,a
      0035E1 A3               [24]11066 	inc	dptr
      0035E2 12r00r00         [24]11067 	lcall	__gptrget
      0035E5 FC               [12]11068 	mov	r4,a
      0035E6 4B               [12]11069 	orl	a,r3
      0035E7 60 1E            [24]11070 	jz	00438$
                                  11071 ;	../../../../core/net/uip6.c:2110: uip_len = uip_connr->len + UIP_TCPIP_HLEN;
      0035E9 90r01r01         [24]11072 	mov	dptr,#_uip_len
      0035EC 74 3C            [12]11073 	mov	a,#0x3C
      0035EE 2B               [12]11074 	add	a,r3
      0035EF F0               [24]11075 	movx	@dptr,a
      0035F0 E4               [12]11076 	clr	a
      0035F1 3C               [12]11077 	addc	a,r4
      0035F2 A3               [24]11078 	inc	dptr
      0035F3 F0               [24]11079 	movx	@dptr,a
                                  11080 ;	../../../../core/net/uip6.c:2112: UIP_TCP_BUF->flags = TCP_ACK | TCP_PSH;
      0035F4 7Br33            [12]11081 	mov	r3,#(_uip_aligned_buf + 0x0028)
      0035F6 7Cs00            [12]11082 	mov	r4,#((_uip_aligned_buf + 0x0028) >> 8)
      0035F8 74 0D            [12]11083 	mov	a,#0x0D
      0035FA 2B               [12]11084 	add	a,r3
      0035FB F5 82            [12]11085 	mov	dpl,a
      0035FD E4               [12]11086 	clr	a
      0035FE 3C               [12]11087 	addc	a,r4
      0035FF F5 83            [12]11088 	mov	dph,a
      003601 74 18            [12]11089 	mov	a,#0x18
      003603 F0               [24]11090 	movx	@dptr,a
                                  11091 ;	../../../../core/net/uip6.c:2114: goto tcp_send_noopts;
      003604 02r38r19         [24]11092 	ljmp	00474$
      003607                      11093 00438$:
                                  11094 ;	../../../../core/net/uip6.c:2118: if(uip_flags & UIP_NEWDATA) {
      003607 90r01r05         [24]11095 	mov	dptr,#_uip_flags
      00360A E0               [24]11096 	movx	a,@dptr
      00360B FC               [12]11097 	mov	r4,a
      00360C 20 E1 03         [24]11098 	jb	acc.1,01380$
      00360F 02r3Br87         [24]11099 	ljmp	00482$
      003612                      11100 01380$:
                                  11101 ;	../../../../core/net/uip6.c:2119: uip_len = UIP_TCPIP_HLEN;
      003612 90r01r01         [24]11102 	mov	dptr,#_uip_len
      003615 74 3C            [12]11103 	mov	a,#0x3C
      003617 F0               [24]11104 	movx	@dptr,a
      003618 E4               [12]11105 	clr	a
      003619 A3               [24]11106 	inc	dptr
      00361A F0               [24]11107 	movx	@dptr,a
                                  11108 ;	../../../../core/net/uip6.c:2120: UIP_TCP_BUF->flags = TCP_ACK;
      00361B 7Br33            [12]11109 	mov	r3,#(_uip_aligned_buf + 0x0028)
      00361D 7Cs00            [12]11110 	mov	r4,#((_uip_aligned_buf + 0x0028) >> 8)
      00361F 74 0D            [12]11111 	mov	a,#0x0D
      003621 2B               [12]11112 	add	a,r3
      003622 F5 82            [12]11113 	mov	dpl,a
      003624 E4               [12]11114 	clr	a
      003625 3C               [12]11115 	addc	a,r4
      003626 F5 83            [12]11116 	mov	dph,a
      003628 74 10            [12]11117 	mov	a,#0x10
      00362A F0               [24]11118 	movx	@dptr,a
                                  11119 ;	../../../../core/net/uip6.c:2121: goto tcp_send_noopts;
      00362B 02r38r19         [24]11120 	ljmp	00474$
                                  11121 ;	../../../../core/net/uip6.c:2125: case UIP_LAST_ACK:
      00362E                      11122 00444$:
                                  11123 ;	../../../../core/net/uip6.c:2128: if(uip_flags & UIP_ACKDATA) {
      00362E 90r01r05         [24]11124 	mov	dptr,#_uip_flags
      003631 E0               [24]11125 	movx	a,@dptr
      003632 FC               [12]11126 	mov	r4,a
      003633 20 E0 03         [24]11127 	jb	acc.0,01381$
      003636 02r3Br87         [24]11128 	ljmp	00482$
      003639                      11129 01381$:
                                  11130 ;	../../../../core/net/uip6.c:2129: uip_connr->tcpstateflags = UIP_CLOSED;
      003639 8D 82            [24]11131 	mov	dpl,r5
      00363B 8E 83            [24]11132 	mov	dph,r6
      00363D 8F F0            [24]11133 	mov	b,r7
      00363F E4               [12]11134 	clr	a
      003640 12r00r00         [24]11135 	lcall	__gptrput
                                  11136 ;	../../../../core/net/uip6.c:2130: uip_flags = UIP_CLOSE;
      003643 90r01r05         [24]11137 	mov	dptr,#_uip_flags
      003646 74 10            [12]11138 	mov	a,#0x10
      003648 F0               [24]11139 	movx	@dptr,a
                                  11140 ;	../../../../core/net/uip6.c:2131: UIP_APPCALL();
      003649 78r00            [12]11141 	mov	r0,#_tcpip_uipcall
      00364B 79s00            [12]11142 	mov	r1,#(_tcpip_uipcall >> 8)
      00364D 7As00            [12]11143 	mov	r2,#(_tcpip_uipcall >> 16)
      00364F 12r00r00         [24]11144 	lcall	__sdcc_banked_call
                                  11145 ;	../../../../core/net/uip6.c:2133: break;
      003652 02r3Br87         [24]11146 	ljmp	00482$
                                  11147 ;	../../../../core/net/uip6.c:2135: case UIP_FIN_WAIT_1:
      003655                      11148 00447$:
                                  11149 ;	../../../../core/net/uip6.c:2139: if(uip_len > 0) {
      003655 90r01r01         [24]11150 	mov	dptr,#_uip_len
      003658 E0               [24]11151 	movx	a,@dptr
      003659 FB               [12]11152 	mov	r3,a
      00365A A3               [24]11153 	inc	dptr
      00365B E0               [24]11154 	movx	a,@dptr
      00365C FC               [12]11155 	mov	r4,a
      00365D 4B               [12]11156 	orl	a,r3
      00365E 60 19            [24]11157 	jz	00449$
                                  11158 ;	../../../../core/net/uip6.c:2140: uip_add_rcv_nxt(uip_len);
      003660 8B 82            [24]11159 	mov	dpl,r3
      003662 8C 83            [24]11160 	mov	dph,r4
      003664 C0 07            [24]11161 	push	ar7
      003666 C0 06            [24]11162 	push	ar6
      003668 C0 05            [24]11163 	push	ar5
      00366A 78r77            [12]11164 	mov	r0,#_uip_add_rcv_nxt
      00366C 79s0C            [12]11165 	mov	r1,#(_uip_add_rcv_nxt >> 8)
      00366E 7As00            [12]11166 	mov	r2,#(_uip_add_rcv_nxt >> 16)
      003670 12r00r00         [24]11167 	lcall	__sdcc_banked_call
      003673 D0 05            [24]11168 	pop	ar5
      003675 D0 06            [24]11169 	pop	ar6
      003677 D0 07            [24]11170 	pop	ar7
      003679                      11171 00449$:
                                  11172 ;	../../../../core/net/uip6.c:2142: if(UIP_TCP_BUF->flags & TCP_FIN) {
      003679 7Br33            [12]11173 	mov	r3,#(_uip_aligned_buf + 0x0028)
      00367B 7Cs00            [12]11174 	mov	r4,#((_uip_aligned_buf + 0x0028) >> 8)
      00367D 74 0D            [12]11175 	mov	a,#0x0D
      00367F 2B               [12]11176 	add	a,r3
      003680 F5 82            [12]11177 	mov	dpl,a
      003682 E4               [12]11178 	clr	a
      003683 3C               [12]11179 	addc	a,r4
      003684 F5 83            [12]11180 	mov	dph,a
      003686 E0               [24]11181 	movx	a,@dptr
      003687 FC               [12]11182 	mov	r4,a
      003688 30 E0 75         [24]11183 	jnb	acc.0,00456$
                                  11184 ;	../../../../core/net/uip6.c:2143: if(uip_flags & UIP_ACKDATA) {
      00368B 90r01r05         [24]11185 	mov	dptr,#_uip_flags
      00368E E0               [24]11186 	movx	a,@dptr
      00368F FC               [12]11187 	mov	r4,a
      003690 30 E0 44         [24]11188 	jnb	acc.0,00451$
                                  11189 ;	../../../../core/net/uip6.c:2144: uip_connr->tcpstateflags = UIP_TIME_WAIT;
      003693 8D 82            [24]11190 	mov	dpl,r5
      003695 8E 83            [24]11191 	mov	dph,r6
      003697 8F F0            [24]11192 	mov	b,r7
      003699 74 07            [12]11193 	mov	a,#0x07
      00369B 12r00r00         [24]11194 	lcall	__gptrput
                                  11195 ;	../../../../core/net/uip6.c:2145: uip_connr->timer = 0;
      00369E A8 81            [24]11196 	mov	r0,sp
      0036A0 18               [12]11197 	dec	r0
      0036A1 18               [12]11198 	dec	r0
      0036A2 74 26            [12]11199 	mov	a,#0x26
      0036A4 26               [12]11200 	add	a,@r0
      0036A5 FA               [12]11201 	mov	r2,a
      0036A6 E4               [12]11202 	clr	a
      0036A7 08               [12]11203 	inc	r0
      0036A8 36               [12]11204 	addc	a,@r0
      0036A9 FB               [12]11205 	mov	r3,a
      0036AA 08               [12]11206 	inc	r0
      0036AB 86 04            [24]11207 	mov	ar4,@r0
      0036AD 8A 82            [24]11208 	mov	dpl,r2
      0036AF 8B 83            [24]11209 	mov	dph,r3
      0036B1 8C F0            [24]11210 	mov	b,r4
      0036B3 E4               [12]11211 	clr	a
      0036B4 12r00r00         [24]11212 	lcall	__gptrput
                                  11213 ;	../../../../core/net/uip6.c:2146: uip_connr->len = 0;
      0036B7 A8 81            [24]11214 	mov	r0,sp
      0036B9 18               [12]11215 	dec	r0
      0036BA 18               [12]11216 	dec	r0
      0036BB 74 1C            [12]11217 	mov	a,#0x1C
      0036BD 26               [12]11218 	add	a,@r0
      0036BE FA               [12]11219 	mov	r2,a
      0036BF E4               [12]11220 	clr	a
      0036C0 08               [12]11221 	inc	r0
      0036C1 36               [12]11222 	addc	a,@r0
      0036C2 FB               [12]11223 	mov	r3,a
      0036C3 08               [12]11224 	inc	r0
      0036C4 86 04            [24]11225 	mov	ar4,@r0
      0036C6 8A 82            [24]11226 	mov	dpl,r2
      0036C8 8B 83            [24]11227 	mov	dph,r3
      0036CA 8C F0            [24]11228 	mov	b,r4
      0036CC E4               [12]11229 	clr	a
      0036CD 12r00r00         [24]11230 	lcall	__gptrput
      0036D0 A3               [24]11231 	inc	dptr
      0036D1 E4               [12]11232 	clr	a
      0036D2 12r00r00         [24]11233 	lcall	__gptrput
      0036D5 80 0B            [24]11234 	sjmp	00452$
      0036D7                      11235 00451$:
                                  11236 ;	../../../../core/net/uip6.c:2148: uip_connr->tcpstateflags = UIP_CLOSING;
      0036D7 8D 82            [24]11237 	mov	dpl,r5
      0036D9 8E 83            [24]11238 	mov	dph,r6
      0036DB 8F F0            [24]11239 	mov	b,r7
      0036DD 74 06            [12]11240 	mov	a,#0x06
      0036DF 12r00r00         [24]11241 	lcall	__gptrput
      0036E2                      11242 00452$:
                                  11243 ;	../../../../core/net/uip6.c:2150: uip_add_rcv_nxt(1);
      0036E2 90 00 01         [24]11244 	mov	dptr,#0x0001
      0036E5 78r77            [12]11245 	mov	r0,#_uip_add_rcv_nxt
      0036E7 79s0C            [12]11246 	mov	r1,#(_uip_add_rcv_nxt >> 8)
      0036E9 7As00            [12]11247 	mov	r2,#(_uip_add_rcv_nxt >> 16)
      0036EB 12r00r00         [24]11248 	lcall	__sdcc_banked_call
                                  11249 ;	../../../../core/net/uip6.c:2151: uip_flags = UIP_CLOSE;
      0036EE 90r01r05         [24]11250 	mov	dptr,#_uip_flags
      0036F1 74 10            [12]11251 	mov	a,#0x10
      0036F3 F0               [24]11252 	movx	@dptr,a
                                  11253 ;	../../../../core/net/uip6.c:2152: UIP_APPCALL();
      0036F4 78r00            [12]11254 	mov	r0,#_tcpip_uipcall
      0036F6 79s00            [12]11255 	mov	r1,#(_tcpip_uipcall >> 8)
      0036F8 7As00            [12]11256 	mov	r2,#(_tcpip_uipcall >> 16)
      0036FA 12r00r00         [24]11257 	lcall	__sdcc_banked_call
                                  11258 ;	../../../../core/net/uip6.c:2153: goto tcp_send_ack;
      0036FD 02r38r00         [24]11259 	ljmp	00472$
      003700                      11260 00456$:
                                  11261 ;	../../../../core/net/uip6.c:2154: } else if(uip_flags & UIP_ACKDATA) {
      003700 90r01r05         [24]11262 	mov	dptr,#_uip_flags
      003703 E0               [24]11263 	movx	a,@dptr
      003704 FC               [12]11264 	mov	r4,a
      003705 30 E0 2C         [24]11265 	jnb	acc.0,00457$
                                  11266 ;	../../../../core/net/uip6.c:2155: uip_connr->tcpstateflags = UIP_FIN_WAIT_2;
      003708 8D 82            [24]11267 	mov	dpl,r5
      00370A 8E 83            [24]11268 	mov	dph,r6
      00370C 8F F0            [24]11269 	mov	b,r7
      00370E 74 05            [12]11270 	mov	a,#0x05
      003710 12r00r00         [24]11271 	lcall	__gptrput
                                  11272 ;	../../../../core/net/uip6.c:2156: uip_connr->len = 0;
      003713 A8 81            [24]11273 	mov	r0,sp
      003715 18               [12]11274 	dec	r0
      003716 18               [12]11275 	dec	r0
      003717 74 1C            [12]11276 	mov	a,#0x1C
      003719 26               [12]11277 	add	a,@r0
      00371A FA               [12]11278 	mov	r2,a
      00371B E4               [12]11279 	clr	a
      00371C 08               [12]11280 	inc	r0
      00371D 36               [12]11281 	addc	a,@r0
      00371E FB               [12]11282 	mov	r3,a
      00371F 08               [12]11283 	inc	r0
      003720 86 04            [24]11284 	mov	ar4,@r0
      003722 8A 82            [24]11285 	mov	dpl,r2
      003724 8B 83            [24]11286 	mov	dph,r3
      003726 8C F0            [24]11287 	mov	b,r4
      003728 E4               [12]11288 	clr	a
      003729 12r00r00         [24]11289 	lcall	__gptrput
      00372C A3               [24]11290 	inc	dptr
      00372D E4               [12]11291 	clr	a
      00372E 12r00r00         [24]11292 	lcall	__gptrput
                                  11293 ;	../../../../core/net/uip6.c:2157: goto drop;
      003731 02r3Br87         [24]11294 	ljmp	00482$
      003734                      11295 00457$:
                                  11296 ;	../../../../core/net/uip6.c:2159: if(uip_len > 0) {
      003734 90r01r01         [24]11297 	mov	dptr,#_uip_len
      003737 E0               [24]11298 	movx	a,@dptr
      003738 FB               [12]11299 	mov	r3,a
      003739 A3               [24]11300 	inc	dptr
      00373A E0               [24]11301 	movx	a,@dptr
      00373B FC               [12]11302 	mov	r4,a
      00373C 4B               [12]11303 	orl	a,r3
      00373D 70 03            [24]11304 	jnz	01386$
      00373F 02r3Br87         [24]11305 	ljmp	00482$
      003742                      11306 01386$:
                                  11307 ;	../../../../core/net/uip6.c:2160: goto tcp_send_ack;
      003742 02r38r00         [24]11308 	ljmp	00472$
                                  11309 ;	../../../../core/net/uip6.c:2164: case UIP_FIN_WAIT_2:
      003745                      11310 00460$:
                                  11311 ;	../../../../core/net/uip6.c:2165: if(uip_len > 0) {
      003745 90r01r01         [24]11312 	mov	dptr,#_uip_len
      003748 E0               [24]11313 	movx	a,@dptr
      003749 FB               [12]11314 	mov	r3,a
      00374A A3               [24]11315 	inc	dptr
      00374B E0               [24]11316 	movx	a,@dptr
      00374C FC               [12]11317 	mov	r4,a
      00374D 4B               [12]11318 	orl	a,r3
      00374E 60 19            [24]11319 	jz	00462$
                                  11320 ;	../../../../core/net/uip6.c:2166: uip_add_rcv_nxt(uip_len);
      003750 8B 82            [24]11321 	mov	dpl,r3
      003752 8C 83            [24]11322 	mov	dph,r4
      003754 C0 07            [24]11323 	push	ar7
      003756 C0 06            [24]11324 	push	ar6
      003758 C0 05            [24]11325 	push	ar5
      00375A 78r77            [12]11326 	mov	r0,#_uip_add_rcv_nxt
      00375C 79s0C            [12]11327 	mov	r1,#(_uip_add_rcv_nxt >> 8)
      00375E 7As00            [12]11328 	mov	r2,#(_uip_add_rcv_nxt >> 16)
      003760 12r00r00         [24]11329 	lcall	__sdcc_banked_call
      003763 D0 05            [24]11330 	pop	ar5
      003765 D0 06            [24]11331 	pop	ar6
      003767 D0 07            [24]11332 	pop	ar7
      003769                      11333 00462$:
                                  11334 ;	../../../../core/net/uip6.c:2168: if(UIP_TCP_BUF->flags & TCP_FIN) {
      003769 7Br33            [12]11335 	mov	r3,#(_uip_aligned_buf + 0x0028)
      00376B 7Cs00            [12]11336 	mov	r4,#((_uip_aligned_buf + 0x0028) >> 8)
      00376D 74 0D            [12]11337 	mov	a,#0x0D
      00376F 2B               [12]11338 	add	a,r3
      003770 F5 82            [12]11339 	mov	dpl,a
      003772 E4               [12]11340 	clr	a
      003773 3C               [12]11341 	addc	a,r4
      003774 F5 83            [12]11342 	mov	dph,a
      003776 E0               [24]11343 	movx	a,@dptr
      003777 FC               [12]11344 	mov	r4,a
      003778 30 E0 41         [24]11345 	jnb	acc.0,00464$
                                  11346 ;	../../../../core/net/uip6.c:2169: uip_connr->tcpstateflags = UIP_TIME_WAIT;
      00377B 8D 82            [24]11347 	mov	dpl,r5
      00377D 8E 83            [24]11348 	mov	dph,r6
      00377F 8F F0            [24]11349 	mov	b,r7
      003781 74 07            [12]11350 	mov	a,#0x07
      003783 12r00r00         [24]11351 	lcall	__gptrput
                                  11352 ;	../../../../core/net/uip6.c:2170: uip_connr->timer = 0;
      003786 A8 81            [24]11353 	mov	r0,sp
      003788 18               [12]11354 	dec	r0
      003789 18               [12]11355 	dec	r0
      00378A 74 26            [12]11356 	mov	a,#0x26
      00378C 26               [12]11357 	add	a,@r0
      00378D FA               [12]11358 	mov	r2,a
      00378E E4               [12]11359 	clr	a
      00378F 08               [12]11360 	inc	r0
      003790 36               [12]11361 	addc	a,@r0
      003791 FB               [12]11362 	mov	r3,a
      003792 08               [12]11363 	inc	r0
      003793 86 04            [24]11364 	mov	ar4,@r0
      003795 8A 82            [24]11365 	mov	dpl,r2
      003797 8B 83            [24]11366 	mov	dph,r3
      003799 8C F0            [24]11367 	mov	b,r4
      00379B E4               [12]11368 	clr	a
      00379C 12r00r00         [24]11369 	lcall	__gptrput
                                  11370 ;	../../../../core/net/uip6.c:2171: uip_add_rcv_nxt(1);
      00379F 90 00 01         [24]11371 	mov	dptr,#0x0001
      0037A2 78r77            [12]11372 	mov	r0,#_uip_add_rcv_nxt
      0037A4 79s0C            [12]11373 	mov	r1,#(_uip_add_rcv_nxt >> 8)
      0037A6 7As00            [12]11374 	mov	r2,#(_uip_add_rcv_nxt >> 16)
      0037A8 12r00r00         [24]11375 	lcall	__sdcc_banked_call
                                  11376 ;	../../../../core/net/uip6.c:2172: uip_flags = UIP_CLOSE;
      0037AB 90r01r05         [24]11377 	mov	dptr,#_uip_flags
      0037AE 74 10            [12]11378 	mov	a,#0x10
      0037B0 F0               [24]11379 	movx	@dptr,a
                                  11380 ;	../../../../core/net/uip6.c:2173: UIP_APPCALL();
      0037B1 78r00            [12]11381 	mov	r0,#_tcpip_uipcall
      0037B3 79s00            [12]11382 	mov	r1,#(_tcpip_uipcall >> 8)
      0037B5 7As00            [12]11383 	mov	r2,#(_tcpip_uipcall >> 16)
      0037B7 12r00r00         [24]11384 	lcall	__sdcc_banked_call
                                  11385 ;	../../../../core/net/uip6.c:2174: goto tcp_send_ack;
      0037BA 80 44            [24]11386 	sjmp	00472$
      0037BC                      11387 00464$:
                                  11388 ;	../../../../core/net/uip6.c:2176: if(uip_len > 0) {
      0037BC 90r01r01         [24]11389 	mov	dptr,#_uip_len
      0037BF E0               [24]11390 	movx	a,@dptr
      0037C0 FB               [12]11391 	mov	r3,a
      0037C1 A3               [24]11392 	inc	dptr
      0037C2 E0               [24]11393 	movx	a,@dptr
      0037C3 FC               [12]11394 	mov	r4,a
      0037C4 4B               [12]11395 	orl	a,r3
      0037C5 70 03            [24]11396 	jnz	01389$
      0037C7 02r3Br87         [24]11397 	ljmp	00482$
      0037CA                      11398 01389$:
                                  11399 ;	../../../../core/net/uip6.c:2177: goto tcp_send_ack;
                                  11400 ;	../../../../core/net/uip6.c:2181: case UIP_TIME_WAIT:
      0037CA 80 34            [24]11401 	sjmp	00472$
      0037CC                      11402 00467$:
                                  11403 ;	../../../../core/net/uip6.c:2182: goto tcp_send_ack;
                                  11404 ;	../../../../core/net/uip6.c:2184: case UIP_CLOSING:
      0037CC 80 32            [24]11405 	sjmp	00472$
      0037CE                      11406 00468$:
                                  11407 ;	../../../../core/net/uip6.c:2185: if(uip_flags & UIP_ACKDATA) {
      0037CE 90r01r05         [24]11408 	mov	dptr,#_uip_flags
      0037D1 E0               [24]11409 	movx	a,@dptr
      0037D2 FC               [12]11410 	mov	r4,a
      0037D3 20 E0 03         [24]11411 	jb	acc.0,01390$
      0037D6 02r3Br87         [24]11412 	ljmp	00482$
      0037D9                      11413 01390$:
                                  11414 ;	../../../../core/net/uip6.c:2186: uip_connr->tcpstateflags = UIP_TIME_WAIT;
      0037D9 8D 82            [24]11415 	mov	dpl,r5
      0037DB 8E 83            [24]11416 	mov	dph,r6
      0037DD 8F F0            [24]11417 	mov	b,r7
      0037DF 74 07            [12]11418 	mov	a,#0x07
      0037E1 12r00r00         [24]11419 	lcall	__gptrput
                                  11420 ;	../../../../core/net/uip6.c:2187: uip_connr->timer = 0;
      0037E4 A8 81            [24]11421 	mov	r0,sp
      0037E6 18               [12]11422 	dec	r0
      0037E7 18               [12]11423 	dec	r0
      0037E8 74 26            [12]11424 	mov	a,#0x26
      0037EA 26               [12]11425 	add	a,@r0
      0037EB FD               [12]11426 	mov	r5,a
      0037EC E4               [12]11427 	clr	a
      0037ED 08               [12]11428 	inc	r0
      0037EE 36               [12]11429 	addc	a,@r0
      0037EF FE               [12]11430 	mov	r6,a
      0037F0 08               [12]11431 	inc	r0
      0037F1 86 07            [24]11432 	mov	ar7,@r0
      0037F3 8D 82            [24]11433 	mov	dpl,r5
      0037F5 8E 83            [24]11434 	mov	dph,r6
      0037F7 8F F0            [24]11435 	mov	b,r7
      0037F9 E4               [12]11436 	clr	a
      0037FA 12r00r00         [24]11437 	lcall	__gptrput
                                  11438 ;	../../../../core/net/uip6.c:2189: }
      0037FD                      11439 00471$:
                                  11440 ;	../../../../core/net/uip6.c:2190: goto drop;
      0037FD 02r3Br87         [24]11441 	ljmp	00482$
                                  11442 ;	../../../../core/net/uip6.c:2194: tcp_send_ack:
      003800                      11443 00472$:
                                  11444 ;	../../../../core/net/uip6.c:2195: UIP_TCP_BUF->flags = TCP_ACK;
      003800 7Er33            [12]11445 	mov	r6,#(_uip_aligned_buf + 0x0028)
      003802 7Fs00            [12]11446 	mov	r7,#((_uip_aligned_buf + 0x0028) >> 8)
      003804 74 0D            [12]11447 	mov	a,#0x0D
      003806 2E               [12]11448 	add	a,r6
      003807 F5 82            [12]11449 	mov	dpl,a
      003809 E4               [12]11450 	clr	a
      00380A 3F               [12]11451 	addc	a,r7
      00380B F5 83            [12]11452 	mov	dph,a
      00380D 74 10            [12]11453 	mov	a,#0x10
      00380F F0               [24]11454 	movx	@dptr,a
                                  11455 ;	../../../../core/net/uip6.c:2197: tcp_send_nodata:
      003810                      11456 00473$:
                                  11457 ;	../../../../core/net/uip6.c:2198: uip_len = UIP_IPTCPH_LEN;
      003810 90r01r01         [24]11458 	mov	dptr,#_uip_len
      003813 74 3C            [12]11459 	mov	a,#0x3C
      003815 F0               [24]11460 	movx	@dptr,a
      003816 E4               [12]11461 	clr	a
      003817 A3               [24]11462 	inc	dptr
      003818 F0               [24]11463 	movx	@dptr,a
                                  11464 ;	../../../../core/net/uip6.c:2200: tcp_send_noopts:
      003819                      11465 00474$:
                                  11466 ;	../../../../core/net/uip6.c:2201: UIP_TCP_BUF->tcpoffset = (UIP_TCPH_LEN / 4) << 4;
      003819 7Er33            [12]11467 	mov	r6,#(_uip_aligned_buf + 0x0028)
      00381B 7Fs00            [12]11468 	mov	r7,#((_uip_aligned_buf + 0x0028) >> 8)
      00381D 74 0C            [12]11469 	mov	a,#0x0C
      00381F 2E               [12]11470 	add	a,r6
      003820 F5 82            [12]11471 	mov	dpl,a
      003822 E4               [12]11472 	clr	a
      003823 3F               [12]11473 	addc	a,r7
      003824 F5 83            [12]11474 	mov	dph,a
      003826 74 50            [12]11475 	mov	a,#0x50
      003828 F0               [24]11476 	movx	@dptr,a
                                  11477 ;	../../../../core/net/uip6.c:2207: tcp_send:
      003829                      11478 00475$:
                                  11479 ;	../../../../core/net/uip6.c:2210: UIP_TCP_BUF->ackno[0] = uip_connr->rcv_nxt[0];
      003829 7Er33            [12]11480 	mov	r6,#(_uip_aligned_buf + 0x0028)
      00382B 7Fs00            [12]11481 	mov	r7,#((_uip_aligned_buf + 0x0028) >> 8)
      00382D 74 08            [12]11482 	mov	a,#0x08
      00382F 2E               [12]11483 	add	a,r6
      003830 FE               [12]11484 	mov	r6,a
      003831 E4               [12]11485 	clr	a
      003832 3F               [12]11486 	addc	a,r7
      003833 FF               [12]11487 	mov	r7,a
      003834 A8 81            [24]11488 	mov	r0,sp
      003836 18               [12]11489 	dec	r0
      003837 18               [12]11490 	dec	r0
      003838 74 14            [12]11491 	mov	a,#0x14
      00383A 26               [12]11492 	add	a,@r0
      00383B FB               [12]11493 	mov	r3,a
      00383C E4               [12]11494 	clr	a
      00383D 08               [12]11495 	inc	r0
      00383E 36               [12]11496 	addc	a,@r0
      00383F FC               [12]11497 	mov	r4,a
      003840 08               [12]11498 	inc	r0
      003841 86 05            [24]11499 	mov	ar5,@r0
      003843 8B 82            [24]11500 	mov	dpl,r3
      003845 8C 83            [24]11501 	mov	dph,r4
      003847 8D F0            [24]11502 	mov	b,r5
      003849 12r00r00         [24]11503 	lcall	__gptrget
      00384C 8E 82            [24]11504 	mov	dpl,r6
      00384E 8F 83            [24]11505 	mov	dph,r7
      003850 F0               [24]11506 	movx	@dptr,a
                                  11507 ;	../../../../core/net/uip6.c:2211: UIP_TCP_BUF->ackno[1] = uip_connr->rcv_nxt[1];
      003851 7Er33            [12]11508 	mov	r6,#(_uip_aligned_buf + 0x0028)
      003853 7Fs00            [12]11509 	mov	r7,#((_uip_aligned_buf + 0x0028) >> 8)
      003855 E5 81            [12]11510 	mov	a,sp
      003857 24 FC            [12]11511 	add	a,#0xfc
      003859 F8               [12]11512 	mov	r0,a
      00385A 74 09            [12]11513 	mov	a,#0x09
      00385C 2E               [12]11514 	add	a,r6
      00385D F6               [12]11515 	mov	@r0,a
      00385E E4               [12]11516 	clr	a
      00385F 3F               [12]11517 	addc	a,r7
      003860 08               [12]11518 	inc	r0
      003861 F6               [12]11519 	mov	@r0,a
      003862 74 01            [12]11520 	mov	a,#0x01
      003864 2B               [12]11521 	add	a,r3
      003865 FA               [12]11522 	mov	r2,a
      003866 E4               [12]11523 	clr	a
      003867 3C               [12]11524 	addc	a,r4
      003868 FE               [12]11525 	mov	r6,a
      003869 8D 07            [24]11526 	mov	ar7,r5
      00386B 8A 82            [24]11527 	mov	dpl,r2
      00386D 8E 83            [24]11528 	mov	dph,r6
      00386F 8F F0            [24]11529 	mov	b,r7
      003871 12r00r00         [24]11530 	lcall	__gptrget
      003874 FA               [12]11531 	mov	r2,a
      003875 E5 81            [12]11532 	mov	a,sp
      003877 24 FC            [12]11533 	add	a,#0xfc
      003879 F8               [12]11534 	mov	r0,a
      00387A 86 82            [24]11535 	mov	dpl,@r0
      00387C 08               [12]11536 	inc	r0
      00387D 86 83            [24]11537 	mov	dph,@r0
      00387F EA               [12]11538 	mov	a,r2
      003880 F0               [24]11539 	movx	@dptr,a
                                  11540 ;	../../../../core/net/uip6.c:2212: UIP_TCP_BUF->ackno[2] = uip_connr->rcv_nxt[2];
      003881 7Er33            [12]11541 	mov	r6,#(_uip_aligned_buf + 0x0028)
      003883 7Fs00            [12]11542 	mov	r7,#((_uip_aligned_buf + 0x0028) >> 8)
      003885 E5 81            [12]11543 	mov	a,sp
      003887 24 FC            [12]11544 	add	a,#0xfc
      003889 F8               [12]11545 	mov	r0,a
      00388A 74 0A            [12]11546 	mov	a,#0x0A
      00388C 2E               [12]11547 	add	a,r6
      00388D F6               [12]11548 	mov	@r0,a
      00388E E4               [12]11549 	clr	a
      00388F 3F               [12]11550 	addc	a,r7
      003890 08               [12]11551 	inc	r0
      003891 F6               [12]11552 	mov	@r0,a
      003892 74 02            [12]11553 	mov	a,#0x02
      003894 2B               [12]11554 	add	a,r3
      003895 FA               [12]11555 	mov	r2,a
      003896 E4               [12]11556 	clr	a
      003897 3C               [12]11557 	addc	a,r4
      003898 FE               [12]11558 	mov	r6,a
      003899 8D 07            [24]11559 	mov	ar7,r5
      00389B 8A 82            [24]11560 	mov	dpl,r2
      00389D 8E 83            [24]11561 	mov	dph,r6
      00389F 8F F0            [24]11562 	mov	b,r7
      0038A1 12r00r00         [24]11563 	lcall	__gptrget
      0038A4 FA               [12]11564 	mov	r2,a
      0038A5 E5 81            [12]11565 	mov	a,sp
      0038A7 24 FC            [12]11566 	add	a,#0xfc
      0038A9 F8               [12]11567 	mov	r0,a
      0038AA 86 82            [24]11568 	mov	dpl,@r0
      0038AC 08               [12]11569 	inc	r0
      0038AD 86 83            [24]11570 	mov	dph,@r0
      0038AF EA               [12]11571 	mov	a,r2
      0038B0 F0               [24]11572 	movx	@dptr,a
                                  11573 ;	../../../../core/net/uip6.c:2213: UIP_TCP_BUF->ackno[3] = uip_connr->rcv_nxt[3];
      0038B1 7Er33            [12]11574 	mov	r6,#(_uip_aligned_buf + 0x0028)
      0038B3 7Fs00            [12]11575 	mov	r7,#((_uip_aligned_buf + 0x0028) >> 8)
      0038B5 74 0B            [12]11576 	mov	a,#0x0B
      0038B7 2E               [12]11577 	add	a,r6
      0038B8 FE               [12]11578 	mov	r6,a
      0038B9 E4               [12]11579 	clr	a
      0038BA 3F               [12]11580 	addc	a,r7
      0038BB FF               [12]11581 	mov	r7,a
      0038BC 74 03            [12]11582 	mov	a,#0x03
      0038BE 2B               [12]11583 	add	a,r3
      0038BF FB               [12]11584 	mov	r3,a
      0038C0 E4               [12]11585 	clr	a
      0038C1 3C               [12]11586 	addc	a,r4
      0038C2 FC               [12]11587 	mov	r4,a
      0038C3 8B 82            [24]11588 	mov	dpl,r3
      0038C5 8C 83            [24]11589 	mov	dph,r4
      0038C7 8D F0            [24]11590 	mov	b,r5
      0038C9 12r00r00         [24]11591 	lcall	__gptrget
      0038CC 8E 82            [24]11592 	mov	dpl,r6
      0038CE 8F 83            [24]11593 	mov	dph,r7
      0038D0 F0               [24]11594 	movx	@dptr,a
                                  11595 ;	../../../../core/net/uip6.c:2215: UIP_TCP_BUF->seqno[0] = uip_connr->snd_nxt[0];
      0038D1 7Er33            [12]11596 	mov	r6,#(_uip_aligned_buf + 0x0028)
      0038D3 7Fs00            [12]11597 	mov	r7,#((_uip_aligned_buf + 0x0028) >> 8)
      0038D5 74 04            [12]11598 	mov	a,#0x04
      0038D7 2E               [12]11599 	add	a,r6
      0038D8 FE               [12]11600 	mov	r6,a
      0038D9 E4               [12]11601 	clr	a
      0038DA 3F               [12]11602 	addc	a,r7
      0038DB FF               [12]11603 	mov	r7,a
      0038DC A8 81            [24]11604 	mov	r0,sp
      0038DE 18               [12]11605 	dec	r0
      0038DF 18               [12]11606 	dec	r0
      0038E0 74 18            [12]11607 	mov	a,#0x18
      0038E2 26               [12]11608 	add	a,@r0
      0038E3 FB               [12]11609 	mov	r3,a
      0038E4 E4               [12]11610 	clr	a
      0038E5 08               [12]11611 	inc	r0
      0038E6 36               [12]11612 	addc	a,@r0
      0038E7 FC               [12]11613 	mov	r4,a
      0038E8 08               [12]11614 	inc	r0
      0038E9 86 05            [24]11615 	mov	ar5,@r0
      0038EB 8B 82            [24]11616 	mov	dpl,r3
      0038ED 8C 83            [24]11617 	mov	dph,r4
      0038EF 8D F0            [24]11618 	mov	b,r5
      0038F1 12r00r00         [24]11619 	lcall	__gptrget
      0038F4 8E 82            [24]11620 	mov	dpl,r6
      0038F6 8F 83            [24]11621 	mov	dph,r7
      0038F8 F0               [24]11622 	movx	@dptr,a
                                  11623 ;	../../../../core/net/uip6.c:2216: UIP_TCP_BUF->seqno[1] = uip_connr->snd_nxt[1];
      0038F9 7Er33            [12]11624 	mov	r6,#(_uip_aligned_buf + 0x0028)
      0038FB 7Fs00            [12]11625 	mov	r7,#((_uip_aligned_buf + 0x0028) >> 8)
      0038FD E5 81            [12]11626 	mov	a,sp
      0038FF 24 FC            [12]11627 	add	a,#0xfc
      003901 F8               [12]11628 	mov	r0,a
      003902 74 05            [12]11629 	mov	a,#0x05
      003904 2E               [12]11630 	add	a,r6
      003905 F6               [12]11631 	mov	@r0,a
      003906 E4               [12]11632 	clr	a
      003907 3F               [12]11633 	addc	a,r7
      003908 08               [12]11634 	inc	r0
      003909 F6               [12]11635 	mov	@r0,a
      00390A 74 01            [12]11636 	mov	a,#0x01
      00390C 2B               [12]11637 	add	a,r3
      00390D FA               [12]11638 	mov	r2,a
      00390E E4               [12]11639 	clr	a
      00390F 3C               [12]11640 	addc	a,r4
      003910 FE               [12]11641 	mov	r6,a
      003911 8D 07            [24]11642 	mov	ar7,r5
      003913 8A 82            [24]11643 	mov	dpl,r2
      003915 8E 83            [24]11644 	mov	dph,r6
      003917 8F F0            [24]11645 	mov	b,r7
      003919 12r00r00         [24]11646 	lcall	__gptrget
      00391C FA               [12]11647 	mov	r2,a
      00391D E5 81            [12]11648 	mov	a,sp
      00391F 24 FC            [12]11649 	add	a,#0xfc
      003921 F8               [12]11650 	mov	r0,a
      003922 86 82            [24]11651 	mov	dpl,@r0
      003924 08               [12]11652 	inc	r0
      003925 86 83            [24]11653 	mov	dph,@r0
      003927 EA               [12]11654 	mov	a,r2
      003928 F0               [24]11655 	movx	@dptr,a
                                  11656 ;	../../../../core/net/uip6.c:2217: UIP_TCP_BUF->seqno[2] = uip_connr->snd_nxt[2];
      003929 7Er33            [12]11657 	mov	r6,#(_uip_aligned_buf + 0x0028)
      00392B 7Fs00            [12]11658 	mov	r7,#((_uip_aligned_buf + 0x0028) >> 8)
      00392D E5 81            [12]11659 	mov	a,sp
      00392F 24 FC            [12]11660 	add	a,#0xfc
      003931 F8               [12]11661 	mov	r0,a
      003932 74 06            [12]11662 	mov	a,#0x06
      003934 2E               [12]11663 	add	a,r6
      003935 F6               [12]11664 	mov	@r0,a
      003936 E4               [12]11665 	clr	a
      003937 3F               [12]11666 	addc	a,r7
      003938 08               [12]11667 	inc	r0
      003939 F6               [12]11668 	mov	@r0,a
      00393A 74 02            [12]11669 	mov	a,#0x02
      00393C 2B               [12]11670 	add	a,r3
      00393D FA               [12]11671 	mov	r2,a
      00393E E4               [12]11672 	clr	a
      00393F 3C               [12]11673 	addc	a,r4
      003940 FE               [12]11674 	mov	r6,a
      003941 8D 07            [24]11675 	mov	ar7,r5
      003943 8A 82            [24]11676 	mov	dpl,r2
      003945 8E 83            [24]11677 	mov	dph,r6
      003947 8F F0            [24]11678 	mov	b,r7
      003949 12r00r00         [24]11679 	lcall	__gptrget
      00394C FA               [12]11680 	mov	r2,a
      00394D E5 81            [12]11681 	mov	a,sp
      00394F 24 FC            [12]11682 	add	a,#0xfc
      003951 F8               [12]11683 	mov	r0,a
      003952 86 82            [24]11684 	mov	dpl,@r0
      003954 08               [12]11685 	inc	r0
      003955 86 83            [24]11686 	mov	dph,@r0
      003957 EA               [12]11687 	mov	a,r2
      003958 F0               [24]11688 	movx	@dptr,a
                                  11689 ;	../../../../core/net/uip6.c:2218: UIP_TCP_BUF->seqno[3] = uip_connr->snd_nxt[3];
      003959 7Er33            [12]11690 	mov	r6,#(_uip_aligned_buf + 0x0028)
      00395B 7Fs00            [12]11691 	mov	r7,#((_uip_aligned_buf + 0x0028) >> 8)
      00395D 74 07            [12]11692 	mov	a,#0x07
      00395F 2E               [12]11693 	add	a,r6
      003960 FE               [12]11694 	mov	r6,a
      003961 E4               [12]11695 	clr	a
      003962 3F               [12]11696 	addc	a,r7
      003963 FF               [12]11697 	mov	r7,a
      003964 74 03            [12]11698 	mov	a,#0x03
      003966 2B               [12]11699 	add	a,r3
      003967 FB               [12]11700 	mov	r3,a
      003968 E4               [12]11701 	clr	a
      003969 3C               [12]11702 	addc	a,r4
      00396A FC               [12]11703 	mov	r4,a
      00396B 8B 82            [24]11704 	mov	dpl,r3
      00396D 8C 83            [24]11705 	mov	dph,r4
      00396F 8D F0            [24]11706 	mov	b,r5
      003971 12r00r00         [24]11707 	lcall	__gptrget
      003974 8E 82            [24]11708 	mov	dpl,r6
      003976 8F 83            [24]11709 	mov	dph,r7
      003978 F0               [24]11710 	movx	@dptr,a
                                  11711 ;	../../../../core/net/uip6.c:2220: UIP_IP_BUF->proto = UIP_PROTO_TCP;
      003979 7Er0B            [12]11712 	mov	r6,#_uip_aligned_buf
      00397B 7Fs00            [12]11713 	mov	r7,#(_uip_aligned_buf >> 8)
      00397D 74 06            [12]11714 	mov	a,#0x06
      00397F 2E               [12]11715 	add	a,r6
      003980 F5 82            [12]11716 	mov	dpl,a
      003982 E4               [12]11717 	clr	a
      003983 3F               [12]11718 	addc	a,r7
      003984 F5 83            [12]11719 	mov	dph,a
      003986 74 06            [12]11720 	mov	a,#0x06
      003988 F0               [24]11721 	movx	@dptr,a
                                  11722 ;	../../../../core/net/uip6.c:2222: UIP_TCP_BUF->srcport  = uip_connr->lport;
      003989 7Er33            [12]11723 	mov	r6,#(_uip_aligned_buf + 0x0028)
      00398B 7Fs00            [12]11724 	mov	r7,#((_uip_aligned_buf + 0x0028) >> 8)
      00398D A8 81            [24]11725 	mov	r0,sp
      00398F 18               [12]11726 	dec	r0
      003990 18               [12]11727 	dec	r0
      003991 74 10            [12]11728 	mov	a,#0x10
      003993 26               [12]11729 	add	a,@r0
      003994 FB               [12]11730 	mov	r3,a
      003995 E4               [12]11731 	clr	a
      003996 08               [12]11732 	inc	r0
      003997 36               [12]11733 	addc	a,@r0
      003998 FC               [12]11734 	mov	r4,a
      003999 08               [12]11735 	inc	r0
      00399A 86 05            [24]11736 	mov	ar5,@r0
      00399C 8B 82            [24]11737 	mov	dpl,r3
      00399E 8C 83            [24]11738 	mov	dph,r4
      0039A0 8D F0            [24]11739 	mov	b,r5
      0039A2 12r00r00         [24]11740 	lcall	__gptrget
      0039A5 FB               [12]11741 	mov	r3,a
      0039A6 A3               [24]11742 	inc	dptr
      0039A7 12r00r00         [24]11743 	lcall	__gptrget
      0039AA FC               [12]11744 	mov	r4,a
      0039AB 8E 82            [24]11745 	mov	dpl,r6
      0039AD 8F 83            [24]11746 	mov	dph,r7
      0039AF EB               [12]11747 	mov	a,r3
      0039B0 F0               [24]11748 	movx	@dptr,a
      0039B1 EC               [12]11749 	mov	a,r4
      0039B2 A3               [24]11750 	inc	dptr
      0039B3 F0               [24]11751 	movx	@dptr,a
                                  11752 ;	../../../../core/net/uip6.c:2223: UIP_TCP_BUF->destport = uip_connr->rport;
      0039B4 7Er33            [12]11753 	mov	r6,#(_uip_aligned_buf + 0x0028)
      0039B6 7Fs00            [12]11754 	mov	r7,#((_uip_aligned_buf + 0x0028) >> 8)
      0039B8 74 02            [12]11755 	mov	a,#0x02
      0039BA 2E               [12]11756 	add	a,r6
      0039BB FE               [12]11757 	mov	r6,a
      0039BC E4               [12]11758 	clr	a
      0039BD 3F               [12]11759 	addc	a,r7
      0039BE FF               [12]11760 	mov	r7,a
      0039BF A8 81            [24]11761 	mov	r0,sp
      0039C1 18               [12]11762 	dec	r0
      0039C2 18               [12]11763 	dec	r0
      0039C3 74 12            [12]11764 	mov	a,#0x12
      0039C5 26               [12]11765 	add	a,@r0
      0039C6 FB               [12]11766 	mov	r3,a
      0039C7 E4               [12]11767 	clr	a
      0039C8 08               [12]11768 	inc	r0
      0039C9 36               [12]11769 	addc	a,@r0
      0039CA FC               [12]11770 	mov	r4,a
      0039CB 08               [12]11771 	inc	r0
      0039CC 86 05            [24]11772 	mov	ar5,@r0
      0039CE 8B 82            [24]11773 	mov	dpl,r3
      0039D0 8C 83            [24]11774 	mov	dph,r4
      0039D2 8D F0            [24]11775 	mov	b,r5
      0039D4 12r00r00         [24]11776 	lcall	__gptrget
      0039D7 FB               [12]11777 	mov	r3,a
      0039D8 A3               [24]11778 	inc	dptr
      0039D9 12r00r00         [24]11779 	lcall	__gptrget
      0039DC FC               [12]11780 	mov	r4,a
      0039DD 8E 82            [24]11781 	mov	dpl,r6
      0039DF 8F 83            [24]11782 	mov	dph,r7
      0039E1 EB               [12]11783 	mov	a,r3
      0039E2 F0               [24]11784 	movx	@dptr,a
      0039E3 EC               [12]11785 	mov	a,r4
      0039E4 A3               [24]11786 	inc	dptr
      0039E5 F0               [24]11787 	movx	@dptr,a
                                  11788 ;	../../../../core/net/uip6.c:2225: uip_ipaddr_copy(&UIP_IP_BUF->destipaddr, &uip_connr->ripaddr);
      0039E6 A8 81            [24]11789 	mov	r0,sp
      0039E8 18               [12]11790 	dec	r0
      0039E9 18               [12]11791 	dec	r0
      0039EA 86 05            [24]11792 	mov	ar5,@r0
      0039EC 08               [12]11793 	inc	r0
      0039ED 86 06            [24]11794 	mov	ar6,@r0
      0039EF 08               [12]11795 	inc	r0
      0039F0 86 07            [24]11796 	mov	ar7,@r0
      0039F2 7Br0B            [12]11797 	mov	r3,#_uip_aligned_buf
      0039F4 7Cs00            [12]11798 	mov	r4,#(_uip_aligned_buf >> 8)
      0039F6 74 18            [12]11799 	mov	a,#0x18
      0039F8 2B               [12]11800 	add	a,r3
      0039F9 FB               [12]11801 	mov	r3,a
      0039FA E4               [12]11802 	clr	a
      0039FB 3C               [12]11803 	addc	a,r4
      0039FC FC               [12]11804 	mov	r4,a
      0039FD 7A 00            [12]11805 	mov	r2,#0x00
      0039FF 74 10            [12]11806 	mov	a,#0x10
      003A01 C0 E0            [24]11807 	push	acc
      003A03 E4               [12]11808 	clr	a
      003A04 C0 E0            [24]11809 	push	acc
      003A06 C0 05            [24]11810 	push	ar5
      003A08 C0 06            [24]11811 	push	ar6
      003A0A C0 07            [24]11812 	push	ar7
      003A0C 8B 82            [24]11813 	mov	dpl,r3
      003A0E 8C 83            [24]11814 	mov	dph,r4
      003A10 8A F0            [24]11815 	mov	b,r2
      003A12 78r00            [12]11816 	mov	r0,#_memcpy
      003A14 79s00            [12]11817 	mov	r1,#(_memcpy >> 8)
      003A16 7As00            [12]11818 	mov	r2,#(_memcpy >> 16)
      003A18 12r00r00         [24]11819 	lcall	__sdcc_banked_call
      003A1B E5 81            [12]11820 	mov	a,sp
      003A1D 24 FB            [12]11821 	add	a,#0xfb
      003A1F F5 81            [12]11822 	mov	sp,a
                                  11823 ;	../../../../core/net/uip6.c:2226: uip_ds6_select_src(&UIP_IP_BUF->srcipaddr, &UIP_IP_BUF->destipaddr);
      003A21 7Er0B            [12]11824 	mov	r6,#_uip_aligned_buf
      003A23 7Fs00            [12]11825 	mov	r7,#(_uip_aligned_buf >> 8)
      003A25 74 18            [12]11826 	mov	a,#0x18
      003A27 2E               [12]11827 	add	a,r6
      003A28 FE               [12]11828 	mov	r6,a
      003A29 E4               [12]11829 	clr	a
      003A2A 3F               [12]11830 	addc	a,r7
      003A2B FF               [12]11831 	mov	r7,a
      003A2C 7D 00            [12]11832 	mov	r5,#0x00
      003A2E 7Br0B            [12]11833 	mov	r3,#_uip_aligned_buf
      003A30 7Cs00            [12]11834 	mov	r4,#(_uip_aligned_buf >> 8)
      003A32 74 08            [12]11835 	mov	a,#0x08
      003A34 2B               [12]11836 	add	a,r3
      003A35 FB               [12]11837 	mov	r3,a
      003A36 E4               [12]11838 	clr	a
      003A37 3C               [12]11839 	addc	a,r4
      003A38 FC               [12]11840 	mov	r4,a
      003A39 7A 00            [12]11841 	mov	r2,#0x00
      003A3B C0 06            [24]11842 	push	ar6
      003A3D C0 07            [24]11843 	push	ar7
      003A3F C0 05            [24]11844 	push	ar5
      003A41 8B 82            [24]11845 	mov	dpl,r3
      003A43 8C 83            [24]11846 	mov	dph,r4
      003A45 8A F0            [24]11847 	mov	b,r2
      003A47 78r00            [12]11848 	mov	r0,#_uip_ds6_select_src
      003A49 79s00            [12]11849 	mov	r1,#(_uip_ds6_select_src >> 8)
      003A4B 7As00            [12]11850 	mov	r2,#(_uip_ds6_select_src >> 16)
      003A4D 12r00r00         [24]11851 	lcall	__sdcc_banked_call
      003A50 15 81            [12]11852 	dec	sp
      003A52 15 81            [12]11853 	dec	sp
      003A54 15 81            [12]11854 	dec	sp
                                  11855 ;	../../../../core/net/uip6.c:2233: if(uip_connr->tcpstateflags & UIP_STOPPED) {
      003A56 A8 81            [24]11856 	mov	r0,sp
      003A58 18               [12]11857 	dec	r0
      003A59 18               [12]11858 	dec	r0
      003A5A 74 25            [12]11859 	mov	a,#0x25
      003A5C 26               [12]11860 	add	a,@r0
      003A5D FD               [12]11861 	mov	r5,a
      003A5E E4               [12]11862 	clr	a
      003A5F 08               [12]11863 	inc	r0
      003A60 36               [12]11864 	addc	a,@r0
      003A61 FE               [12]11865 	mov	r6,a
      003A62 08               [12]11866 	inc	r0
      003A63 86 07            [24]11867 	mov	ar7,@r0
      003A65 8D 82            [24]11868 	mov	dpl,r5
      003A67 8E 83            [24]11869 	mov	dph,r6
      003A69 8F F0            [24]11870 	mov	b,r7
      003A6B 12r00r00         [24]11871 	lcall	__gptrget
      003A6E FD               [12]11872 	mov	r5,a
      003A6F 30 E4 22         [24]11873 	jnb	acc.4,00477$
                                  11874 ;	../../../../core/net/uip6.c:2236: UIP_TCP_BUF->wnd[0] = UIP_TCP_BUF->wnd[1] = 0;
      003A72 7Er33            [12]11875 	mov	r6,#(_uip_aligned_buf + 0x0028)
      003A74 7Fs00            [12]11876 	mov	r7,#((_uip_aligned_buf + 0x0028) >> 8)
      003A76 74 0E            [12]11877 	mov	a,#0x0E
      003A78 2E               [12]11878 	add	a,r6
      003A79 FE               [12]11879 	mov	r6,a
      003A7A E4               [12]11880 	clr	a
      003A7B 3F               [12]11881 	addc	a,r7
      003A7C FF               [12]11882 	mov	r7,a
      003A7D 7Cr33            [12]11883 	mov	r4,#(_uip_aligned_buf + 0x0028)
      003A7F 7Ds00            [12]11884 	mov	r5,#((_uip_aligned_buf + 0x0028) >> 8)
      003A81 74 0F            [12]11885 	mov	a,#0x0F
      003A83 2C               [12]11886 	add	a,r4
      003A84 F5 82            [12]11887 	mov	dpl,a
      003A86 E4               [12]11888 	clr	a
      003A87 3D               [12]11889 	addc	a,r5
      003A88 F5 83            [12]11890 	mov	dph,a
      003A8A E4               [12]11891 	clr	a
      003A8B F0               [24]11892 	movx	@dptr,a
      003A8C 8E 82            [24]11893 	mov	dpl,r6
      003A8E 8F 83            [24]11894 	mov	dph,r7
      003A90 E4               [12]11895 	clr	a
      003A91 F0               [24]11896 	movx	@dptr,a
      003A92 80 1F            [24]11897 	sjmp	00479$
      003A94                      11898 00477$:
                                  11899 ;	../../../../core/net/uip6.c:2238: UIP_TCP_BUF->wnd[0] = ((UIP_RECEIVE_WINDOW) >> 8);
      003A94 7Er33            [12]11900 	mov	r6,#(_uip_aligned_buf + 0x0028)
      003A96 7Fs00            [12]11901 	mov	r7,#((_uip_aligned_buf + 0x0028) >> 8)
      003A98 74 0E            [12]11902 	mov	a,#0x0E
      003A9A 2E               [12]11903 	add	a,r6
      003A9B F5 82            [12]11904 	mov	dpl,a
      003A9D E4               [12]11905 	clr	a
      003A9E 3F               [12]11906 	addc	a,r7
      003A9F F5 83            [12]11907 	mov	dph,a
      003AA1 E4               [12]11908 	clr	a
      003AA2 F0               [24]11909 	movx	@dptr,a
                                  11910 ;	../../../../core/net/uip6.c:2239: UIP_TCP_BUF->wnd[1] = ((UIP_RECEIVE_WINDOW) & 0xff);
      003AA3 7Er33            [12]11911 	mov	r6,#(_uip_aligned_buf + 0x0028)
      003AA5 7Fs00            [12]11912 	mov	r7,#((_uip_aligned_buf + 0x0028) >> 8)
      003AA7 74 0F            [12]11913 	mov	a,#0x0F
      003AA9 2E               [12]11914 	add	a,r6
      003AAA F5 82            [12]11915 	mov	dpl,a
      003AAC E4               [12]11916 	clr	a
      003AAD 3F               [12]11917 	addc	a,r7
      003AAE F5 83            [12]11918 	mov	dph,a
      003AB0 74 B4            [12]11919 	mov	a,#0xB4
      003AB2 F0               [24]11920 	movx	@dptr,a
                                  11921 ;	../../../../core/net/uip6.c:2242: tcp_send_noconn:
      003AB3                      11922 00479$:
                                  11923 ;	../../../../core/net/uip6.c:2243: UIP_IP_BUF->ttl = uip_ds6_if.cur_hop_limit;
      003AB3 7Er0B            [12]11924 	mov	r6,#_uip_aligned_buf
      003AB5 7Fs00            [12]11925 	mov	r7,#(_uip_aligned_buf >> 8)
      003AB7 74 07            [12]11926 	mov	a,#0x07
      003AB9 2E               [12]11927 	add	a,r6
      003ABA FE               [12]11928 	mov	r6,a
      003ABB E4               [12]11929 	clr	a
      003ABC 3F               [12]11930 	addc	a,r7
      003ABD FF               [12]11931 	mov	r7,a
      003ABE 90r00r04         [24]11932 	mov	dptr,#(_uip_ds6_if + 0x0004)
      003AC1 E0               [24]11933 	movx	a,@dptr
      003AC2 8E 82            [24]11934 	mov	dpl,r6
      003AC4 8F 83            [24]11935 	mov	dph,r7
      003AC6 F0               [24]11936 	movx	@dptr,a
                                  11937 ;	../../../../core/net/uip6.c:2244: UIP_IP_BUF->len[0] = ((uip_len - UIP_IPH_LEN) >> 8);
      003AC7 7Er0B            [12]11938 	mov	r6,#_uip_aligned_buf
      003AC9 7Fs00            [12]11939 	mov	r7,#(_uip_aligned_buf >> 8)
      003ACB 74 04            [12]11940 	mov	a,#0x04
      003ACD 2E               [12]11941 	add	a,r6
      003ACE FE               [12]11942 	mov	r6,a
      003ACF E4               [12]11943 	clr	a
      003AD0 3F               [12]11944 	addc	a,r7
      003AD1 FF               [12]11945 	mov	r7,a
      003AD2 90r01r01         [24]11946 	mov	dptr,#_uip_len
      003AD5 E0               [24]11947 	movx	a,@dptr
      003AD6 FC               [12]11948 	mov	r4,a
      003AD7 A3               [24]11949 	inc	dptr
      003AD8 E0               [24]11950 	movx	a,@dptr
      003AD9 FD               [12]11951 	mov	r5,a
      003ADA EC               [12]11952 	mov	a,r4
      003ADB 24 D8            [12]11953 	add	a,#0xD8
      003ADD ED               [12]11954 	mov	a,r5
      003ADE 34 FF            [12]11955 	addc	a,#0xFF
      003AE0 8E 82            [24]11956 	mov	dpl,r6
      003AE2 8F 83            [24]11957 	mov	dph,r7
      003AE4 F0               [24]11958 	movx	@dptr,a
                                  11959 ;	../../../../core/net/uip6.c:2245: UIP_IP_BUF->len[1] = ((uip_len - UIP_IPH_LEN) & 0xff);
      003AE5 7Er0B            [12]11960 	mov	r6,#_uip_aligned_buf
      003AE7 7Fs00            [12]11961 	mov	r7,#(_uip_aligned_buf >> 8)
      003AE9 74 05            [12]11962 	mov	a,#0x05
      003AEB 2E               [12]11963 	add	a,r6
      003AEC FE               [12]11964 	mov	r6,a
      003AED E4               [12]11965 	clr	a
      003AEE 3F               [12]11966 	addc	a,r7
      003AEF FF               [12]11967 	mov	r7,a
      003AF0 90r01r01         [24]11968 	mov	dptr,#_uip_len
      003AF3 E0               [24]11969 	movx	a,@dptr
      003AF4 FC               [12]11970 	mov	r4,a
      003AF5 A3               [24]11971 	inc	dptr
      003AF6 E0               [24]11972 	movx	a,@dptr
      003AF7 EC               [12]11973 	mov	a,r4
      003AF8 24 D8            [12]11974 	add	a,#0xD8
      003AFA 8E 82            [24]11975 	mov	dpl,r6
      003AFC 8F 83            [24]11976 	mov	dph,r7
      003AFE F0               [24]11977 	movx	@dptr,a
                                  11978 ;	../../../../core/net/uip6.c:2247: UIP_TCP_BUF->urgp[0] = UIP_TCP_BUF->urgp[1] = 0;
      003AFF 7Er33            [12]11979 	mov	r6,#(_uip_aligned_buf + 0x0028)
      003B01 7Fs00            [12]11980 	mov	r7,#((_uip_aligned_buf + 0x0028) >> 8)
      003B03 74 12            [12]11981 	mov	a,#0x12
      003B05 2E               [12]11982 	add	a,r6
      003B06 FE               [12]11983 	mov	r6,a
      003B07 E4               [12]11984 	clr	a
      003B08 3F               [12]11985 	addc	a,r7
      003B09 FF               [12]11986 	mov	r7,a
      003B0A 7Cr33            [12]11987 	mov	r4,#(_uip_aligned_buf + 0x0028)
      003B0C 7Ds00            [12]11988 	mov	r5,#((_uip_aligned_buf + 0x0028) >> 8)
      003B0E 74 13            [12]11989 	mov	a,#0x13
      003B10 2C               [12]11990 	add	a,r4
      003B11 F5 82            [12]11991 	mov	dpl,a
      003B13 E4               [12]11992 	clr	a
      003B14 3D               [12]11993 	addc	a,r5
      003B15 F5 83            [12]11994 	mov	dph,a
      003B17 E4               [12]11995 	clr	a
      003B18 F0               [24]11996 	movx	@dptr,a
      003B19 8E 82            [24]11997 	mov	dpl,r6
      003B1B 8F 83            [24]11998 	mov	dph,r7
      003B1D E4               [12]11999 	clr	a
      003B1E F0               [24]12000 	movx	@dptr,a
                                  12001 ;	../../../../core/net/uip6.c:2250: UIP_TCP_BUF->tcpchksum = 0;
      003B1F 7Er33            [12]12002 	mov	r6,#(_uip_aligned_buf + 0x0028)
      003B21 7Fs00            [12]12003 	mov	r7,#((_uip_aligned_buf + 0x0028) >> 8)
      003B23 74 10            [12]12004 	mov	a,#0x10
      003B25 2E               [12]12005 	add	a,r6
      003B26 F5 82            [12]12006 	mov	dpl,a
      003B28 E4               [12]12007 	clr	a
      003B29 3F               [12]12008 	addc	a,r7
      003B2A F5 83            [12]12009 	mov	dph,a
      003B2C E4               [12]12010 	clr	a
      003B2D F0               [24]12011 	movx	@dptr,a
      003B2E E4               [12]12012 	clr	a
      003B2F A3               [24]12013 	inc	dptr
      003B30 F0               [24]12014 	movx	@dptr,a
                                  12015 ;	../../../../core/net/uip6.c:2251: UIP_TCP_BUF->tcpchksum = ~(uip_tcpchksum());
      003B31 7Er33            [12]12016 	mov	r6,#(_uip_aligned_buf + 0x0028)
      003B33 7Fs00            [12]12017 	mov	r7,#((_uip_aligned_buf + 0x0028) >> 8)
      003B35 74 10            [12]12018 	mov	a,#0x10
      003B37 2E               [12]12019 	add	a,r6
      003B38 FE               [12]12020 	mov	r6,a
      003B39 E4               [12]12021 	clr	a
      003B3A 3F               [12]12022 	addc	a,r7
      003B3B FF               [12]12023 	mov	r7,a
      003B3C C0 07            [24]12024 	push	ar7
      003B3E C0 06            [24]12025 	push	ar6
      003B40 78r0D            [12]12026 	mov	r0,#_uip_tcpchksum
      003B42 79s04            [12]12027 	mov	r1,#(_uip_tcpchksum >> 8)
      003B44 7As00            [12]12028 	mov	r2,#(_uip_tcpchksum >> 16)
      003B46 12r00r00         [24]12029 	lcall	__sdcc_banked_call
      003B49 AC 82            [24]12030 	mov	r4,dpl
      003B4B AD 83            [24]12031 	mov	r5,dph
      003B4D D0 06            [24]12032 	pop	ar6
      003B4F D0 07            [24]12033 	pop	ar7
      003B51 EC               [12]12034 	mov	a,r4
      003B52 F4               [12]12035 	cpl	a
      003B53 FC               [12]12036 	mov	r4,a
      003B54 ED               [12]12037 	mov	a,r5
      003B55 F4               [12]12038 	cpl	a
      003B56 FD               [12]12039 	mov	r5,a
      003B57 8E 82            [24]12040 	mov	dpl,r6
      003B59 8F 83            [24]12041 	mov	dph,r7
      003B5B EC               [12]12042 	mov	a,r4
      003B5C F0               [24]12043 	movx	@dptr,a
      003B5D ED               [12]12044 	mov	a,r5
      003B5E A3               [24]12045 	inc	dptr
      003B5F F0               [24]12046 	movx	@dptr,a
                                  12047 ;	../../../../core/net/uip6.c:2256: ip_send_nolen:
      003B60                      12048 00480$:
                                  12049 ;	../../../../core/net/uip6.c:2258: UIP_IP_BUF->vtc = 0x60;
      003B60 90r00r0B         [24]12050 	mov	dptr,#_uip_aligned_buf
      003B63 74 60            [12]12051 	mov	a,#0x60
      003B65 F0               [24]12052 	movx	@dptr,a
                                  12053 ;	../../../../core/net/uip6.c:2259: UIP_IP_BUF->tcflow = 0x00;
      003B66 7Er0B            [12]12054 	mov	r6,#_uip_aligned_buf
      003B68 7Fs00            [12]12055 	mov	r7,#(_uip_aligned_buf >> 8)
      003B6A 8E 82            [24]12056 	mov	dpl,r6
      003B6C 8F 83            [24]12057 	mov	dph,r7
      003B6E A3               [24]12058 	inc	dptr
      003B6F E4               [12]12059 	clr	a
      003B70 F0               [24]12060 	movx	@dptr,a
                                  12061 ;	../../../../core/net/uip6.c:2260: UIP_IP_BUF->flow = 0x00;
      003B71 7Er0B            [12]12062 	mov	r6,#_uip_aligned_buf
      003B73 7Fs00            [12]12063 	mov	r7,#(_uip_aligned_buf >> 8)
      003B75 8E 82            [24]12064 	mov	dpl,r6
      003B77 8F 83            [24]12065 	mov	dph,r7
      003B79 A3               [24]12066 	inc	dptr
      003B7A A3               [24]12067 	inc	dptr
      003B7B E4               [12]12068 	clr	a
      003B7C F0               [24]12069 	movx	@dptr,a
      003B7D E4               [12]12070 	clr	a
      003B7E A3               [24]12071 	inc	dptr
      003B7F F0               [24]12072 	movx	@dptr,a
                                  12073 ;	../../../../core/net/uip6.c:2261: send:
      003B80                      12074 00481$:
                                  12075 ;	../../../../core/net/uip6.c:2267: uip_flags = 0;
      003B80 90r01r05         [24]12076 	mov	dptr,#_uip_flags
      003B83 E4               [12]12077 	clr	a
      003B84 F0               [24]12078 	movx	@dptr,a
                                  12079 ;	../../../../core/net/uip6.c:2268: return;
                                  12080 ;	../../../../core/net/uip6.c:2270: drop:
      003B85 80 15            [24]12081 	sjmp	00499$
      003B87                      12082 00482$:
                                  12083 ;	../../../../core/net/uip6.c:2271: uip_len = 0;
      003B87 90r01r01         [24]12084 	mov	dptr,#_uip_len
      003B8A E4               [12]12085 	clr	a
      003B8B F0               [24]12086 	movx	@dptr,a
      003B8C E4               [12]12087 	clr	a
      003B8D A3               [24]12088 	inc	dptr
      003B8E F0               [24]12089 	movx	@dptr,a
                                  12090 ;	../../../../core/net/uip6.c:2272: uip_ext_len = 0;
      003B8F 90r00r01         [24]12091 	mov	dptr,#_uip_ext_len
                                  12092 ;	../../../../core/net/uip6.c:2273: uip_ext_bitmap = 0;
                                  12093 ;	../../../../core/net/uip6.c:2274: uip_flags = 0;
      003B92 E4               [12]12094 	clr	a
      003B93 F0               [24]12095 	movx	@dptr,a
      003B94 90r00r00         [24]12096 	mov	dptr,#_uip_ext_bitmap
      003B97 F0               [24]12097 	movx	@dptr,a
      003B98 90r01r05         [24]12098 	mov	dptr,#_uip_flags
      003B9B F0               [24]12099 	movx	@dptr,a
                                  12100 ;	../../../../core/net/uip6.c:2275: return;
      003B9C                      12101 00499$:
      003B9C E5 81            [12]12102 	mov	a,sp
      003B9E 24 F5            [12]12103 	add	a,#0xF5
      003BA0 F5 81            [12]12104 	mov	sp,a
      003BA2 02r00r00         [24]12105 	ljmp	__sdcc_banked_ret
                                  12106 ;------------------------------------------------------------
                                  12107 ;Allocation info for local variables in function 'uip_htons'
                                  12108 ;------------------------------------------------------------
                                  12109 ;val                       Allocated to registers r6 r7 
                                  12110 ;------------------------------------------------------------
                                  12111 ;	../../../../core/net/uip6.c:2279: uip_htons(uint16_t val)
                                  12112 ;	-----------------------------------------
                                  12113 ;	 function uip_htons
                                  12114 ;	-----------------------------------------
      003BA5                      12115 _uip_htons:
      003BA5 AE 82            [24]12116 	mov	r6,dpl
      003BA7 AF 83            [24]12117 	mov	r7,dph
                                  12118 ;	../../../../core/net/uip6.c:2281: return UIP_HTONS(val);
      003BA9 8E 05            [24]12119 	mov	ar5,r6
      003BAB 7C 00            [12]12120 	mov	r4,#0x00
      003BAD 8F 06            [24]12121 	mov	ar6,r7
      003BAF 7F 00            [12]12122 	mov	r7,#0x00
      003BB1 EE               [12]12123 	mov	a,r6
      003BB2 42 04            [12]12124 	orl	ar4,a
      003BB4 EF               [12]12125 	mov	a,r7
      003BB5 42 05            [12]12126 	orl	ar5,a
      003BB7 8C 82            [24]12127 	mov	dpl,r4
      003BB9 8D 83            [24]12128 	mov	dph,r5
      003BBB 02r00r00         [24]12129 	ljmp	__sdcc_banked_ret
                                  12130 ;------------------------------------------------------------
                                  12131 ;Allocation info for local variables in function 'uip_htonl'
                                  12132 ;------------------------------------------------------------
                                  12133 ;val                       Allocated to registers r4 r5 r6 r7 
                                  12134 ;------------------------------------------------------------
                                  12135 ;	../../../../core/net/uip6.c:2285: uip_htonl(uint32_t val)
                                  12136 ;	-----------------------------------------
                                  12137 ;	 function uip_htonl
                                  12138 ;	-----------------------------------------
      003BBE                      12139 _uip_htonl:
      003BBE AC 82            [24]12140 	mov	r4,dpl
      003BC0 AD 83            [24]12141 	mov	r5,dph
      003BC2 AE F0            [24]12142 	mov	r6,b
      003BC4 FF               [12]12143 	mov	r7,a
                                  12144 ;	../../../../core/net/uip6.c:2287: return UIP_HTONL(val);
      003BC5 8C 02            [24]12145 	mov	ar2,r4
      003BC7 8D 03            [24]12146 	mov	ar3,r5
      003BC9 8A 01            [24]12147 	mov	ar1,r2
      003BCB 78 00            [12]12148 	mov	r0,#0x00
      003BCD 8B 02            [24]12149 	mov	ar2,r3
      003BCF 7B 00            [12]12150 	mov	r3,#0x00
      003BD1 EA               [12]12151 	mov	a,r2
      003BD2 42 00            [12]12152 	orl	ar0,a
      003BD4 EB               [12]12153 	mov	a,r3
      003BD5 42 01            [12]12154 	orl	ar1,a
      003BD7 89 02            [24]12155 	mov	ar2,r1
      003BD9 88 03            [24]12156 	mov	ar3,r0
      003BDB 79 00            [12]12157 	mov	r1,#0x00
      003BDD 78 00            [12]12158 	mov	r0,#0x00
      003BDF 8E 04            [24]12159 	mov	ar4,r6
      003BE1 8F 05            [24]12160 	mov	ar5,r7
      003BE3 8C 07            [24]12161 	mov	ar7,r4
      003BE5 7E 00            [12]12162 	mov	r6,#0x00
      003BE7 8D 04            [24]12163 	mov	ar4,r5
      003BE9 7D 00            [12]12164 	mov	r5,#0x00
      003BEB EC               [12]12165 	mov	a,r4
      003BEC 42 06            [12]12166 	orl	ar6,a
      003BEE ED               [12]12167 	mov	a,r5
      003BEF 42 07            [12]12168 	orl	ar7,a
      003BF1 E4               [12]12169 	clr	a
      003BF2 FD               [12]12170 	mov	r5,a
      003BF3 FC               [12]12171 	mov	r4,a
      003BF4 EE               [12]12172 	mov	a,r6
      003BF5 42 00            [12]12173 	orl	ar0,a
      003BF7 EF               [12]12174 	mov	a,r7
      003BF8 42 01            [12]12175 	orl	ar1,a
      003BFA ED               [12]12176 	mov	a,r5
      003BFB 42 03            [12]12177 	orl	ar3,a
      003BFD EC               [12]12178 	mov	a,r4
      003BFE 42 02            [12]12179 	orl	ar2,a
      003C00 88 82            [24]12180 	mov	dpl,r0
      003C02 89 83            [24]12181 	mov	dph,r1
      003C04 8B F0            [24]12182 	mov	b,r3
      003C06 EA               [12]12183 	mov	a,r2
      003C07 02r00r00         [24]12184 	ljmp	__sdcc_banked_ret
                                  12185 ;------------------------------------------------------------
                                  12186 ;Allocation info for local variables in function 'uip_send'
                                  12187 ;------------------------------------------------------------
                                  12188 ;len                       Allocated to stack - sp -10
                                  12189 ;data                      Allocated to stack - sp -2
                                  12190 ;sloc0                     Allocated to stack - sp -2
                                  12191 ;sloc1                     Allocated to stack - sp -5
                                  12192 ;copylen                   Allocated with name '_uip_send_copylen_1_423'
                                  12193 ;------------------------------------------------------------
                                  12194 ;	../../../../core/net/uip6.c:2291: uip_send(const void *data, int len)
                                  12195 ;	-----------------------------------------
                                  12196 ;	 function uip_send
                                  12197 ;	-----------------------------------------
      003C0A                      12198 _uip_send:
      003C0A E5 81            [12]12199 	mov	a,sp
      003C0C 24 06            [12]12200 	add	a,#0x06
      003C0E F5 81            [12]12201 	mov	sp,a
      003C10 A8 81            [24]12202 	mov	r0,sp
      003C12 18               [12]12203 	dec	r0
      003C13 18               [12]12204 	dec	r0
      003C14 A6 82            [24]12205 	mov	@r0,dpl
      003C16 08               [12]12206 	inc	r0
      003C17 A6 83            [24]12207 	mov	@r0,dph
      003C19 08               [12]12208 	inc	r0
      003C1A A6 F0            [24]12209 	mov	@r0,b
                                  12210 ;	../../../../core/net/uip6.c:2295: copylen = MIN(len, UIP_BUFSIZE - UIP_LLH_LEN - UIP_TCPIP_HLEN -
      003C1C 90r00rFE         [24]12211 	mov	dptr,#_uip_sappdata
      003C1F E5 81            [12]12212 	mov	a,sp
      003C21 24 FB            [12]12213 	add	a,#0xfb
      003C23 F8               [12]12214 	mov	r0,a
      003C24 E0               [24]12215 	movx	a,@dptr
      003C25 F6               [12]12216 	mov	@r0,a
      003C26 A3               [24]12217 	inc	dptr
      003C27 E0               [24]12218 	movx	a,@dptr
      003C28 08               [12]12219 	inc	r0
      003C29 F6               [12]12220 	mov	@r0,a
      003C2A A3               [24]12221 	inc	dptr
      003C2B E0               [24]12222 	movx	a,@dptr
      003C2C 08               [12]12223 	inc	r0
      003C2D F6               [12]12224 	mov	@r0,a
      003C2E E5 81            [12]12225 	mov	a,sp
      003C30 24 FB            [12]12226 	add	a,#0xfb
      003C32 F8               [12]12227 	mov	r0,a
      003C33 86 02            [24]12228 	mov	ar2,@r0
      003C35 08               [12]12229 	inc	r0
      003C36 86 03            [24]12230 	mov	ar3,@r0
      003C38 08               [12]12231 	inc	r0
      003C39 86 04            [24]12232 	mov	ar4,@r0
      003C3B 7Er47            [12]12233 	mov	r6,#(_uip_aligned_buf + 0x003c)
      003C3D 7Fs00            [12]12234 	mov	r7,#((_uip_aligned_buf + 0x003c) >> 8)
      003C3F EA               [12]12235 	mov	a,r2
      003C40 C3               [12]12236 	clr	c
      003C41 9E               [12]12237 	subb	a,r6
      003C42 FE               [12]12238 	mov	r6,a
      003C43 EB               [12]12239 	mov	a,r3
      003C44 9F               [12]12240 	subb	a,r7
      003C45 FF               [12]12241 	mov	r7,a
      003C46 74 B4            [12]12242 	mov	a,#0xB4
      003C48 C3               [12]12243 	clr	c
      003C49 9E               [12]12244 	subb	a,r6
      003C4A FE               [12]12245 	mov	r6,a
      003C4B E4               [12]12246 	clr	a
      003C4C 9F               [12]12247 	subb	a,r7
      003C4D FF               [12]12248 	mov	r7,a
      003C4E E5 81            [12]12249 	mov	a,sp
      003C50 24 F6            [12]12250 	add	a,#0xf6
      003C52 F8               [12]12251 	mov	r0,a
      003C53 C3               [12]12252 	clr	c
      003C54 E6               [12]12253 	mov	a,@r0
      003C55 9E               [12]12254 	subb	a,r6
      003C56 08               [12]12255 	inc	r0
      003C57 E6               [12]12256 	mov	a,@r0
      003C58 64 80            [12]12257 	xrl	a,#0x80
      003C5A 8F F0            [24]12258 	mov	b,r7
      003C5C 63 F0 80         [24]12259 	xrl	b,#0x80
      003C5F 95 F0            [12]12260 	subb	a,b
      003C61 50 0C            [24]12261 	jnc	00107$
      003C63 E5 81            [12]12262 	mov	a,sp
      003C65 24 F6            [12]12263 	add	a,#0xf6
      003C67 F8               [12]12264 	mov	r0,a
      003C68 86 06            [24]12265 	mov	ar6,@r0
      003C6A 08               [12]12266 	inc	r0
      003C6B 86 07            [24]12267 	mov	ar7,@r0
      003C6D 80 22            [24]12268 	sjmp	00108$
      003C6F                      12269 00107$:
      003C6F E5 81            [12]12270 	mov	a,sp
      003C71 24 FB            [12]12271 	add	a,#0xfb
      003C73 F8               [12]12272 	mov	r0,a
      003C74 86 03            [24]12273 	mov	ar3,@r0
      003C76 08               [12]12274 	inc	r0
      003C77 86 04            [24]12275 	mov	ar4,@r0
      003C79 08               [12]12276 	inc	r0
      003C7A 86 05            [24]12277 	mov	ar5,@r0
      003C7C 8D 07            [24]12278 	mov	ar7,r5
      003C7E 7Ar47            [12]12279 	mov	r2,#(_uip_aligned_buf + 0x003c)
      003C80 7Ds00            [12]12280 	mov	r5,#((_uip_aligned_buf + 0x003c) >> 8)
      003C82 EB               [12]12281 	mov	a,r3
      003C83 C3               [12]12282 	clr	c
      003C84 9A               [12]12283 	subb	a,r2
      003C85 FA               [12]12284 	mov	r2,a
      003C86 EC               [12]12285 	mov	a,r4
      003C87 9D               [12]12286 	subb	a,r5
      003C88 FD               [12]12287 	mov	r5,a
      003C89 74 B4            [12]12288 	mov	a,#0xB4
      003C8B C3               [12]12289 	clr	c
      003C8C 9A               [12]12290 	subb	a,r2
      003C8D FE               [12]12291 	mov	r6,a
      003C8E E4               [12]12292 	clr	a
      003C8F 9D               [12]12293 	subb	a,r5
      003C90 FF               [12]12294 	mov	r7,a
      003C91                      12295 00108$:
      003C91 90r04r30         [24]12296 	mov	dptr,#_uip_send_copylen_1_423
      003C94 EE               [12]12297 	mov	a,r6
      003C95 F0               [24]12298 	movx	@dptr,a
      003C96 EF               [12]12299 	mov	a,r7
      003C97 A3               [24]12300 	inc	dptr
      003C98 F0               [24]12301 	movx	@dptr,a
                                  12302 ;	../../../../core/net/uip6.c:2297: if(copylen > 0) {
      003C99 C3               [12]12303 	clr	c
      003C9A E4               [12]12304 	clr	a
      003C9B 9E               [12]12305 	subb	a,r6
      003C9C E4               [12]12306 	clr	a
      003C9D 64 80            [12]12307 	xrl	a,#0x80
      003C9F 8F F0            [24]12308 	mov	b,r7
      003CA1 63 F0 80         [24]12309 	xrl	b,#0x80
      003CA4 95 F0            [12]12310 	subb	a,b
      003CA6 50 5F            [24]12311 	jnc	00105$
                                  12312 ;	../../../../core/net/uip6.c:2298: uip_slen = copylen;
      003CA8 90r01r03         [24]12313 	mov	dptr,#_uip_slen
      003CAB EE               [12]12314 	mov	a,r6
      003CAC F0               [24]12315 	movx	@dptr,a
      003CAD EF               [12]12316 	mov	a,r7
      003CAE A3               [24]12317 	inc	dptr
      003CAF F0               [24]12318 	movx	@dptr,a
                                  12319 ;	../../../../core/net/uip6.c:2299: if(data != uip_sappdata) {
      003CB0 A8 81            [24]12320 	mov	r0,sp
      003CB2 18               [12]12321 	dec	r0
      003CB3 18               [12]12322 	dec	r0
      003CB4 E5 81            [12]12323 	mov	a,sp
      003CB6 24 FB            [12]12324 	add	a,#0xfb
      003CB8 F9               [12]12325 	mov	r1,a
      003CB9 E7               [12]12326 	mov	a,@r1
      003CBA C0 E0            [24]12327 	push	acc
      003CBC 09               [12]12328 	inc	r1
      003CBD E7               [12]12329 	mov	a,@r1
      003CBE C0 E0            [24]12330 	push	acc
      003CC0 09               [12]12331 	inc	r1
      003CC1 E7               [12]12332 	mov	a,@r1
      003CC2 C0 E0            [24]12333 	push	acc
      003CC4 86 82            [24]12334 	mov	dpl,@r0
      003CC6 08               [12]12335 	inc	r0
      003CC7 86 83            [24]12336 	mov	dph,@r0
      003CC9 08               [12]12337 	inc	r0
      003CCA 86 F0            [24]12338 	mov	b,@r0
      003CCC 12r00r00         [24]12339 	lcall	___gptr_cmp
      003CCF 15 81            [12]12340 	dec	sp
      003CD1 15 81            [12]12341 	dec	sp
      003CD3 15 81            [12]12342 	dec	sp
      003CD5 60 30            [24]12343 	jz	00105$
                                  12344 ;	../../../../core/net/uip6.c:2300: memcpy(uip_sappdata, (data), uip_slen);
      003CD7 C0 06            [24]12345 	push	ar6
      003CD9 C0 07            [24]12346 	push	ar7
      003CDB E5 81            [12]12347 	mov	a,sp
      003CDD 24 FC            [12]12348 	add	a,#0xfc
      003CDF F8               [12]12349 	mov	r0,a
      003CE0 E6               [12]12350 	mov	a,@r0
      003CE1 C0 E0            [24]12351 	push	acc
      003CE3 08               [12]12352 	inc	r0
      003CE4 E6               [12]12353 	mov	a,@r0
      003CE5 C0 E0            [24]12354 	push	acc
      003CE7 08               [12]12355 	inc	r0
      003CE8 E6               [12]12356 	mov	a,@r0
      003CE9 C0 E0            [24]12357 	push	acc
      003CEB E5 81            [12]12358 	mov	a,sp
      003CED 24 F6            [12]12359 	add	a,#0xf6
      003CEF F8               [12]12360 	mov	r0,a
      003CF0 86 82            [24]12361 	mov	dpl,@r0
      003CF2 08               [12]12362 	inc	r0
      003CF3 86 83            [24]12363 	mov	dph,@r0
      003CF5 08               [12]12364 	inc	r0
      003CF6 86 F0            [24]12365 	mov	b,@r0
      003CF8 78r00            [12]12366 	mov	r0,#_memcpy
      003CFA 79s00            [12]12367 	mov	r1,#(_memcpy >> 8)
      003CFC 7As00            [12]12368 	mov	r2,#(_memcpy >> 16)
      003CFE 12r00r00         [24]12369 	lcall	__sdcc_banked_call
      003D01 E5 81            [12]12370 	mov	a,sp
      003D03 24 FB            [12]12371 	add	a,#0xfb
      003D05 F5 81            [12]12372 	mov	sp,a
      003D07                      12373 00105$:
      003D07 E5 81            [12]12374 	mov	a,sp
      003D09 24 FA            [12]12375 	add	a,#0xFA
      003D0B F5 81            [12]12376 	mov	sp,a
      003D0D 02r00r00         [24]12377 	ljmp	__sdcc_banked_ret
                                  12378 	.area CSEG    (CODE)
                                  12379 	.area CONST   (CODE)
                                  12380 	.area XINIT   (CODE)
      000000                      12381 __xinit__uip_ext_bitmap:
      000000 00                   12382 	.db #0x00	; 0
      000001                      12383 __xinit__uip_ext_len:
      000001 00                   12384 	.db #0x00	; 0
      000002                      12385 __xinit__uip_ext_opt_offset:
      000002 00                   12386 	.db #0x00	; 0
                                  12387 	.area CABS    (ABS,CODE)
